ARM GAS  C:\Users\User\AppData\Local\Temp\ccB0ONzK.s 			page 1


   1              		.syntax unified
   2              		.cpu cortex-m3
   3              		.fpu softvfp
   4              		.eabi_attribute 20, 1
   5              		.eabi_attribute 21, 1
   6              		.eabi_attribute 23, 3
   7              		.eabi_attribute 24, 1
   8              		.eabi_attribute 25, 1
   9              		.eabi_attribute 26, 1
  10              		.eabi_attribute 30, 1
  11              		.eabi_attribute 34, 1
  12              		.eabi_attribute 18, 4
  13              		.thumb
  14              		.syntax unified
  15              		.file	"cyfitter_cfg.c"
  16              		.text
  17              	.Ltext0:
  18              		.cfi_sections	.debug_frame
  19              		.section	.text.CyClockStartupError,"ax",%progbits
  20              		.align	2
  21              		.thumb
  22              		.thumb_func
  23              		.type	CyClockStartupError, %function
  24              	CyClockStartupError:
  25              	.LFB3:
  26              		.file 1 "Generated_Source\\PSoC5\\cyfitter_cfg.c"
   1:Generated_Source\PSoC5/cyfitter_cfg.c **** 
   2:Generated_Source\PSoC5/cyfitter_cfg.c **** /*******************************************************************************
   3:Generated_Source\PSoC5/cyfitter_cfg.c **** * File Name: cyfitter_cfg.c
   4:Generated_Source\PSoC5/cyfitter_cfg.c **** * 
   5:Generated_Source\PSoC5/cyfitter_cfg.c **** * PSoC Creator  4.1 Update 1
   6:Generated_Source\PSoC5/cyfitter_cfg.c **** *
   7:Generated_Source\PSoC5/cyfitter_cfg.c **** * Description:
   8:Generated_Source\PSoC5/cyfitter_cfg.c **** * This file contains device initialization code.
   9:Generated_Source\PSoC5/cyfitter_cfg.c **** * Except for the user defined sections in CyClockStartupError(), this file should not be modified.
  10:Generated_Source\PSoC5/cyfitter_cfg.c **** * This file is automatically generated by PSoC Creator.
  11:Generated_Source\PSoC5/cyfitter_cfg.c **** *
  12:Generated_Source\PSoC5/cyfitter_cfg.c **** ********************************************************************************
  13:Generated_Source\PSoC5/cyfitter_cfg.c **** * Copyright (c) 2007-2017 Cypress Semiconductor.  All rights reserved.
  14:Generated_Source\PSoC5/cyfitter_cfg.c **** * You may use this file only in accordance with the license, terms, conditions, 
  15:Generated_Source\PSoC5/cyfitter_cfg.c **** * disclaimers, and limitations in the end user license agreement accompanying 
  16:Generated_Source\PSoC5/cyfitter_cfg.c **** * the software package with which this file was provided.
  17:Generated_Source\PSoC5/cyfitter_cfg.c **** ********************************************************************************/
  18:Generated_Source\PSoC5/cyfitter_cfg.c **** 
  19:Generated_Source\PSoC5/cyfitter_cfg.c **** #include <string.h>
  20:Generated_Source\PSoC5/cyfitter_cfg.c **** #include "cytypes.h"
  21:Generated_Source\PSoC5/cyfitter_cfg.c **** #include "cydevice_trm.h"
  22:Generated_Source\PSoC5/cyfitter_cfg.c **** #include "cyfitter.h"
  23:Generated_Source\PSoC5/cyfitter_cfg.c **** #include "CyLib.h"
  24:Generated_Source\PSoC5/cyfitter_cfg.c **** #include "cyfitter_cfg.h"
  25:Generated_Source\PSoC5/cyfitter_cfg.c **** #include "cyapicallbacks.h"
  26:Generated_Source\PSoC5/cyfitter_cfg.c **** 
  27:Generated_Source\PSoC5/cyfitter_cfg.c **** #define CY_NEED_CYCLOCKSTARTUPERROR 1
  28:Generated_Source\PSoC5/cyfitter_cfg.c **** 
  29:Generated_Source\PSoC5/cyfitter_cfg.c **** 
  30:Generated_Source\PSoC5/cyfitter_cfg.c **** #if defined(__GNUC__) || defined(__ARMCC_VERSION)
  31:Generated_Source\PSoC5/cyfitter_cfg.c ****     #define CYPACKED 
ARM GAS  C:\Users\User\AppData\Local\Temp\ccB0ONzK.s 			page 2


  32:Generated_Source\PSoC5/cyfitter_cfg.c ****     #define CYPACKED_ATTR __attribute__ ((packed))
  33:Generated_Source\PSoC5/cyfitter_cfg.c ****     #define CYALIGNED __attribute__ ((aligned))
  34:Generated_Source\PSoC5/cyfitter_cfg.c ****     #define CY_CFG_UNUSED __attribute__ ((unused))
  35:Generated_Source\PSoC5/cyfitter_cfg.c ****     #ifndef CY_CFG_SECTION
  36:Generated_Source\PSoC5/cyfitter_cfg.c ****         #define CY_CFG_SECTION __attribute__ ((section(".psocinit")))
  37:Generated_Source\PSoC5/cyfitter_cfg.c ****     #endif
  38:Generated_Source\PSoC5/cyfitter_cfg.c ****     
  39:Generated_Source\PSoC5/cyfitter_cfg.c ****     #if defined(__ARMCC_VERSION)
  40:Generated_Source\PSoC5/cyfitter_cfg.c ****         #define CY_CFG_MEMORY_BARRIER() __memory_changed()
  41:Generated_Source\PSoC5/cyfitter_cfg.c ****     #else
  42:Generated_Source\PSoC5/cyfitter_cfg.c ****         #define CY_CFG_MEMORY_BARRIER() __sync_synchronize()
  43:Generated_Source\PSoC5/cyfitter_cfg.c ****     #endif
  44:Generated_Source\PSoC5/cyfitter_cfg.c ****     
  45:Generated_Source\PSoC5/cyfitter_cfg.c **** #elif defined(__ICCARM__)
  46:Generated_Source\PSoC5/cyfitter_cfg.c ****     #include <intrinsics.h>
  47:Generated_Source\PSoC5/cyfitter_cfg.c **** 
  48:Generated_Source\PSoC5/cyfitter_cfg.c ****     #define CYPACKED __packed
  49:Generated_Source\PSoC5/cyfitter_cfg.c ****     #define CYPACKED_ATTR 
  50:Generated_Source\PSoC5/cyfitter_cfg.c ****     #define CYALIGNED _Pragma("data_alignment=4")
  51:Generated_Source\PSoC5/cyfitter_cfg.c ****     #define CY_CFG_UNUSED _Pragma("diag_suppress=Pe177")
  52:Generated_Source\PSoC5/cyfitter_cfg.c ****     #define CY_CFG_SECTION _Pragma("location=\".psocinit\"")
  53:Generated_Source\PSoC5/cyfitter_cfg.c ****     
  54:Generated_Source\PSoC5/cyfitter_cfg.c ****     #define CY_CFG_MEMORY_BARRIER() __DMB()
  55:Generated_Source\PSoC5/cyfitter_cfg.c ****     
  56:Generated_Source\PSoC5/cyfitter_cfg.c **** #else
  57:Generated_Source\PSoC5/cyfitter_cfg.c ****     #error Unsupported toolchain
  58:Generated_Source\PSoC5/cyfitter_cfg.c **** #endif
  59:Generated_Source\PSoC5/cyfitter_cfg.c **** 
  60:Generated_Source\PSoC5/cyfitter_cfg.c **** #ifndef CYCODE
  61:Generated_Source\PSoC5/cyfitter_cfg.c ****     #define CYCODE
  62:Generated_Source\PSoC5/cyfitter_cfg.c **** #endif
  63:Generated_Source\PSoC5/cyfitter_cfg.c **** #ifndef CYDATA
  64:Generated_Source\PSoC5/cyfitter_cfg.c ****     #define CYDATA
  65:Generated_Source\PSoC5/cyfitter_cfg.c **** #endif
  66:Generated_Source\PSoC5/cyfitter_cfg.c **** #ifndef CYFAR
  67:Generated_Source\PSoC5/cyfitter_cfg.c ****     #define CYFAR
  68:Generated_Source\PSoC5/cyfitter_cfg.c **** #endif
  69:Generated_Source\PSoC5/cyfitter_cfg.c **** #ifndef CYXDATA
  70:Generated_Source\PSoC5/cyfitter_cfg.c ****     #define CYXDATA
  71:Generated_Source\PSoC5/cyfitter_cfg.c **** #endif
  72:Generated_Source\PSoC5/cyfitter_cfg.c **** 
  73:Generated_Source\PSoC5/cyfitter_cfg.c **** 
  74:Generated_Source\PSoC5/cyfitter_cfg.c **** CY_CFG_UNUSED
  75:Generated_Source\PSoC5/cyfitter_cfg.c **** static void CYMEMZERO(void *s, size_t n);
  76:Generated_Source\PSoC5/cyfitter_cfg.c **** CY_CFG_UNUSED
  77:Generated_Source\PSoC5/cyfitter_cfg.c **** static void CYMEMZERO(void *s, size_t n)
  78:Generated_Source\PSoC5/cyfitter_cfg.c **** {
  79:Generated_Source\PSoC5/cyfitter_cfg.c **** 	(void)memset(s, 0, n);
  80:Generated_Source\PSoC5/cyfitter_cfg.c **** }
  81:Generated_Source\PSoC5/cyfitter_cfg.c **** CY_CFG_UNUSED
  82:Generated_Source\PSoC5/cyfitter_cfg.c **** static void CYCONFIGCPY(void *dest, const void *src, size_t n);
  83:Generated_Source\PSoC5/cyfitter_cfg.c **** CY_CFG_UNUSED
  84:Generated_Source\PSoC5/cyfitter_cfg.c **** static void CYCONFIGCPY(void *dest, const void *src, size_t n)
  85:Generated_Source\PSoC5/cyfitter_cfg.c **** {
  86:Generated_Source\PSoC5/cyfitter_cfg.c **** 	(void)memcpy(dest, src, n);
  87:Generated_Source\PSoC5/cyfitter_cfg.c **** }
  88:Generated_Source\PSoC5/cyfitter_cfg.c **** CY_CFG_UNUSED
ARM GAS  C:\Users\User\AppData\Local\Temp\ccB0ONzK.s 			page 3


  89:Generated_Source\PSoC5/cyfitter_cfg.c **** static void CYCONFIGCPYCODE(void *dest, const void *src, size_t n);
  90:Generated_Source\PSoC5/cyfitter_cfg.c **** CY_CFG_UNUSED
  91:Generated_Source\PSoC5/cyfitter_cfg.c **** static void CYCONFIGCPYCODE(void *dest, const void *src, size_t n)
  92:Generated_Source\PSoC5/cyfitter_cfg.c **** {
  93:Generated_Source\PSoC5/cyfitter_cfg.c **** 	(void)memcpy(dest, src, n);
  94:Generated_Source\PSoC5/cyfitter_cfg.c **** }
  95:Generated_Source\PSoC5/cyfitter_cfg.c **** 
  96:Generated_Source\PSoC5/cyfitter_cfg.c **** 
  97:Generated_Source\PSoC5/cyfitter_cfg.c **** 
  98:Generated_Source\PSoC5/cyfitter_cfg.c **** 
  99:Generated_Source\PSoC5/cyfitter_cfg.c **** /* Clock startup error codes                                                   */
 100:Generated_Source\PSoC5/cyfitter_cfg.c **** #define CYCLOCKSTART_NO_ERROR    0u
 101:Generated_Source\PSoC5/cyfitter_cfg.c **** #define CYCLOCKSTART_XTAL_ERROR  1u
 102:Generated_Source\PSoC5/cyfitter_cfg.c **** #define CYCLOCKSTART_32KHZ_ERROR 2u
 103:Generated_Source\PSoC5/cyfitter_cfg.c **** #define CYCLOCKSTART_PLL_ERROR   3u
 104:Generated_Source\PSoC5/cyfitter_cfg.c **** #define CYCLOCKSTART_FLL_ERROR   4u
 105:Generated_Source\PSoC5/cyfitter_cfg.c **** 
 106:Generated_Source\PSoC5/cyfitter_cfg.c **** 
 107:Generated_Source\PSoC5/cyfitter_cfg.c **** #ifdef CY_NEED_CYCLOCKSTARTUPERROR
 108:Generated_Source\PSoC5/cyfitter_cfg.c **** /*******************************************************************************
 109:Generated_Source\PSoC5/cyfitter_cfg.c **** * Function Name: CyClockStartupError
 110:Generated_Source\PSoC5/cyfitter_cfg.c **** ********************************************************************************
 111:Generated_Source\PSoC5/cyfitter_cfg.c **** * Summary:
 112:Generated_Source\PSoC5/cyfitter_cfg.c **** *  If an error is encountered during clock configuration (crystal startup error,
 113:Generated_Source\PSoC5/cyfitter_cfg.c **** *  PLL lock error, etc.), the system will end up here.  Unless reimplemented by
 114:Generated_Source\PSoC5/cyfitter_cfg.c **** *  the customer, this function will stop in an infinite loop.
 115:Generated_Source\PSoC5/cyfitter_cfg.c **** *
 116:Generated_Source\PSoC5/cyfitter_cfg.c **** * Parameters:
 117:Generated_Source\PSoC5/cyfitter_cfg.c **** *   void
 118:Generated_Source\PSoC5/cyfitter_cfg.c **** *
 119:Generated_Source\PSoC5/cyfitter_cfg.c **** * Return:
 120:Generated_Source\PSoC5/cyfitter_cfg.c **** *   void
 121:Generated_Source\PSoC5/cyfitter_cfg.c **** *
 122:Generated_Source\PSoC5/cyfitter_cfg.c **** *******************************************************************************/
 123:Generated_Source\PSoC5/cyfitter_cfg.c **** CY_CFG_UNUSED
 124:Generated_Source\PSoC5/cyfitter_cfg.c **** static void CyClockStartupError(uint8 errorCode);
 125:Generated_Source\PSoC5/cyfitter_cfg.c **** CY_CFG_UNUSED
 126:Generated_Source\PSoC5/cyfitter_cfg.c **** static void CyClockStartupError(uint8 errorCode)
 127:Generated_Source\PSoC5/cyfitter_cfg.c **** {
  27              		.loc 1 127 0
  28              		.cfi_startproc
  29              		@ Volatile: function does not return.
  30              		@ args = 0, pretend = 0, frame = 0
  31              		@ frame_needed = 0, uses_anonymous_args = 0
  32              		@ link register save eliminated.
  33              	.LVL0:
  34              	.L2:
  35 0000 FEE7     		b	.L2
  36              		.cfi_endproc
  37              	.LFE3:
  38              		.size	CyClockStartupError, .-CyClockStartupError
  39 0002 00BF     		.section	.text.cfg_write_bytes32,"ax",%progbits
  40              		.align	2
  41              		.thumb
  42              		.thumb_func
  43              		.type	cfg_write_bytes32, %function
  44              	cfg_write_bytes32:
ARM GAS  C:\Users\User\AppData\Local\Temp\ccB0ONzK.s 			page 4


  45              	.LFB4:
 128:Generated_Source\PSoC5/cyfitter_cfg.c ****     /* To remove the compiler warning if errorCode not used. */
 129:Generated_Source\PSoC5/cyfitter_cfg.c **** #if defined(CY_PSOC3) && (CY_PSOC3)
 130:Generated_Source\PSoC5/cyfitter_cfg.c ****     errorCode = errorCode;
 131:Generated_Source\PSoC5/cyfitter_cfg.c **** #else
 132:Generated_Source\PSoC5/cyfitter_cfg.c ****     (void)errorCode;
 133:Generated_Source\PSoC5/cyfitter_cfg.c **** #endif /* CY_PSOC3 */
 134:Generated_Source\PSoC5/cyfitter_cfg.c **** 
 135:Generated_Source\PSoC5/cyfitter_cfg.c ****     /* If we have a clock startup error (bad MHz crystal, PLL lock, etc.),  */
 136:Generated_Source\PSoC5/cyfitter_cfg.c ****     /* we will end up here to allow the customer to implement something to  */
 137:Generated_Source\PSoC5/cyfitter_cfg.c ****     /* deal with the clock condition.                                       */
 138:Generated_Source\PSoC5/cyfitter_cfg.c **** 
 139:Generated_Source\PSoC5/cyfitter_cfg.c **** #ifdef CY_CFG_CLOCK_STARTUP_ERROR_CALLBACK
 140:Generated_Source\PSoC5/cyfitter_cfg.c ****     CY_CFG_Clock_Startup_ErrorCallback();
 141:Generated_Source\PSoC5/cyfitter_cfg.c **** #else
 142:Generated_Source\PSoC5/cyfitter_cfg.c ****     /*  If not using CY_CFG_CLOCK_STARTUP_ERROR_CALLBACK, place your clock startup code here. */
 143:Generated_Source\PSoC5/cyfitter_cfg.c ****     /* `#START CyClockStartupError` */
 144:Generated_Source\PSoC5/cyfitter_cfg.c **** 
 145:Generated_Source\PSoC5/cyfitter_cfg.c **** 
 146:Generated_Source\PSoC5/cyfitter_cfg.c **** 
 147:Generated_Source\PSoC5/cyfitter_cfg.c ****     /* `#END` */
 148:Generated_Source\PSoC5/cyfitter_cfg.c **** 
 149:Generated_Source\PSoC5/cyfitter_cfg.c ****     while(1) {}
 150:Generated_Source\PSoC5/cyfitter_cfg.c **** #endif /* CY_CFG_CLOCK_STARTUP_ERROR_CALLBACK */
 151:Generated_Source\PSoC5/cyfitter_cfg.c **** }
 152:Generated_Source\PSoC5/cyfitter_cfg.c **** #endif
 153:Generated_Source\PSoC5/cyfitter_cfg.c **** 
 154:Generated_Source\PSoC5/cyfitter_cfg.c **** #define CY_CFG_BASE_ADDR_COUNT 36u
 155:Generated_Source\PSoC5/cyfitter_cfg.c **** CYPACKED typedef struct
 156:Generated_Source\PSoC5/cyfitter_cfg.c **** {
 157:Generated_Source\PSoC5/cyfitter_cfg.c **** 	uint8 offset;
 158:Generated_Source\PSoC5/cyfitter_cfg.c **** 	uint8 value;
 159:Generated_Source\PSoC5/cyfitter_cfg.c **** } CYPACKED_ATTR cy_cfg_addrvalue_t;
 160:Generated_Source\PSoC5/cyfitter_cfg.c **** 
 161:Generated_Source\PSoC5/cyfitter_cfg.c **** #define cy_cfg_addr_table ((const uint32 CYFAR *)0x48000000u)
 162:Generated_Source\PSoC5/cyfitter_cfg.c **** #define cy_cfg_data_table ((const cy_cfg_addrvalue_t CYFAR *)0x48000090u)
 163:Generated_Source\PSoC5/cyfitter_cfg.c **** 
 164:Generated_Source\PSoC5/cyfitter_cfg.c **** /* IOPINS0_0 Address: CYREG_PRT0_DM0 Size (bytes): 8 */
 165:Generated_Source\PSoC5/cyfitter_cfg.c **** #define BS_IOPINS0_0_VAL ((const uint8 CYFAR *)0x48000734u)
 166:Generated_Source\PSoC5/cyfitter_cfg.c **** 
 167:Generated_Source\PSoC5/cyfitter_cfg.c **** /* IOPINS0_7 Address: CYREG_PRT12_DR Size (bytes): 10 */
 168:Generated_Source\PSoC5/cyfitter_cfg.c **** #define BS_IOPINS0_7_VAL ((const uint8 CYFAR *)0x4800073Cu)
 169:Generated_Source\PSoC5/cyfitter_cfg.c **** 
 170:Generated_Source\PSoC5/cyfitter_cfg.c **** /* IOPINS0_8 Address: CYREG_PRT15_DM0 Size (bytes): 8 */
 171:Generated_Source\PSoC5/cyfitter_cfg.c **** #define BS_IOPINS0_8_VAL ((const uint8 CYFAR *)0x48000748u)
 172:Generated_Source\PSoC5/cyfitter_cfg.c **** 
 173:Generated_Source\PSoC5/cyfitter_cfg.c **** /* IOPINS0_1 Address: CYREG_PRT1_DM0 Size (bytes): 8 */
 174:Generated_Source\PSoC5/cyfitter_cfg.c **** #define BS_IOPINS0_1_VAL ((const uint8 CYFAR *)0x48000750u)
 175:Generated_Source\PSoC5/cyfitter_cfg.c **** 
 176:Generated_Source\PSoC5/cyfitter_cfg.c **** /* IOPINS0_2 Address: CYREG_PRT2_DR Size (bytes): 10 */
 177:Generated_Source\PSoC5/cyfitter_cfg.c **** #define BS_IOPINS0_2_VAL ((const uint8 CYFAR *)0x48000758u)
 178:Generated_Source\PSoC5/cyfitter_cfg.c **** 
 179:Generated_Source\PSoC5/cyfitter_cfg.c **** /* IOPINS0_3 Address: CYREG_PRT3_DM0 Size (bytes): 8 */
 180:Generated_Source\PSoC5/cyfitter_cfg.c **** #define BS_IOPINS0_3_VAL ((const uint8 CYFAR *)0x48000764u)
 181:Generated_Source\PSoC5/cyfitter_cfg.c **** 
 182:Generated_Source\PSoC5/cyfitter_cfg.c **** /* CYDEV_CLKDIST_ACFG0_CFG0 Address: CYREG_CLKDIST_ACFG0_CFG0 Size (bytes): 4 */
 183:Generated_Source\PSoC5/cyfitter_cfg.c **** #define BS_CYDEV_CLKDIST_ACFG0_CFG0_VAL ((const uint8 CYFAR *)0x4800076Cu)
ARM GAS  C:\Users\User\AppData\Local\Temp\ccB0ONzK.s 			page 5


 184:Generated_Source\PSoC5/cyfitter_cfg.c **** 
 185:Generated_Source\PSoC5/cyfitter_cfg.c **** /* PHUB_CFGMEM1 Address: CYREG_PHUB_CFGMEM1_CFG0 Size (bytes): 4 */
 186:Generated_Source\PSoC5/cyfitter_cfg.c **** #define BS_PHUB_CFGMEM1_VAL ((const uint8 CYFAR *)0x48000770u)
 187:Generated_Source\PSoC5/cyfitter_cfg.c **** 
 188:Generated_Source\PSoC5/cyfitter_cfg.c **** /* PHUB_CFGMEM2 Address: CYREG_PHUB_CFGMEM2_CFG0 Size (bytes): 4 */
 189:Generated_Source\PSoC5/cyfitter_cfg.c **** #define BS_PHUB_CFGMEM2_VAL ((const uint8 CYFAR *)0x48000774u)
 190:Generated_Source\PSoC5/cyfitter_cfg.c **** 
 191:Generated_Source\PSoC5/cyfitter_cfg.c **** /* PHUB_CFGMEM3 Address: CYREG_PHUB_CFGMEM3_CFG0 Size (bytes): 4 */
 192:Generated_Source\PSoC5/cyfitter_cfg.c **** #define BS_PHUB_CFGMEM3_VAL ((const uint8 CYFAR *)0x48000778u)
 193:Generated_Source\PSoC5/cyfitter_cfg.c **** 
 194:Generated_Source\PSoC5/cyfitter_cfg.c **** /* PHUB_CFGMEM4 Address: CYREG_PHUB_CFGMEM4_CFG0 Size (bytes): 4 */
 195:Generated_Source\PSoC5/cyfitter_cfg.c **** #define BS_PHUB_CFGMEM4_VAL ((const uint8 CYFAR *)0x4800077Cu)
 196:Generated_Source\PSoC5/cyfitter_cfg.c **** 
 197:Generated_Source\PSoC5/cyfitter_cfg.c **** /* PHUB_CFGMEM5 Address: CYREG_PHUB_CFGMEM5_CFG0 Size (bytes): 4 */
 198:Generated_Source\PSoC5/cyfitter_cfg.c **** #define BS_PHUB_CFGMEM5_VAL ((const uint8 CYFAR *)0x48000780u)
 199:Generated_Source\PSoC5/cyfitter_cfg.c **** 
 200:Generated_Source\PSoC5/cyfitter_cfg.c **** 
 201:Generated_Source\PSoC5/cyfitter_cfg.c **** /*******************************************************************************
 202:Generated_Source\PSoC5/cyfitter_cfg.c **** * Function Name: cfg_write_bytes32
 203:Generated_Source\PSoC5/cyfitter_cfg.c **** ********************************************************************************
 204:Generated_Source\PSoC5/cyfitter_cfg.c **** * Summary:
 205:Generated_Source\PSoC5/cyfitter_cfg.c **** *  This function is used for setting up the chip configuration areas that
 206:Generated_Source\PSoC5/cyfitter_cfg.c **** *  contain relatively sparse data.
 207:Generated_Source\PSoC5/cyfitter_cfg.c **** *
 208:Generated_Source\PSoC5/cyfitter_cfg.c **** * Parameters:
 209:Generated_Source\PSoC5/cyfitter_cfg.c **** *   void
 210:Generated_Source\PSoC5/cyfitter_cfg.c **** *
 211:Generated_Source\PSoC5/cyfitter_cfg.c **** * Return:
 212:Generated_Source\PSoC5/cyfitter_cfg.c **** *   void
 213:Generated_Source\PSoC5/cyfitter_cfg.c **** *
 214:Generated_Source\PSoC5/cyfitter_cfg.c **** *******************************************************************************/
 215:Generated_Source\PSoC5/cyfitter_cfg.c **** static void cfg_write_bytes32(const uint32 addr_table[], const cy_cfg_addrvalue_t data_table[]);
 216:Generated_Source\PSoC5/cyfitter_cfg.c **** static void cfg_write_bytes32(const uint32 addr_table[], const cy_cfg_addrvalue_t data_table[])
 217:Generated_Source\PSoC5/cyfitter_cfg.c **** {
  46              		.loc 1 217 0
  47              		.cfi_startproc
  48              		@ args = 0, pretend = 0, frame = 0
  49              		@ frame_needed = 0, uses_anonymous_args = 0
  50              		@ link register save eliminated.
  51              	.LVL1:
  52              		.loc 1 217 0
  53 0000 F0B4     		push	{r4, r5, r6, r7}
  54              		.cfi_def_cfa_offset 16
  55              		.cfi_offset 4, -16
  56              		.cfi_offset 5, -12
  57              		.cfi_offset 6, -8
  58              		.cfi_offset 7, -4
  59              	.LVL2:
 218:Generated_Source\PSoC5/cyfitter_cfg.c **** 	/* For 32-bit little-endian architectures */
 219:Generated_Source\PSoC5/cyfitter_cfg.c **** 	uint32 i, j = 0u;
  60              		.loc 1 219 0
  61 0002 0022     		movs	r2, #0
 220:Generated_Source\PSoC5/cyfitter_cfg.c **** 	for (i = 0u; i < CY_CFG_BASE_ADDR_COUNT; i++)
  62              		.loc 1 220 0
  63 0004 1746     		mov	r7, r2
  64 0006 11E0     		b	.L4
  65              	.LVL3:
ARM GAS  C:\Users\User\AppData\Local\Temp\ccB0ONzK.s 			page 6


  66              	.L7:
  67              	.LBB2:
 221:Generated_Source\PSoC5/cyfitter_cfg.c **** 	{
 222:Generated_Source\PSoC5/cyfitter_cfg.c **** 		uint32 baseAddr = addr_table[i];
  68              		.loc 1 222 0
  69 0008 50F82760 		ldr	r6, [r0, r7, lsl #2]
  70              	.LVL4:
 223:Generated_Source\PSoC5/cyfitter_cfg.c **** 		uint8 count = (uint8)baseAddr;
  71              		.loc 1 223 0
  72 000c F3B2     		uxtb	r3, r6
  73              	.LVL5:
 224:Generated_Source\PSoC5/cyfitter_cfg.c **** 		baseAddr &= 0xFFFFFF00u;
  74              		.loc 1 224 0
  75 000e 26F0FF06 		bic	r6, r6, #255
  76              	.LVL6:
 225:Generated_Source\PSoC5/cyfitter_cfg.c **** 		while (count != 0u)
  77              		.loc 1 225 0
  78 0012 08E0     		b	.L5
  79              	.L6:
 226:Generated_Source\PSoC5/cyfitter_cfg.c **** 		{
 227:Generated_Source\PSoC5/cyfitter_cfg.c **** 			CY_SET_REG8((void *)(baseAddr + data_table[j].offset), data_table[j].value);
  80              		.loc 1 227 0
  81 0014 01EB4205 		add	r5, r1, r2, lsl #1
  82 0018 11F81240 		ldrb	r4, [r1, r2, lsl #1]	@ zero_extendqisi2
  83 001c 6D78     		ldrb	r5, [r5, #1]	@ zero_extendqisi2
  84 001e A555     		strb	r5, [r4, r6]
 228:Generated_Source\PSoC5/cyfitter_cfg.c **** 			j++;
  85              		.loc 1 228 0
  86 0020 0132     		adds	r2, r2, #1
  87              	.LVL7:
 229:Generated_Source\PSoC5/cyfitter_cfg.c **** 			count--;
  88              		.loc 1 229 0
  89 0022 013B     		subs	r3, r3, #1
  90              	.LVL8:
  91 0024 DBB2     		uxtb	r3, r3
  92              	.LVL9:
  93              	.L5:
 225:Generated_Source\PSoC5/cyfitter_cfg.c **** 		{
  94              		.loc 1 225 0
  95 0026 002B     		cmp	r3, #0
  96 0028 F4D1     		bne	.L6
  97              	.LBE2:
 220:Generated_Source\PSoC5/cyfitter_cfg.c **** 	{
  98              		.loc 1 220 0 discriminator 2
  99 002a 0137     		adds	r7, r7, #1
 100              	.LVL10:
 101              	.L4:
 220:Generated_Source\PSoC5/cyfitter_cfg.c **** 	{
 102              		.loc 1 220 0 is_stmt 0 discriminator 1
 103 002c 232F     		cmp	r7, #35
 104 002e EBD9     		bls	.L7
 230:Generated_Source\PSoC5/cyfitter_cfg.c **** 		}
 231:Generated_Source\PSoC5/cyfitter_cfg.c **** 	}
 232:Generated_Source\PSoC5/cyfitter_cfg.c **** }
 105              		.loc 1 232 0 is_stmt 1
 106 0030 F0BC     		pop	{r4, r5, r6, r7}
 107              		.cfi_restore 7
ARM GAS  C:\Users\User\AppData\Local\Temp\ccB0ONzK.s 			page 7


 108              		.cfi_restore 6
 109              		.cfi_restore 5
 110              		.cfi_restore 4
 111              		.cfi_def_cfa_offset 0
 112              	.LVL11:
 113 0032 7047     		bx	lr
 114              		.cfi_endproc
 115              	.LFE4:
 116              		.size	cfg_write_bytes32, .-cfg_write_bytes32
 117              		.section	.text.CYMEMZERO,"ax",%progbits
 118              		.align	2
 119              		.thumb
 120              		.thumb_func
 121              		.type	CYMEMZERO, %function
 122              	CYMEMZERO:
 123              	.LFB0:
  78:Generated_Source\PSoC5/cyfitter_cfg.c **** 	(void)memset(s, 0, n);
 124              		.loc 1 78 0
 125              		.cfi_startproc
 126              		@ args = 0, pretend = 0, frame = 0
 127              		@ frame_needed = 0, uses_anonymous_args = 0
 128              	.LVL12:
 129 0000 08B5     		push	{r3, lr}
 130              		.cfi_def_cfa_offset 8
 131              		.cfi_offset 3, -8
 132              		.cfi_offset 14, -4
  79:Generated_Source\PSoC5/cyfitter_cfg.c **** }
 133              		.loc 1 79 0
 134 0002 0A46     		mov	r2, r1
 135 0004 0021     		movs	r1, #0
 136              	.LVL13:
 137 0006 FFF7FEFF 		bl	memset
 138              	.LVL14:
 139 000a 08BD     		pop	{r3, pc}
 140              		.cfi_endproc
 141              	.LFE0:
 142              		.size	CYMEMZERO, .-CYMEMZERO
 143              		.section	.text.AnalogSetDefault,"ax",%progbits
 144              		.align	2
 145              		.thumb
 146              		.thumb_func
 147              		.type	AnalogSetDefault, %function
 148              	AnalogSetDefault:
 149              	.LFB6:
 233:Generated_Source\PSoC5/cyfitter_cfg.c **** 
 234:Generated_Source\PSoC5/cyfitter_cfg.c **** /*******************************************************************************
 235:Generated_Source\PSoC5/cyfitter_cfg.c **** * Function Name: ClockSetup
 236:Generated_Source\PSoC5/cyfitter_cfg.c **** ********************************************************************************
 237:Generated_Source\PSoC5/cyfitter_cfg.c **** *
 238:Generated_Source\PSoC5/cyfitter_cfg.c **** * Summary:
 239:Generated_Source\PSoC5/cyfitter_cfg.c **** *  Performs the initialization of all of the clocks in the device based on the
 240:Generated_Source\PSoC5/cyfitter_cfg.c **** *  settings in the Clock tab of the DWR.  This includes enabling the requested
 241:Generated_Source\PSoC5/cyfitter_cfg.c **** *  clocks and setting the necessary dividers to produce the desired frequency. 
 242:Generated_Source\PSoC5/cyfitter_cfg.c **** *
 243:Generated_Source\PSoC5/cyfitter_cfg.c **** * Parameters:
 244:Generated_Source\PSoC5/cyfitter_cfg.c **** *  void
 245:Generated_Source\PSoC5/cyfitter_cfg.c **** *
ARM GAS  C:\Users\User\AppData\Local\Temp\ccB0ONzK.s 			page 8


 246:Generated_Source\PSoC5/cyfitter_cfg.c **** * Return:
 247:Generated_Source\PSoC5/cyfitter_cfg.c **** *  void
 248:Generated_Source\PSoC5/cyfitter_cfg.c **** *
 249:Generated_Source\PSoC5/cyfitter_cfg.c **** *******************************************************************************/
 250:Generated_Source\PSoC5/cyfitter_cfg.c **** static void ClockSetup(void);
 251:Generated_Source\PSoC5/cyfitter_cfg.c **** static void ClockSetup(void)
 252:Generated_Source\PSoC5/cyfitter_cfg.c **** {
 253:Generated_Source\PSoC5/cyfitter_cfg.c **** 	uint32 timeout;
 254:Generated_Source\PSoC5/cyfitter_cfg.c **** 	uint8 pllLock;
 255:Generated_Source\PSoC5/cyfitter_cfg.c **** 
 256:Generated_Source\PSoC5/cyfitter_cfg.c **** 
 257:Generated_Source\PSoC5/cyfitter_cfg.c **** 	/* Configure Digital Clocks based on settings from Clock DWR */
 258:Generated_Source\PSoC5/cyfitter_cfg.c **** 	CY_SET_XTND_REG16((void CYFAR *)(CYREG_CLKDIST_DCFG0_CFG0), 0x004Du);
 259:Generated_Source\PSoC5/cyfitter_cfg.c **** 	CY_SET_XTND_REG8((void CYFAR *)(CYREG_CLKDIST_DCFG0_CFG0 + 0x2u), 0x18u);
 260:Generated_Source\PSoC5/cyfitter_cfg.c **** 
 261:Generated_Source\PSoC5/cyfitter_cfg.c **** 	/* Configure Analog Clocks based on settings from Clock DWR */
 262:Generated_Source\PSoC5/cyfitter_cfg.c **** 	CYCONFIGCPY((void CYFAR *)(CYREG_CLKDIST_ACFG0_CFG0), (const void CYFAR *)(BS_CYDEV_CLKDIST_ACFG0_
 263:Generated_Source\PSoC5/cyfitter_cfg.c **** 
 264:Generated_Source\PSoC5/cyfitter_cfg.c **** 	/* Configure ILO based on settings from Clock DWR */
 265:Generated_Source\PSoC5/cyfitter_cfg.c **** 	CY_SET_XTND_REG8((void CYFAR *)(CYREG_SLOWCLK_ILO_CR0), 0x06u);
 266:Generated_Source\PSoC5/cyfitter_cfg.c **** 
 267:Generated_Source\PSoC5/cyfitter_cfg.c **** 	/* Configure XTAL based on settings from Clock DWR */
 268:Generated_Source\PSoC5/cyfitter_cfg.c **** 	CY_SET_XTND_REG16((void CYFAR *)(CYREG_FASTCLK_XMHZ_CFG0), 0x550Eu);
 269:Generated_Source\PSoC5/cyfitter_cfg.c **** 	CY_SET_XTND_REG8((void CYFAR *)(CYREG_FASTCLK_XMHZ_CSR), 0x05u);
 270:Generated_Source\PSoC5/cyfitter_cfg.c **** 	/* Wait up to 130000us for the XTAL to lock */
 271:Generated_Source\PSoC5/cyfitter_cfg.c **** 	CY_GET_XTND_REG8((void CYFAR *)CYREG_FASTCLK_XMHZ_CSR);
 272:Generated_Source\PSoC5/cyfitter_cfg.c **** 	for (timeout = 130000u / 10u; (timeout > 0u) && ((CY_GET_XTND_REG8((void CYFAR *)CYREG_FASTCLK_XMH
 273:Generated_Source\PSoC5/cyfitter_cfg.c **** 	{ 
 274:Generated_Source\PSoC5/cyfitter_cfg.c **** 		
 275:Generated_Source\PSoC5/cyfitter_cfg.c **** 		CyDelayCycles(10u * 48u); /* Delay 10us based on 48MHz clock */
 276:Generated_Source\PSoC5/cyfitter_cfg.c **** 	}
 277:Generated_Source\PSoC5/cyfitter_cfg.c **** 	if (timeout == 0u)
 278:Generated_Source\PSoC5/cyfitter_cfg.c **** 	{
 279:Generated_Source\PSoC5/cyfitter_cfg.c **** 		CyClockStartupError(CYCLOCKSTART_XTAL_ERROR);
 280:Generated_Source\PSoC5/cyfitter_cfg.c **** 	}
 281:Generated_Source\PSoC5/cyfitter_cfg.c **** 
 282:Generated_Source\PSoC5/cyfitter_cfg.c **** 	/* Configure PLL based on settings from Clock DWR */
 283:Generated_Source\PSoC5/cyfitter_cfg.c **** 	CY_SET_XTND_REG16((void CYFAR *)(CYREG_FASTCLK_PLL_P), 0x0118u);
 284:Generated_Source\PSoC5/cyfitter_cfg.c **** 	CY_SET_XTND_REG8((void CYFAR *)(CYREG_CLKDIST_CR), 0x01u);
 285:Generated_Source\PSoC5/cyfitter_cfg.c **** 	CY_SET_XTND_REG16((void CYFAR *)(CYREG_FASTCLK_PLL_CFG0), 0x2251u);
 286:Generated_Source\PSoC5/cyfitter_cfg.c **** 	/* Wait up to 250us for the PLL to lock */
 287:Generated_Source\PSoC5/cyfitter_cfg.c **** 	pllLock = 0u;
 288:Generated_Source\PSoC5/cyfitter_cfg.c **** 	for (timeout = 250u / 10u; (timeout > 0u) && (pllLock != 0x03u); timeout--)
 289:Generated_Source\PSoC5/cyfitter_cfg.c **** 	{ 
 290:Generated_Source\PSoC5/cyfitter_cfg.c **** 		pllLock = 0x03u & ((uint8)((uint8)pllLock << 1) | ((CY_GET_XTND_REG8((void CYFAR *)CYREG_FASTCLK_
 291:Generated_Source\PSoC5/cyfitter_cfg.c **** 		CyDelayCycles(10u * 48u); /* Delay 10us based on 48MHz clock */
 292:Generated_Source\PSoC5/cyfitter_cfg.c **** 	}
 293:Generated_Source\PSoC5/cyfitter_cfg.c **** 	/* If we ran out of time the PLL didn't lock so go to the error function */
 294:Generated_Source\PSoC5/cyfitter_cfg.c **** 	if (timeout == 0u)
 295:Generated_Source\PSoC5/cyfitter_cfg.c **** 	{
 296:Generated_Source\PSoC5/cyfitter_cfg.c **** 		CyClockStartupError(CYCLOCKSTART_PLL_ERROR);
 297:Generated_Source\PSoC5/cyfitter_cfg.c **** 	}
 298:Generated_Source\PSoC5/cyfitter_cfg.c **** 
 299:Generated_Source\PSoC5/cyfitter_cfg.c **** 	/* Configure Bus/Master Clock based on settings from Clock DWR */
 300:Generated_Source\PSoC5/cyfitter_cfg.c **** 	CY_SET_XTND_REG16((void CYFAR *)(CYREG_CLKDIST_MSTR0), 0x0100u);
 301:Generated_Source\PSoC5/cyfitter_cfg.c **** 
 302:Generated_Source\PSoC5/cyfitter_cfg.c **** 	/* Configure IMO based on settings from Clock DWR */
ARM GAS  C:\Users\User\AppData\Local\Temp\ccB0ONzK.s 			page 9


 303:Generated_Source\PSoC5/cyfitter_cfg.c **** 	CY_SET_XTND_REG8((void CYFAR *)(CYREG_FASTCLK_IMO_CR), 0x52u);
 304:Generated_Source\PSoC5/cyfitter_cfg.c **** 	CY_SET_XTND_REG8((void CYFAR *)(CYREG_IMO_TR1), (CY_GET_XTND_REG8((void CYFAR *)CYREG_FLSHID_CUST_
 305:Generated_Source\PSoC5/cyfitter_cfg.c **** 	CY_SET_XTND_REG8((void CYFAR *)(CYREG_CLKDIST_MSTR0), 0x07u);
 306:Generated_Source\PSoC5/cyfitter_cfg.c **** 	CY_SET_XTND_REG8((void CYFAR *)(CYREG_CLKDIST_BCFG0), 0x00u);
 307:Generated_Source\PSoC5/cyfitter_cfg.c **** 	CY_SET_XTND_REG8((void CYFAR *)(CYREG_CLKDIST_BCFG2), 0x48u);
 308:Generated_Source\PSoC5/cyfitter_cfg.c **** 	CY_SET_XTND_REG8((void CYFAR *)(CYREG_CLKDIST_MSTR0), 0x00u);
 309:Generated_Source\PSoC5/cyfitter_cfg.c **** 
 310:Generated_Source\PSoC5/cyfitter_cfg.c **** 	/* Configure USB Clock based on settings from Clock DWR */
 311:Generated_Source\PSoC5/cyfitter_cfg.c **** 	CY_SET_XTND_REG8((void CYFAR *)(CYREG_CLKDIST_UCFG), 0x00u);
 312:Generated_Source\PSoC5/cyfitter_cfg.c **** 	CY_SET_XTND_REG8((void CYFAR *)(CYREG_CLKDIST_LD), 0x02u);
 313:Generated_Source\PSoC5/cyfitter_cfg.c **** 	CY_SET_XTND_REG8((void CYFAR *)(CYREG_CLKDIST_DLY1), 0x04u);
 314:Generated_Source\PSoC5/cyfitter_cfg.c **** 
 315:Generated_Source\PSoC5/cyfitter_cfg.c **** 	CY_SET_XTND_REG8((void CYFAR *)(CYREG_PM_ACT_CFG2), ((CY_GET_XTND_REG8((void CYFAR *)CYREG_PM_ACT_
 316:Generated_Source\PSoC5/cyfitter_cfg.c **** 	CY_SET_XTND_REG8((void CYFAR *)(CYREG_PM_ACT_CFG1), ((CY_GET_XTND_REG8((void CYFAR *)CYREG_PM_ACT_
 317:Generated_Source\PSoC5/cyfitter_cfg.c **** 	CY_SET_XTND_REG8((void CYFAR *)(CYREG_PM_ACT_CFG0), ((CY_GET_XTND_REG8((void CYFAR *)CYREG_PM_ACT_
 318:Generated_Source\PSoC5/cyfitter_cfg.c **** }
 319:Generated_Source\PSoC5/cyfitter_cfg.c **** 
 320:Generated_Source\PSoC5/cyfitter_cfg.c **** 
 321:Generated_Source\PSoC5/cyfitter_cfg.c **** /* Analog API Functions */
 322:Generated_Source\PSoC5/cyfitter_cfg.c **** 
 323:Generated_Source\PSoC5/cyfitter_cfg.c **** 
 324:Generated_Source\PSoC5/cyfitter_cfg.c **** /*******************************************************************************
 325:Generated_Source\PSoC5/cyfitter_cfg.c **** * Function Name: AnalogSetDefault
 326:Generated_Source\PSoC5/cyfitter_cfg.c **** ********************************************************************************
 327:Generated_Source\PSoC5/cyfitter_cfg.c **** *
 328:Generated_Source\PSoC5/cyfitter_cfg.c **** * Summary:
 329:Generated_Source\PSoC5/cyfitter_cfg.c **** *  Sets up the analog portions of the chip to default values based on chip
 330:Generated_Source\PSoC5/cyfitter_cfg.c **** *  configuration options from the project.
 331:Generated_Source\PSoC5/cyfitter_cfg.c **** *
 332:Generated_Source\PSoC5/cyfitter_cfg.c **** * Parameters:
 333:Generated_Source\PSoC5/cyfitter_cfg.c **** *  void
 334:Generated_Source\PSoC5/cyfitter_cfg.c **** *
 335:Generated_Source\PSoC5/cyfitter_cfg.c **** * Return:
 336:Generated_Source\PSoC5/cyfitter_cfg.c **** *  void
 337:Generated_Source\PSoC5/cyfitter_cfg.c **** *
 338:Generated_Source\PSoC5/cyfitter_cfg.c **** *******************************************************************************/
 339:Generated_Source\PSoC5/cyfitter_cfg.c **** static void AnalogSetDefault(void);
 340:Generated_Source\PSoC5/cyfitter_cfg.c **** static void AnalogSetDefault(void)
 341:Generated_Source\PSoC5/cyfitter_cfg.c **** {
 150              		.loc 1 341 0
 151              		.cfi_startproc
 152              		@ args = 0, pretend = 0, frame = 0
 153              		@ frame_needed = 0, uses_anonymous_args = 0
 154 0000 F8B5     		push	{r3, r4, r5, r6, r7, lr}
 155              		.cfi_def_cfa_offset 24
 156              		.cfi_offset 3, -24
 157              		.cfi_offset 4, -20
 158              		.cfi_offset 5, -16
 159              		.cfi_offset 6, -12
 160              		.cfi_offset 7, -8
 161              		.cfi_offset 14, -4
 342:Generated_Source\PSoC5/cyfitter_cfg.c **** 	uint8 bg_xover_inl_trim = CY_GET_XTND_REG8((void CYFAR *)(CYREG_FLSHID_MFG_CFG_BG_XOVER_INL_TRIM +
 162              		.loc 1 342 0
 163 0002 364B     		ldr	r3, .L13
 164 0004 1B78     		ldrb	r3, [r3]	@ zero_extendqisi2
 165 0006 DBB2     		uxtb	r3, r3
 166              	.LVL15:
ARM GAS  C:\Users\User\AppData\Local\Temp\ccB0ONzK.s 			page 10


 343:Generated_Source\PSoC5/cyfitter_cfg.c **** 	uint8 cr4 = CY_GET_XTND_REG8((void CYFAR *)(CYREG_RESET_CR4));
 167              		.loc 1 343 0
 168 0008 354E     		ldr	r6, .L13+4
 169 000a 3478     		ldrb	r4, [r6]	@ zero_extendqisi2
 170 000c E4B2     		uxtb	r4, r4
 171              	.LVL16:
 344:Generated_Source\PSoC5/cyfitter_cfg.c **** 	uint8 cr5 = CY_GET_XTND_REG8((void CYFAR *)(CYREG_RESET_CR5));
 172              		.loc 1 344 0
 173 000e 354F     		ldr	r7, .L13+8
 174 0010 3D78     		ldrb	r5, [r7]	@ zero_extendqisi2
 175 0012 EDB2     		uxtb	r5, r5
 176              	.LVL17:
 345:Generated_Source\PSoC5/cyfitter_cfg.c **** 	CY_SET_XTND_REG8((void CYFAR *)(CYREG_BG_DFT0), (bg_xover_inl_trim & 0x07u));
 177              		.loc 1 345 0
 178 0014 03F00701 		and	r1, r3, #7
 179 0018 334A     		ldr	r2, .L13+12
 180 001a 1170     		strb	r1, [r2]
 346:Generated_Source\PSoC5/cyfitter_cfg.c **** 	CY_SET_XTND_REG8((void CYFAR *)(CYREG_BG_DFT1), ((bg_xover_inl_trim >> 4) & 0x0Fu));
 181              		.loc 1 346 0
 182 001c 1B09     		lsrs	r3, r3, #4
 183              	.LVL18:
 184 001e 0132     		adds	r2, r2, #1
 185 0020 1370     		strb	r3, [r2]
 347:Generated_Source\PSoC5/cyfitter_cfg.c **** 	/* Disable PRES while setting up SAR voltage reference */
 348:Generated_Source\PSoC5/cyfitter_cfg.c **** 	CY_SET_XTND_REG8((void CYFAR *)(CYREG_RESET_CR4), (cr4 | 0x03u));
 186              		.loc 1 348 0
 187 0022 44F00303 		orr	r3, r4, #3
 188 0026 3370     		strb	r3, [r6]
 349:Generated_Source\PSoC5/cyfitter_cfg.c **** 	CY_SET_XTND_REG8((void CYFAR *)(CYREG_RESET_CR5), (cr5 | 0x03u));
 189              		.loc 1 349 0
 190 0028 45F00303 		orr	r3, r5, #3
 191 002c 3B70     		strb	r3, [r7]
 350:Generated_Source\PSoC5/cyfitter_cfg.c **** 	CY_SET_XTND_REG8((void CYFAR *)CYREG_PRT0_AG, 0xC0u);
 192              		.loc 1 350 0
 193 002e C022     		movs	r2, #192
 194 0030 2E4B     		ldr	r3, .L13+16
 195 0032 1A70     		strb	r2, [r3]
 351:Generated_Source\PSoC5/cyfitter_cfg.c **** 	CY_SET_XTND_REG16((void CYFAR *)CYREG_PRT2_AMUX, 0xA108u);
 196              		.loc 1 351 0
 197 0034 4AF20812 		movw	r2, #41224
 198 0038 1F33     		adds	r3, r3, #31
 199 003a 1A80     		strh	r2, [r3]	@ movhi
 352:Generated_Source\PSoC5/cyfitter_cfg.c **** 	CY_SET_XTND_REG8((void CYFAR *)CYREG_PRT3_AG, 0x41u);
 200              		.loc 1 352 0
 201 003c 4122     		movs	r2, #65
 202 003e 1133     		adds	r3, r3, #17
 203 0040 1A70     		strb	r2, [r3]
 353:Generated_Source\PSoC5/cyfitter_cfg.c **** 	CY_SET_XTND_REG8((void CYFAR *)CYREG_SAR0_CSR1, 0x80u);
 204              		.loc 1 353 0
 205 0042 8023     		movs	r3, #128
 206 0044 2A4A     		ldr	r2, .L13+20
 207 0046 1370     		strb	r3, [r2]
 354:Generated_Source\PSoC5/cyfitter_cfg.c **** 	CY_SET_XTND_REG8((void CYFAR *)CYREG_SAR1_CSR1, 0x80u);
 208              		.loc 1 354 0
 209 0048 0832     		adds	r2, r2, #8
 210 004a 1370     		strb	r3, [r2]
 355:Generated_Source\PSoC5/cyfitter_cfg.c **** 	CY_SET_XTND_REG8((void CYFAR *)CYREG_SC1_SW2, 0x08u);
ARM GAS  C:\Users\User\AppData\Local\Temp\ccB0ONzK.s 			page 11


 211              		.loc 1 355 0
 212 004c 0822     		movs	r2, #8
 213 004e 294B     		ldr	r3, .L13+24
 214 0050 1A70     		strb	r2, [r3]
 356:Generated_Source\PSoC5/cyfitter_cfg.c **** 	CY_SET_XTND_REG8((void CYFAR *)CYREG_SC1_SW8, 0x02u);
 215              		.loc 1 356 0
 216 0052 0221     		movs	r1, #2
 217 0054 0633     		adds	r3, r3, #6
 218 0056 1970     		strb	r1, [r3]
 357:Generated_Source\PSoC5/cyfitter_cfg.c **** 	CY_SET_XTND_REG8((void CYFAR *)CYREG_SC2_SW0, 0x10u);
 219              		.loc 1 357 0
 220 0058 1020     		movs	r0, #16
 221 005a 0833     		adds	r3, r3, #8
 222 005c 1870     		strb	r0, [r3]
 358:Generated_Source\PSoC5/cyfitter_cfg.c **** 	CY_SET_XTND_REG8((void CYFAR *)CYREG_SC2_SW2, 0x08u);
 223              		.loc 1 358 0
 224 005e 0233     		adds	r3, r3, #2
 225 0060 1A70     		strb	r2, [r3]
 359:Generated_Source\PSoC5/cyfitter_cfg.c **** 	CY_SET_XTND_REG8((void CYFAR *)CYREG_SC2_SW8, 0x04u);
 226              		.loc 1 359 0
 227 0062 4FF0040E 		mov	lr, #4
 228 0066 0633     		adds	r3, r3, #6
 229 0068 83F800E0 		strb	lr, [r3]
 360:Generated_Source\PSoC5/cyfitter_cfg.c **** 	CY_SET_XTND_REG8((void CYFAR *)CYREG_DAC0_SW4, 0x02u);
 230              		.loc 1 360 0
 231 006c 5C33     		adds	r3, r3, #92
 232 006e 1970     		strb	r1, [r3]
 361:Generated_Source\PSoC5/cyfitter_cfg.c **** 	CY_SET_XTND_REG8((void CYFAR *)CYREG_DAC1_SW4, 0x01u);
 233              		.loc 1 361 0
 234 0070 4FF0010C 		mov	ip, #1
 235 0074 0833     		adds	r3, r3, #8
 236 0076 83F800C0 		strb	ip, [r3]
 362:Generated_Source\PSoC5/cyfitter_cfg.c **** 	CY_SET_XTND_REG8((void CYFAR *)CYREG_DAC2_SW3, 0x10u);
 237              		.loc 1 362 0
 238 007a 0733     		adds	r3, r3, #7
 239 007c 1870     		strb	r0, [r3]
 363:Generated_Source\PSoC5/cyfitter_cfg.c **** 	CY_SET_XTND_REG8((void CYFAR *)CYREG_DAC3_SW4, 0x20u);
 240              		.loc 1 363 0
 241 007e 2023     		movs	r3, #32
 242 0080 DFF884C0 		ldr	ip, .L13+44
 243 0084 8CF80030 		strb	r3, [ip]
 364:Generated_Source\PSoC5/cyfitter_cfg.c **** 	CY_SET_XTND_REG8((void CYFAR *)CYREG_CMP1_SW0, 0x10u);
 244              		.loc 1 364 0
 245 0088 0CF12C0C 		add	ip, ip, #44
 246 008c 8CF80000 		strb	r0, [ip]
 365:Generated_Source\PSoC5/cyfitter_cfg.c **** 	CY_SET_XTND_REG8((void CYFAR *)CYREG_CMP1_SW3, 0x20u);
 247              		.loc 1 365 0
 248 0090 1948     		ldr	r0, .L13+28
 249 0092 0370     		strb	r3, [r0]
 366:Generated_Source\PSoC5/cyfitter_cfg.c **** 	CY_SET_XTND_REG8((void CYFAR *)CYREG_DSM0_SW4, 0x28u);
 250              		.loc 1 366 0
 251 0094 4FF0280C 		mov	ip, #40
 252 0098 3930     		adds	r0, r0, #57
 253 009a 80F800C0 		strb	ip, [r0]
 367:Generated_Source\PSoC5/cyfitter_cfg.c **** 	CY_SET_XTND_REG8((void CYFAR *)CYREG_SAR0_SW0, 0x04u);
 254              		.loc 1 367 0
 255 009e 1C30     		adds	r0, r0, #28
ARM GAS  C:\Users\User\AppData\Local\Temp\ccB0ONzK.s 			page 12


 256 00a0 80F800E0 		strb	lr, [r0]
 368:Generated_Source\PSoC5/cyfitter_cfg.c **** 	CY_SET_XTND_REG8((void CYFAR *)CYREG_SAR0_SW3, 0x20u);
 257              		.loc 1 368 0
 258 00a4 0330     		adds	r0, r0, #3
 259 00a6 0370     		strb	r3, [r0]
 369:Generated_Source\PSoC5/cyfitter_cfg.c **** 	CY_SET_XTND_REG8((void CYFAR *)CYREG_SAR1_SW0, 0x02u);
 260              		.loc 1 369 0
 261 00a8 0530     		adds	r0, r0, #5
 262 00aa 0170     		strb	r1, [r0]
 370:Generated_Source\PSoC5/cyfitter_cfg.c **** 	CY_SET_XTND_REG8((void CYFAR *)CYREG_SAR1_SW3, 0x20u);
 263              		.loc 1 370 0
 264 00ac 1349     		ldr	r1, .L13+32
 265 00ae 0B70     		strb	r3, [r1]
 371:Generated_Source\PSoC5/cyfitter_cfg.c **** 	CY_SET_XTND_REG16((void CYFAR *)CYREG_OPAMP1_MX, 0x0109u);
 266              		.loc 1 371 0
 267 00b0 40F20911 		movw	r1, #265
 268 00b4 124B     		ldr	r3, .L13+36
 269 00b6 1980     		strh	r1, [r3]	@ movhi
 372:Generated_Source\PSoC5/cyfitter_cfg.c **** 	CY_SET_XTND_REG16((void CYFAR *)CYREG_OPAMP2_MX, 0x0104u);
 270              		.loc 1 372 0
 271 00b8 4FF48271 		mov	r1, #260
 272 00bc 0233     		adds	r3, r3, #2
 273 00be 1980     		strh	r1, [r3]	@ movhi
 373:Generated_Source\PSoC5/cyfitter_cfg.c **** 	CY_SET_XTND_REG8((void CYFAR *)CYREG_BUS_SW0, 0x61u);
 274              		.loc 1 373 0
 275 00c0 6121     		movs	r1, #97
 276 00c2 1433     		adds	r3, r3, #20
 277 00c4 1970     		strb	r1, [r3]
 374:Generated_Source\PSoC5/cyfitter_cfg.c **** 	CY_SET_XTND_REG8((void CYFAR *)CYREG_BUS_SW2, 0x08u);
 278              		.loc 1 374 0
 279 00c6 0233     		adds	r3, r3, #2
 280 00c8 1A70     		strb	r2, [r3]
 375:Generated_Source\PSoC5/cyfitter_cfg.c **** 	CyDelayUs(10u); /* Allow vref to settle before re-enabling PRES */
 281              		.loc 1 375 0
 282 00ca 0A20     		movs	r0, #10
 283 00cc FFF7FEFF 		bl	CyDelayUs
 284              	.LVL19:
 376:Generated_Source\PSoC5/cyfitter_cfg.c **** 	CY_SET_XTND_REG8((void CYFAR *)(CYREG_RESET_CR5), (cr5));
 285              		.loc 1 376 0
 286 00d0 3D70     		strb	r5, [r7]
 377:Generated_Source\PSoC5/cyfitter_cfg.c **** 	CY_SET_XTND_REG8((void CYFAR *)(CYREG_RESET_CR4), (cr4));
 287              		.loc 1 377 0
 288 00d2 3470     		strb	r4, [r6]
 378:Generated_Source\PSoC5/cyfitter_cfg.c **** 	CY_SET_XTND_REG8((void CYFAR *)CYREG_PUMP_CR0, 0x44u);
 289              		.loc 1 378 0
 290 00d4 4422     		movs	r2, #68
 291 00d6 0B4B     		ldr	r3, .L13+40
 292 00d8 1A70     		strb	r2, [r3]
 293 00da F8BD     		pop	{r3, r4, r5, r6, r7, pc}
 294              	.LVL20:
 295              	.L14:
 296              		.align	2
 297              	.L13:
 298 00dc CF010049 		.word	1224737231
 299 00e0 F8460040 		.word	1073759992
 300 00e4 F9460040 		.word	1073759993
 301 00e8 6E580040 		.word	1073764462
ARM GAS  C:\Users\User\AppData\Local\Temp\ccB0ONzK.s 			page 13


 302 00ec 0D510040 		.word	1073762573
 303 00f0 01590040 		.word	1073764609
 304 00f4 125A0040 		.word	1073764882
 305 00f8 CB5A0040 		.word	1073765067
 306 00fc 2B5B0040 		.word	1073765163
 307 0100 425B0040 		.word	1073765186
 308 0104 76580040 		.word	1073764470
 309 0108 9C5A0040 		.word	1073765020
 310              		.cfi_endproc
 311              	.LFE6:
 312              		.size	AnalogSetDefault, .-AnalogSetDefault
 313              		.section	.text.CYCONFIGCPY,"ax",%progbits
 314              		.align	2
 315              		.thumb
 316              		.thumb_func
 317              		.type	CYCONFIGCPY, %function
 318              	CYCONFIGCPY:
 319              	.LFB1:
  85:Generated_Source\PSoC5/cyfitter_cfg.c **** 	(void)memcpy(dest, src, n);
 320              		.loc 1 85 0
 321              		.cfi_startproc
 322              		@ args = 0, pretend = 0, frame = 0
 323              		@ frame_needed = 0, uses_anonymous_args = 0
 324              	.LVL21:
 325 0000 08B5     		push	{r3, lr}
 326              		.cfi_def_cfa_offset 8
 327              		.cfi_offset 3, -8
 328              		.cfi_offset 14, -4
  86:Generated_Source\PSoC5/cyfitter_cfg.c **** }
 329              		.loc 1 86 0
 330 0002 FFF7FEFF 		bl	memcpy
 331              	.LVL22:
 332 0006 08BD     		pop	{r3, pc}
 333              		.cfi_endproc
 334              	.LFE1:
 335              		.size	CYCONFIGCPY, .-CYCONFIGCPY
 336              		.section	.text.ClockSetup,"ax",%progbits
 337              		.align	2
 338              		.thumb
 339              		.thumb_func
 340              		.type	ClockSetup, %function
 341              	ClockSetup:
 342              	.LFB5:
 252:Generated_Source\PSoC5/cyfitter_cfg.c **** 	uint32 timeout;
 343              		.loc 1 252 0
 344              		.cfi_startproc
 345              		@ args = 0, pretend = 0, frame = 0
 346              		@ frame_needed = 0, uses_anonymous_args = 0
 347 0000 38B5     		push	{r3, r4, r5, lr}
 348              		.cfi_def_cfa_offset 16
 349              		.cfi_offset 3, -16
 350              		.cfi_offset 4, -12
 351              		.cfi_offset 5, -8
 352              		.cfi_offset 14, -4
 258:Generated_Source\PSoC5/cyfitter_cfg.c **** 	CY_SET_XTND_REG8((void CYFAR *)(CYREG_CLKDIST_DCFG0_CFG0 + 0x2u), 0x18u);
 353              		.loc 1 258 0
 354 0002 4D22     		movs	r2, #77
ARM GAS  C:\Users\User\AppData\Local\Temp\ccB0ONzK.s 			page 14


 355 0004 3C4B     		ldr	r3, .L27
 356 0006 1A80     		strh	r2, [r3]	@ movhi
 259:Generated_Source\PSoC5/cyfitter_cfg.c **** 
 357              		.loc 1 259 0
 358 0008 1822     		movs	r2, #24
 359 000a 0233     		adds	r3, r3, #2
 360 000c 1A70     		strb	r2, [r3]
 262:Generated_Source\PSoC5/cyfitter_cfg.c **** 
 361              		.loc 1 262 0
 362 000e 0422     		movs	r2, #4
 363 0010 3A49     		ldr	r1, .L27+4
 364 0012 3B48     		ldr	r0, .L27+8
 365 0014 FFF7FEFF 		bl	CYCONFIGCPY
 366              	.LVL23:
 265:Generated_Source\PSoC5/cyfitter_cfg.c **** 
 367              		.loc 1 265 0
 368 0018 0622     		movs	r2, #6
 369 001a 3A4B     		ldr	r3, .L27+12
 370 001c 1A70     		strb	r2, [r3]
 268:Generated_Source\PSoC5/cyfitter_cfg.c **** 	CY_SET_XTND_REG8((void CYFAR *)(CYREG_FASTCLK_XMHZ_CSR), 0x05u);
 371              		.loc 1 268 0
 372 001e 45F20E52 		movw	r2, #21774
 373 0022 EE3B     		subs	r3, r3, #238
 374 0024 1A80     		strh	r2, [r3]	@ movhi
 269:Generated_Source\PSoC5/cyfitter_cfg.c **** 	/* Wait up to 130000us for the XTAL to lock */
 375              		.loc 1 269 0
 376 0026 023B     		subs	r3, r3, #2
 377 0028 0522     		movs	r2, #5
 378 002a 1A70     		strb	r2, [r3]
 271:Generated_Source\PSoC5/cyfitter_cfg.c **** 	for (timeout = 130000u / 10u; (timeout > 0u) && ((CY_GET_XTND_REG8((void CYFAR *)CYREG_FASTCLK_XMH
 379              		.loc 1 271 0
 380 002c 1B78     		ldrb	r3, [r3]	@ zero_extendqisi2
 381              	.LVL24:
 272:Generated_Source\PSoC5/cyfitter_cfg.c **** 	{ 
 382              		.loc 1 272 0
 383 002e 43F2C824 		movw	r4, #13000
 384 0032 04E0     		b	.L18
 385              	.LVL25:
 386              	.L20:
 275:Generated_Source\PSoC5/cyfitter_cfg.c **** 	}
 387              		.loc 1 275 0 discriminator 4
 388 0034 4FF4F070 		mov	r0, #480
 389 0038 FFF7FEFF 		bl	CyDelayCycles
 390              	.LVL26:
 272:Generated_Source\PSoC5/cyfitter_cfg.c **** 	{ 
 391              		.loc 1 272 0 discriminator 4
 392 003c 013C     		subs	r4, r4, #1
 393              	.LVL27:
 394              	.L18:
 272:Generated_Source\PSoC5/cyfitter_cfg.c **** 	{ 
 395              		.loc 1 272 0 is_stmt 0 discriminator 1
 396 003e 24B1     		cbz	r4, .L19
 272:Generated_Source\PSoC5/cyfitter_cfg.c **** 	{ 
 397              		.loc 1 272 0 discriminator 3
 398 0040 314B     		ldr	r3, .L27+16
 399 0042 1B78     		ldrb	r3, [r3]	@ zero_extendqisi2
 400 0044 13F0800F 		tst	r3, #128
ARM GAS  C:\Users\User\AppData\Local\Temp\ccB0ONzK.s 			page 15


 401 0048 F4D1     		bne	.L20
 402              	.L19:
 277:Generated_Source\PSoC5/cyfitter_cfg.c **** 	{
 403              		.loc 1 277 0 is_stmt 1
 404 004a 14B9     		cbnz	r4, .L21
 279:Generated_Source\PSoC5/cyfitter_cfg.c **** 	}
 405              		.loc 1 279 0
 406 004c 0120     		movs	r0, #1
 407 004e FFF7FEFF 		bl	CyClockStartupError
 408              	.LVL28:
 409              	.L21:
 283:Generated_Source\PSoC5/cyfitter_cfg.c **** 	CY_SET_XTND_REG8((void CYFAR *)(CYREG_CLKDIST_CR), 0x01u);
 410              		.loc 1 283 0
 411 0052 4FF48C72 		mov	r2, #280
 412 0056 2D4B     		ldr	r3, .L27+20
 413 0058 1A80     		strh	r2, [r3]	@ movhi
 284:Generated_Source\PSoC5/cyfitter_cfg.c **** 	CY_SET_XTND_REG16((void CYFAR *)(CYREG_FASTCLK_PLL_CFG0), 0x2251u);
 414              		.loc 1 284 0
 415 005a 0122     		movs	r2, #1
 416 005c 4FF04023 		mov	r3, #1073758208
 417 0060 1A70     		strb	r2, [r3]
 285:Generated_Source\PSoC5/cyfitter_cfg.c **** 	/* Wait up to 250us for the PLL to lock */
 418              		.loc 1 285 0
 419 0062 42F25122 		movw	r2, #8785
 420 0066 03F50873 		add	r3, r3, #544
 421 006a 1A80     		strh	r2, [r3]	@ movhi
 422              	.LVL29:
 287:Generated_Source\PSoC5/cyfitter_cfg.c **** 	for (timeout = 250u / 10u; (timeout > 0u) && (pllLock != 0x03u); timeout--)
 423              		.loc 1 287 0
 424 006c 0024     		movs	r4, #0
 288:Generated_Source\PSoC5/cyfitter_cfg.c **** 	{ 
 425              		.loc 1 288 0
 426 006e 1925     		movs	r5, #25
 427 0070 0CE0     		b	.L22
 428              	.LVL30:
 429              	.L24:
 290:Generated_Source\PSoC5/cyfitter_cfg.c **** 		CyDelayCycles(10u * 48u); /* Delay 10us based on 48MHz clock */
 430              		.loc 1 290 0 discriminator 4
 431 0072 274B     		ldr	r3, .L27+24
 432 0074 1B78     		ldrb	r3, [r3]	@ zero_extendqisi2
 433 0076 03F00103 		and	r3, r3, #1
 434 007a 43EA4404 		orr	r4, r3, r4, lsl #1
 435              	.LVL31:
 436 007e 04F00304 		and	r4, r4, #3
 437              	.LVL32:
 291:Generated_Source\PSoC5/cyfitter_cfg.c **** 	}
 438              		.loc 1 291 0 discriminator 4
 439 0082 4FF4F070 		mov	r0, #480
 440 0086 FFF7FEFF 		bl	CyDelayCycles
 441              	.LVL33:
 288:Generated_Source\PSoC5/cyfitter_cfg.c **** 	{ 
 442              		.loc 1 288 0 discriminator 4
 443 008a 013D     		subs	r5, r5, #1
 444              	.LVL34:
 445              	.L22:
 288:Generated_Source\PSoC5/cyfitter_cfg.c **** 	{ 
 446              		.loc 1 288 0 is_stmt 0 discriminator 1
ARM GAS  C:\Users\User\AppData\Local\Temp\ccB0ONzK.s 			page 16


 447 008c 0DB1     		cbz	r5, .L23
 288:Generated_Source\PSoC5/cyfitter_cfg.c **** 	{ 
 448              		.loc 1 288 0 discriminator 3
 449 008e 032C     		cmp	r4, #3
 450 0090 EFD1     		bne	.L24
 451              	.L23:
 294:Generated_Source\PSoC5/cyfitter_cfg.c **** 	{
 452              		.loc 1 294 0 is_stmt 1
 453 0092 15B9     		cbnz	r5, .L25
 296:Generated_Source\PSoC5/cyfitter_cfg.c **** 	}
 454              		.loc 1 296 0
 455 0094 0320     		movs	r0, #3
 456 0096 FFF7FEFF 		bl	CyClockStartupError
 457              	.LVL35:
 458              	.L25:
 300:Generated_Source\PSoC5/cyfitter_cfg.c **** 
 459              		.loc 1 300 0
 460 009a 1E4A     		ldr	r2, .L27+28
 461 009c 4FF48073 		mov	r3, #256
 462 00a0 1380     		strh	r3, [r2]	@ movhi
 303:Generated_Source\PSoC5/cyfitter_cfg.c **** 	CY_SET_XTND_REG8((void CYFAR *)(CYREG_IMO_TR1), (CY_GET_XTND_REG8((void CYFAR *)CYREG_FLSHID_CUST_
 463              		.loc 1 303 0
 464 00a2 5221     		movs	r1, #82
 465 00a4 1C4B     		ldr	r3, .L27+32
 466 00a6 1970     		strb	r1, [r3]
 304:Generated_Source\PSoC5/cyfitter_cfg.c **** 	CY_SET_XTND_REG8((void CYFAR *)(CYREG_CLKDIST_MSTR0), 0x07u);
 467              		.loc 1 304 0
 468 00a8 1C4B     		ldr	r3, .L27+36
 469 00aa 1B78     		ldrb	r3, [r3]	@ zero_extendqisi2
 470 00ac DBB2     		uxtb	r3, r3
 471 00ae 1C49     		ldr	r1, .L27+40
 472 00b0 0B70     		strb	r3, [r1]
 305:Generated_Source\PSoC5/cyfitter_cfg.c **** 	CY_SET_XTND_REG8((void CYFAR *)(CYREG_CLKDIST_BCFG0), 0x00u);
 473              		.loc 1 305 0
 474 00b2 0723     		movs	r3, #7
 475 00b4 1370     		strb	r3, [r2]
 306:Generated_Source\PSoC5/cyfitter_cfg.c **** 	CY_SET_XTND_REG8((void CYFAR *)(CYREG_CLKDIST_BCFG2), 0x48u);
 476              		.loc 1 306 0
 477 00b6 0023     		movs	r3, #0
 478 00b8 A1F29B61 		subw	r1, r1, #1691
 479 00bc 0B70     		strb	r3, [r1]
 307:Generated_Source\PSoC5/cyfitter_cfg.c **** 	CY_SET_XTND_REG8((void CYFAR *)(CYREG_CLKDIST_MSTR0), 0x00u);
 480              		.loc 1 307 0
 481 00be 4820     		movs	r0, #72
 482 00c0 0231     		adds	r1, r1, #2
 483 00c2 0870     		strb	r0, [r1]
 308:Generated_Source\PSoC5/cyfitter_cfg.c **** 
 484              		.loc 1 308 0
 485 00c4 1370     		strb	r3, [r2]
 311:Generated_Source\PSoC5/cyfitter_cfg.c **** 	CY_SET_XTND_REG8((void CYFAR *)(CYREG_CLKDIST_LD), 0x02u);
 486              		.loc 1 311 0
 487 00c6 0532     		adds	r2, r2, #5
 488 00c8 1370     		strb	r3, [r2]
 312:Generated_Source\PSoC5/cyfitter_cfg.c **** 	CY_SET_XTND_REG8((void CYFAR *)(CYREG_CLKDIST_DLY1), 0x04u);
 489              		.loc 1 312 0
 490 00ca 0222     		movs	r2, #2
 491 00cc 154B     		ldr	r3, .L27+44
ARM GAS  C:\Users\User\AppData\Local\Temp\ccB0ONzK.s 			page 17


 492 00ce 1A70     		strb	r2, [r3]
 313:Generated_Source\PSoC5/cyfitter_cfg.c **** 
 493              		.loc 1 313 0
 494 00d0 0422     		movs	r2, #4
 495 00d2 0A33     		adds	r3, r3, #10
 496 00d4 1A70     		strb	r2, [r3]
 315:Generated_Source\PSoC5/cyfitter_cfg.c **** 	CY_SET_XTND_REG8((void CYFAR *)(CYREG_PM_ACT_CFG1), ((CY_GET_XTND_REG8((void CYFAR *)CYREG_PM_ACT_
 497              		.loc 1 315 0
 498 00d6 144A     		ldr	r2, .L27+48
 499 00d8 1378     		ldrb	r3, [r2]	@ zero_extendqisi2
 500 00da 43F00103 		orr	r3, r3, #1
 501 00de 1370     		strb	r3, [r2]
 316:Generated_Source\PSoC5/cyfitter_cfg.c **** 	CY_SET_XTND_REG8((void CYFAR *)(CYREG_PM_ACT_CFG0), ((CY_GET_XTND_REG8((void CYFAR *)CYREG_PM_ACT_
 502              		.loc 1 316 0
 503 00e0 013A     		subs	r2, r2, #1
 504 00e2 1378     		ldrb	r3, [r2]	@ zero_extendqisi2
 505 00e4 43F00103 		orr	r3, r3, #1
 506 00e8 1370     		strb	r3, [r2]
 317:Generated_Source\PSoC5/cyfitter_cfg.c **** }
 507              		.loc 1 317 0
 508 00ea 013A     		subs	r2, r2, #1
 509 00ec 1378     		ldrb	r3, [r2]	@ zero_extendqisi2
 510 00ee 43F08003 		orr	r3, r3, #128
 511 00f2 1370     		strb	r3, [r2]
 512 00f4 38BD     		pop	{r3, r4, r5, pc}
 513              	.LVL36:
 514              	.L28:
 515 00f6 00BF     		.align	2
 516              	.L27:
 517 00f8 80400040 		.word	1073758336
 518 00fc 6C070048 		.word	1207961452
 519 0100 00410040 		.word	1073758464
 520 0104 00430040 		.word	1073758976
 521 0108 10420040 		.word	1073758736
 522 010c 22420040 		.word	1073758754
 523 0110 25420040 		.word	1073758757
 524 0114 04400040 		.word	1073758212
 525 0118 00420040 		.word	1073758720
 526 011c 0F010049 		.word	1224737039
 527 0120 A1460040 		.word	1073759905
 528 0124 01400040 		.word	1073758209
 529 0128 A2430040 		.word	1073759138
 530              		.cfi_endproc
 531              	.LFE5:
 532              		.size	ClockSetup, .-ClockSetup
 533              		.section	.text.SetAnalogRoutingPumps,"ax",%progbits
 534              		.align	2
 535              		.global	SetAnalogRoutingPumps
 536              		.thumb
 537              		.thumb_func
 538              		.type	SetAnalogRoutingPumps, %function
 539              	SetAnalogRoutingPumps:
 540              	.LFB7:
 379:Generated_Source\PSoC5/cyfitter_cfg.c **** }
 380:Generated_Source\PSoC5/cyfitter_cfg.c **** 
 381:Generated_Source\PSoC5/cyfitter_cfg.c **** 
 382:Generated_Source\PSoC5/cyfitter_cfg.c **** /*******************************************************************************
ARM GAS  C:\Users\User\AppData\Local\Temp\ccB0ONzK.s 			page 18


 383:Generated_Source\PSoC5/cyfitter_cfg.c **** * Function Name: SetAnalogRoutingPumps
 384:Generated_Source\PSoC5/cyfitter_cfg.c **** ********************************************************************************
 385:Generated_Source\PSoC5/cyfitter_cfg.c **** *
 386:Generated_Source\PSoC5/cyfitter_cfg.c **** * Summary:
 387:Generated_Source\PSoC5/cyfitter_cfg.c **** * Enables or disables the analog pumps feeding analog routing switches.
 388:Generated_Source\PSoC5/cyfitter_cfg.c **** * Intended to be called at startup, based on the Vdda system configuration;
 389:Generated_Source\PSoC5/cyfitter_cfg.c **** * may be called during operation when the user informs us that the Vdda voltage
 390:Generated_Source\PSoC5/cyfitter_cfg.c **** * crossed the pump threshold.
 391:Generated_Source\PSoC5/cyfitter_cfg.c **** *
 392:Generated_Source\PSoC5/cyfitter_cfg.c **** * Parameters:
 393:Generated_Source\PSoC5/cyfitter_cfg.c **** *  enabled - 1 to enable the pumps, 0 to disable the pumps
 394:Generated_Source\PSoC5/cyfitter_cfg.c **** *
 395:Generated_Source\PSoC5/cyfitter_cfg.c **** * Return:
 396:Generated_Source\PSoC5/cyfitter_cfg.c **** *  void
 397:Generated_Source\PSoC5/cyfitter_cfg.c **** *
 398:Generated_Source\PSoC5/cyfitter_cfg.c **** *******************************************************************************/
 399:Generated_Source\PSoC5/cyfitter_cfg.c **** void SetAnalogRoutingPumps(uint8 enabled)
 400:Generated_Source\PSoC5/cyfitter_cfg.c **** {
 541              		.loc 1 400 0
 542              		.cfi_startproc
 543              		@ args = 0, pretend = 0, frame = 0
 544              		@ frame_needed = 0, uses_anonymous_args = 0
 545              		@ link register save eliminated.
 546              	.LVL37:
 401:Generated_Source\PSoC5/cyfitter_cfg.c **** 	uint8 regValue = CY_GET_XTND_REG8((void CYFAR *)CYREG_PUMP_CR0);
 547              		.loc 1 401 0
 548 0000 054B     		ldr	r3, .L32
 549 0002 1B78     		ldrb	r3, [r3]	@ zero_extendqisi2
 550 0004 DBB2     		uxtb	r3, r3
 551              	.LVL38:
 402:Generated_Source\PSoC5/cyfitter_cfg.c **** 	if (enabled != 0u)
 552              		.loc 1 402 0
 553 0006 10B1     		cbz	r0, .L30
 403:Generated_Source\PSoC5/cyfitter_cfg.c **** 	{
 404:Generated_Source\PSoC5/cyfitter_cfg.c **** 		regValue |= 0x22u;
 554              		.loc 1 404 0
 555 0008 43F02203 		orr	r3, r3, #34
 556              	.LVL39:
 557 000c 01E0     		b	.L31
 558              	.L30:
 405:Generated_Source\PSoC5/cyfitter_cfg.c **** 	}
 406:Generated_Source\PSoC5/cyfitter_cfg.c **** 	else
 407:Generated_Source\PSoC5/cyfitter_cfg.c **** 	{
 408:Generated_Source\PSoC5/cyfitter_cfg.c **** 		regValue &= (uint8)~0x22u;
 559              		.loc 1 408 0
 560 000e 03F0DD03 		and	r3, r3, #221
 561              	.LVL40:
 562              	.L31:
 409:Generated_Source\PSoC5/cyfitter_cfg.c **** 	}
 410:Generated_Source\PSoC5/cyfitter_cfg.c **** 	CY_SET_XTND_REG8((void CYFAR *)CYREG_PUMP_CR0, regValue);
 563              		.loc 1 410 0
 564 0012 014A     		ldr	r2, .L32
 565 0014 1370     		strb	r3, [r2]
 566 0016 7047     		bx	lr
 567              	.L33:
 568              		.align	2
 569              	.L32:
ARM GAS  C:\Users\User\AppData\Local\Temp\ccB0ONzK.s 			page 19


 570 0018 76580040 		.word	1073764470
 571              		.cfi_endproc
 572              	.LFE7:
 573              		.size	SetAnalogRoutingPumps, .-SetAnalogRoutingPumps
 574              		.section	.text.ChannelSel_Set,"ax",%progbits
 575              		.align	2
 576              		.global	ChannelSel_Set
 577              		.thumb
 578              		.thumb_func
 579              		.type	ChannelSel_Set, %function
 580              	ChannelSel_Set:
 581              	.LFB8:
 411:Generated_Source\PSoC5/cyfitter_cfg.c **** }
 412:Generated_Source\PSoC5/cyfitter_cfg.c **** 
 413:Generated_Source\PSoC5/cyfitter_cfg.c **** 
 414:Generated_Source\PSoC5/cyfitter_cfg.c **** #define CY_AMUX_UNUSED CYREG_BOOST_SR
 415:Generated_Source\PSoC5/cyfitter_cfg.c **** /* This is an implementation detail of the AMux. Code that depends on it may be
 416:Generated_Source\PSoC5/cyfitter_cfg.c ****    incompatible with other versions of PSoC Creator. */
 417:Generated_Source\PSoC5/cyfitter_cfg.c **** uint8 CYXDATA * const CYCODE ChannelSel__addrTable[5] = {
 418:Generated_Source\PSoC5/cyfitter_cfg.c **** 	(uint8 CYXDATA *)CYREG_SC2_SW0, 
 419:Generated_Source\PSoC5/cyfitter_cfg.c **** 	(uint8 CYXDATA *)CYREG_DAC2_SW4, 
 420:Generated_Source\PSoC5/cyfitter_cfg.c **** 	(uint8 CYXDATA *)CYREG_SC2_SW0, 
 421:Generated_Source\PSoC5/cyfitter_cfg.c **** 	(uint8 CYXDATA *)CYREG_DSM0_SW6, 
 422:Generated_Source\PSoC5/cyfitter_cfg.c **** 	(uint8 CYXDATA *)CYREG_PRT0_AG, 
 423:Generated_Source\PSoC5/cyfitter_cfg.c **** };
 424:Generated_Source\PSoC5/cyfitter_cfg.c **** 
 425:Generated_Source\PSoC5/cyfitter_cfg.c **** /* This is an implementation detail of the AMux. Code that depends on it may be
 426:Generated_Source\PSoC5/cyfitter_cfg.c ****    incompatible with other versions of PSoC Creator. */
 427:Generated_Source\PSoC5/cyfitter_cfg.c **** const uint8 CYCODE ChannelSel__maskTable[5] = {
 428:Generated_Source\PSoC5/cyfitter_cfg.c **** 	0x01u, 
 429:Generated_Source\PSoC5/cyfitter_cfg.c **** 	0x10u, 
 430:Generated_Source\PSoC5/cyfitter_cfg.c **** 	0x02u, 
 431:Generated_Source\PSoC5/cyfitter_cfg.c **** 	0x08u, 
 432:Generated_Source\PSoC5/cyfitter_cfg.c **** 	0x01u, 
 433:Generated_Source\PSoC5/cyfitter_cfg.c **** };
 434:Generated_Source\PSoC5/cyfitter_cfg.c **** 
 435:Generated_Source\PSoC5/cyfitter_cfg.c **** /*******************************************************************************
 436:Generated_Source\PSoC5/cyfitter_cfg.c **** * Function Name: ChannelSel_Set
 437:Generated_Source\PSoC5/cyfitter_cfg.c **** ********************************************************************************
 438:Generated_Source\PSoC5/cyfitter_cfg.c **** * Summary:
 439:Generated_Source\PSoC5/cyfitter_cfg.c **** *  This function is used to set a particular channel as active on the AMux.
 440:Generated_Source\PSoC5/cyfitter_cfg.c **** *
 441:Generated_Source\PSoC5/cyfitter_cfg.c **** * Parameters:  
 442:Generated_Source\PSoC5/cyfitter_cfg.c **** *   channel - The mux channel input to set as active
 443:Generated_Source\PSoC5/cyfitter_cfg.c **** *
 444:Generated_Source\PSoC5/cyfitter_cfg.c **** * Return:
 445:Generated_Source\PSoC5/cyfitter_cfg.c **** *   void
 446:Generated_Source\PSoC5/cyfitter_cfg.c **** *
 447:Generated_Source\PSoC5/cyfitter_cfg.c **** *******************************************************************************/
 448:Generated_Source\PSoC5/cyfitter_cfg.c **** void ChannelSel_Set(uint8 channel)
 449:Generated_Source\PSoC5/cyfitter_cfg.c **** {
 582              		.loc 1 449 0
 583              		.cfi_startproc
 584              		@ args = 0, pretend = 0, frame = 0
 585              		@ frame_needed = 0, uses_anonymous_args = 0
 586              		@ link register save eliminated.
 587              	.LVL41:
ARM GAS  C:\Users\User\AppData\Local\Temp\ccB0ONzK.s 			page 20


 450:Generated_Source\PSoC5/cyfitter_cfg.c **** 	if (channel < 5)
 588              		.loc 1 450 0
 589 0000 0428     		cmp	r0, #4
 590 0002 07D8     		bhi	.L34
 451:Generated_Source\PSoC5/cyfitter_cfg.c **** 	{
 452:Generated_Source\PSoC5/cyfitter_cfg.c **** 		*ChannelSel__addrTable[channel] |= ChannelSel__maskTable[channel];
 591              		.loc 1 452 0
 592 0004 044B     		ldr	r3, .L36
 593 0006 53F82020 		ldr	r2, [r3, r0, lsl #2]
 594 000a 1844     		add	r0, r0, r3
 595              	.LVL42:
 596 000c 017D     		ldrb	r1, [r0, #20]	@ zero_extendqisi2
 597 000e 1378     		ldrb	r3, [r2]	@ zero_extendqisi2
 598 0010 0B43     		orrs	r3, r3, r1
 599 0012 1370     		strb	r3, [r2]
 600              	.L34:
 601 0014 7047     		bx	lr
 602              	.L37:
 603 0016 00BF     		.align	2
 604              	.L36:
 605 0018 00000000 		.word	.LANCHOR0
 606              		.cfi_endproc
 607              	.LFE8:
 608              		.size	ChannelSel_Set, .-ChannelSel_Set
 609              		.section	.text.ChannelSel_Unset,"ax",%progbits
 610              		.align	2
 611              		.global	ChannelSel_Unset
 612              		.thumb
 613              		.thumb_func
 614              		.type	ChannelSel_Unset, %function
 615              	ChannelSel_Unset:
 616              	.LFB9:
 453:Generated_Source\PSoC5/cyfitter_cfg.c **** 	}
 454:Generated_Source\PSoC5/cyfitter_cfg.c **** }
 455:Generated_Source\PSoC5/cyfitter_cfg.c **** 
 456:Generated_Source\PSoC5/cyfitter_cfg.c **** /*******************************************************************************
 457:Generated_Source\PSoC5/cyfitter_cfg.c **** * Function Name: ChannelSel_Unset
 458:Generated_Source\PSoC5/cyfitter_cfg.c **** ********************************************************************************
 459:Generated_Source\PSoC5/cyfitter_cfg.c **** * Summary:
 460:Generated_Source\PSoC5/cyfitter_cfg.c **** *  This function is used to clear a particular channel from being active on the
 461:Generated_Source\PSoC5/cyfitter_cfg.c **** *  AMux.
 462:Generated_Source\PSoC5/cyfitter_cfg.c **** *
 463:Generated_Source\PSoC5/cyfitter_cfg.c **** * Parameters:  
 464:Generated_Source\PSoC5/cyfitter_cfg.c **** *   channel - The mux channel input to mark inactive
 465:Generated_Source\PSoC5/cyfitter_cfg.c **** *
 466:Generated_Source\PSoC5/cyfitter_cfg.c **** * Return:
 467:Generated_Source\PSoC5/cyfitter_cfg.c **** *   void
 468:Generated_Source\PSoC5/cyfitter_cfg.c **** *
 469:Generated_Source\PSoC5/cyfitter_cfg.c **** *******************************************************************************/
 470:Generated_Source\PSoC5/cyfitter_cfg.c **** void ChannelSel_Unset(uint8 channel)
 471:Generated_Source\PSoC5/cyfitter_cfg.c **** {
 617              		.loc 1 471 0
 618              		.cfi_startproc
 619              		@ args = 0, pretend = 0, frame = 0
 620              		@ frame_needed = 0, uses_anonymous_args = 0
 621              		@ link register save eliminated.
 622              	.LVL43:
ARM GAS  C:\Users\User\AppData\Local\Temp\ccB0ONzK.s 			page 21


 472:Generated_Source\PSoC5/cyfitter_cfg.c **** 	if (channel < 5)
 623              		.loc 1 472 0
 624 0000 0428     		cmp	r0, #4
 625 0002 08D8     		bhi	.L38
 473:Generated_Source\PSoC5/cyfitter_cfg.c **** 	{
 474:Generated_Source\PSoC5/cyfitter_cfg.c **** 		*ChannelSel__addrTable[channel] &= (uint8)~ChannelSel__maskTable[channel];
 626              		.loc 1 474 0
 627 0004 044B     		ldr	r3, .L40
 628 0006 53F82020 		ldr	r2, [r3, r0, lsl #2]
 629 000a 1844     		add	r0, r0, r3
 630              	.LVL44:
 631 000c 017D     		ldrb	r1, [r0, #20]	@ zero_extendqisi2
 632 000e 1378     		ldrb	r3, [r2]	@ zero_extendqisi2
 633 0010 23EA0103 		bic	r3, r3, r1
 634 0014 1370     		strb	r3, [r2]
 635              	.L38:
 636 0016 7047     		bx	lr
 637              	.L41:
 638              		.align	2
 639              	.L40:
 640 0018 00000000 		.word	.LANCHOR0
 641              		.cfi_endproc
 642              	.LFE9:
 643              		.size	ChannelSel_Unset, .-ChannelSel_Unset
 644              		.section	.text.cyfitter_cfg,"ax",%progbits
 645              		.align	2
 646              		.global	cyfitter_cfg
 647              		.thumb
 648              		.thumb_func
 649              		.type	cyfitter_cfg, %function
 650              	cyfitter_cfg:
 651              	.LFB10:
 475:Generated_Source\PSoC5/cyfitter_cfg.c **** 	}
 476:Generated_Source\PSoC5/cyfitter_cfg.c **** }
 477:Generated_Source\PSoC5/cyfitter_cfg.c **** 
 478:Generated_Source\PSoC5/cyfitter_cfg.c **** 
 479:Generated_Source\PSoC5/cyfitter_cfg.c **** 
 480:Generated_Source\PSoC5/cyfitter_cfg.c **** /*******************************************************************************
 481:Generated_Source\PSoC5/cyfitter_cfg.c **** * Function Name: cyfitter_cfg
 482:Generated_Source\PSoC5/cyfitter_cfg.c **** ********************************************************************************
 483:Generated_Source\PSoC5/cyfitter_cfg.c **** * Summary:
 484:Generated_Source\PSoC5/cyfitter_cfg.c **** *  This function is called by the start-up code for the selected device. It
 485:Generated_Source\PSoC5/cyfitter_cfg.c **** *  performs all of the necessary device configuration based on the design
 486:Generated_Source\PSoC5/cyfitter_cfg.c **** *  settings.  This includes settings from the Design Wide Resources (DWR) such
 487:Generated_Source\PSoC5/cyfitter_cfg.c **** *  as Clocks and Pins as well as any component configuration that is necessary.
 488:Generated_Source\PSoC5/cyfitter_cfg.c **** *
 489:Generated_Source\PSoC5/cyfitter_cfg.c **** * Parameters:
 490:Generated_Source\PSoC5/cyfitter_cfg.c **** *   void
 491:Generated_Source\PSoC5/cyfitter_cfg.c **** *
 492:Generated_Source\PSoC5/cyfitter_cfg.c **** * Return:
 493:Generated_Source\PSoC5/cyfitter_cfg.c **** *   void
 494:Generated_Source\PSoC5/cyfitter_cfg.c **** *
 495:Generated_Source\PSoC5/cyfitter_cfg.c **** *******************************************************************************/
 496:Generated_Source\PSoC5/cyfitter_cfg.c **** 
 497:Generated_Source\PSoC5/cyfitter_cfg.c **** void cyfitter_cfg(void)
 498:Generated_Source\PSoC5/cyfitter_cfg.c **** {
 652              		.loc 1 498 0
ARM GAS  C:\Users\User\AppData\Local\Temp\ccB0ONzK.s 			page 22


 653              		.cfi_startproc
 654              		@ args = 0, pretend = 0, frame = 0
 655              		@ frame_needed = 0, uses_anonymous_args = 0
 656 0000 10B5     		push	{r4, lr}
 657              		.cfi_def_cfa_offset 8
 658              		.cfi_offset 4, -8
 659              		.cfi_offset 14, -4
 499:Generated_Source\PSoC5/cyfitter_cfg.c **** #ifdef CYGlobalIntDisable
 500:Generated_Source\PSoC5/cyfitter_cfg.c **** 	/* Disable interrupts by default. Let user enable if/when they want. */
 501:Generated_Source\PSoC5/cyfitter_cfg.c **** 	CYGlobalIntDisable
 660              		.loc 1 501 0
 661              		.syntax unified
 662              	@ 501 "Generated_Source\PSoC5\cyfitter_cfg.c" 1
 663 0002 72B6     		CPSID   i
 664              	@ 0 "" 2
 502:Generated_Source\PSoC5/cyfitter_cfg.c **** #endif
 503:Generated_Source\PSoC5/cyfitter_cfg.c **** 
 504:Generated_Source\PSoC5/cyfitter_cfg.c **** 	/* Enable/Disable Debug functionality based on settings from System DWR */
 505:Generated_Source\PSoC5/cyfitter_cfg.c **** 	CY_SET_XTND_REG8((void CYFAR *)CYREG_MLOGIC_DEBUG, (CY_GET_XTND_REG8((void CYFAR *)CYREG_MLOGIC_DE
 665              		.loc 1 505 0
 666              		.thumb
 667              		.syntax unified
 668 0004 404A     		ldr	r2, .L46
 669 0006 1378     		ldrb	r3, [r2]	@ zero_extendqisi2
 670 0008 43F00403 		orr	r3, r3, #4
 671 000c 1370     		strb	r3, [r2]
 672              	.LVL45:
 673              	.LBB3:
 506:Generated_Source\PSoC5/cyfitter_cfg.c **** 
 507:Generated_Source\PSoC5/cyfitter_cfg.c **** 	{
 508:Generated_Source\PSoC5/cyfitter_cfg.c **** 
 509:Generated_Source\PSoC5/cyfitter_cfg.c **** 		CYPACKED typedef struct {
 510:Generated_Source\PSoC5/cyfitter_cfg.c **** 			void CYFAR *address;
 511:Generated_Source\PSoC5/cyfitter_cfg.c **** 			uint16 size;
 512:Generated_Source\PSoC5/cyfitter_cfg.c **** 		} CYPACKED_ATTR cfg_memset_t;
 513:Generated_Source\PSoC5/cyfitter_cfg.c **** 
 514:Generated_Source\PSoC5/cyfitter_cfg.c **** 		static const cfg_memset_t CYCODE cfg_memset_list[] = {
 515:Generated_Source\PSoC5/cyfitter_cfg.c **** 			/* address, size */
 516:Generated_Source\PSoC5/cyfitter_cfg.c **** 			{(void CYFAR *)(CYREG_TMR0_CFG0), 12u},
 517:Generated_Source\PSoC5/cyfitter_cfg.c **** 			{(void CYFAR *)(CYREG_PRT4_DR), 48u},
 518:Generated_Source\PSoC5/cyfitter_cfg.c **** 			{(void CYFAR *)(CYDEV_UCFG_B0_P0_U0_BASE), 4096u},
 519:Generated_Source\PSoC5/cyfitter_cfg.c **** 			{(void CYFAR *)(CYDEV_UCFG_B1_P2_U0_BASE), 2048u},
 520:Generated_Source\PSoC5/cyfitter_cfg.c **** 			{(void CYFAR *)(CYDEV_UCFG_DSI0_BASE), 2560u},
 521:Generated_Source\PSoC5/cyfitter_cfg.c **** 			{(void CYFAR *)(CYDEV_UCFG_DSI12_BASE), 512u},
 522:Generated_Source\PSoC5/cyfitter_cfg.c **** 			{(void CYFAR *)(CYREG_BCTL0_MDCLK_EN), 32u},
 523:Generated_Source\PSoC5/cyfitter_cfg.c **** 		};
 524:Generated_Source\PSoC5/cyfitter_cfg.c **** 
 525:Generated_Source\PSoC5/cyfitter_cfg.c **** 		uint8 CYDATA i;
 526:Generated_Source\PSoC5/cyfitter_cfg.c **** 
 527:Generated_Source\PSoC5/cyfitter_cfg.c **** 		/* Zero out critical memory blocks before beginning configuration */
 528:Generated_Source\PSoC5/cyfitter_cfg.c **** 		for (i = 0u; i < (sizeof(cfg_memset_list)/sizeof(cfg_memset_list[0])); i++)
 674              		.loc 1 528 0
 675 000e 0024     		movs	r4, #0
 676 0010 0BE0     		b	.L43
 677              	.LVL46:
 678              	.L44:
 679              	.LBB4:
ARM GAS  C:\Users\User\AppData\Local\Temp\ccB0ONzK.s 			page 23


 529:Generated_Source\PSoC5/cyfitter_cfg.c **** 		{
 530:Generated_Source\PSoC5/cyfitter_cfg.c **** 			const cfg_memset_t CYCODE * CYDATA ms = &cfg_memset_list[i];
 531:Generated_Source\PSoC5/cyfitter_cfg.c **** 			CYMEMZERO(ms->address, (size_t)(uint32)(ms->size));
 680              		.loc 1 531 0 discriminator 3
 681 0012 3E48     		ldr	r0, .L46+4
 682 0014 6300     		lsls	r3, r4, #1
 683 0016 1A19     		adds	r2, r3, r4
 684 0018 5100     		lsls	r1, r2, #1
 685 001a 0144     		add	r1, r1, r0
 686 001c 0A46     		mov	r2, r1
 687 001e 098C     		ldrh	r1, [r1, #32]
 688 0020 D069     		ldr	r0, [r2, #28]	@ unaligned
 689 0022 FFF7FEFF 		bl	CYMEMZERO
 690              	.LVL47:
 691              	.LBE4:
 528:Generated_Source\PSoC5/cyfitter_cfg.c **** 		{
 692              		.loc 1 528 0 discriminator 3
 693 0026 0134     		adds	r4, r4, #1
 694              	.LVL48:
 695 0028 E4B2     		uxtb	r4, r4
 696              	.LVL49:
 697              	.L43:
 528:Generated_Source\PSoC5/cyfitter_cfg.c **** 		{
 698              		.loc 1 528 0 is_stmt 0 discriminator 1
 699 002a 062C     		cmp	r4, #6
 700 002c F1D9     		bls	.L44
 532:Generated_Source\PSoC5/cyfitter_cfg.c **** 		}
 533:Generated_Source\PSoC5/cyfitter_cfg.c **** 
 534:Generated_Source\PSoC5/cyfitter_cfg.c **** 		cfg_write_bytes32(cy_cfg_addr_table, cy_cfg_data_table);
 701              		.loc 1 534 0 is_stmt 1
 702 002e 3849     		ldr	r1, .L46+8
 703 0030 4FF09040 		mov	r0, #1207959552
 704 0034 FFF7FEFF 		bl	cfg_write_bytes32
 705              	.LVL50:
 535:Generated_Source\PSoC5/cyfitter_cfg.c **** 
 536:Generated_Source\PSoC5/cyfitter_cfg.c **** 		/* Perform normal device configuration. Order is not critical for these items. */
 537:Generated_Source\PSoC5/cyfitter_cfg.c **** 		CY_SET_XTND_REG16((void CYFAR *)(CYREG_LUT1_CR), 0x0103u);
 706              		.loc 1 537 0
 707 0038 40F20312 		movw	r2, #259
 708 003c 354B     		ldr	r3, .L46+12
 709 003e 1A80     		strh	r2, [r3]	@ movhi
 538:Generated_Source\PSoC5/cyfitter_cfg.c **** 		CYMEMZERO((void CYFAR *)(CYREG_PHUB_CFGMEM0_CFG0), 4u);
 710              		.loc 1 538 0
 711 0040 0421     		movs	r1, #4
 712 0042 3548     		ldr	r0, .L46+16
 713 0044 FFF7FEFF 		bl	CYMEMZERO
 714              	.LVL51:
 539:Generated_Source\PSoC5/cyfitter_cfg.c **** 		CYCONFIGCPY((void CYFAR *)(CYREG_PHUB_CFGMEM1_CFG0), (const void CYFAR *)(BS_PHUB_CFGMEM1_VAL), 4
 715              		.loc 1 539 0
 716 0048 0422     		movs	r2, #4
 717 004a 3449     		ldr	r1, .L46+20
 718 004c 3448     		ldr	r0, .L46+24
 719 004e FFF7FEFF 		bl	CYCONFIGCPY
 720              	.LVL52:
 540:Generated_Source\PSoC5/cyfitter_cfg.c **** 		CYCONFIGCPY((void CYFAR *)(CYREG_PHUB_CFGMEM2_CFG0), (const void CYFAR *)(BS_PHUB_CFGMEM2_VAL), 4
 721              		.loc 1 540 0
 722 0052 0422     		movs	r2, #4
ARM GAS  C:\Users\User\AppData\Local\Temp\ccB0ONzK.s 			page 24


 723 0054 3349     		ldr	r1, .L46+28
 724 0056 3448     		ldr	r0, .L46+32
 725 0058 FFF7FEFF 		bl	CYCONFIGCPY
 726              	.LVL53:
 541:Generated_Source\PSoC5/cyfitter_cfg.c **** 		CYCONFIGCPY((void CYFAR *)(CYREG_PHUB_CFGMEM3_CFG0), (const void CYFAR *)(BS_PHUB_CFGMEM3_VAL), 4
 727              		.loc 1 541 0
 728 005c 0422     		movs	r2, #4
 729 005e 3349     		ldr	r1, .L46+36
 730 0060 3348     		ldr	r0, .L46+40
 731 0062 FFF7FEFF 		bl	CYCONFIGCPY
 732              	.LVL54:
 542:Generated_Source\PSoC5/cyfitter_cfg.c **** 		CYCONFIGCPY((void CYFAR *)(CYREG_PHUB_CFGMEM4_CFG0), (const void CYFAR *)(BS_PHUB_CFGMEM4_VAL), 4
 733              		.loc 1 542 0
 734 0066 0422     		movs	r2, #4
 735 0068 3249     		ldr	r1, .L46+44
 736 006a 3348     		ldr	r0, .L46+48
 737 006c FFF7FEFF 		bl	CYCONFIGCPY
 738              	.LVL55:
 543:Generated_Source\PSoC5/cyfitter_cfg.c **** 		CYCONFIGCPY((void CYFAR *)(CYREG_PHUB_CFGMEM5_CFG0), (const void CYFAR *)(BS_PHUB_CFGMEM5_VAL), 4
 739              		.loc 1 543 0
 740 0070 0422     		movs	r2, #4
 741 0072 3249     		ldr	r1, .L46+52
 742 0074 3248     		ldr	r0, .L46+56
 743 0076 FFF7FEFF 		bl	CYCONFIGCPY
 744              	.LVL56:
 544:Generated_Source\PSoC5/cyfitter_cfg.c **** 
 545:Generated_Source\PSoC5/cyfitter_cfg.c **** 		/* Enable digital routing */
 546:Generated_Source\PSoC5/cyfitter_cfg.c **** 		CY_SET_XTND_REG8((void CYFAR *)CYREG_BCTL0_BANK_CTL, CY_GET_XTND_REG8((void CYFAR *)CYREG_BCTL0_B
 745              		.loc 1 546 0
 746 007a 324A     		ldr	r2, .L46+60
 747 007c 1378     		ldrb	r3, [r2]	@ zero_extendqisi2
 748 007e 43F00203 		orr	r3, r3, #2
 749 0082 1370     		strb	r3, [r2]
 547:Generated_Source\PSoC5/cyfitter_cfg.c **** 		CY_SET_XTND_REG8((void CYFAR *)CYREG_BCTL1_BANK_CTL, CY_GET_XTND_REG8((void CYFAR *)CYREG_BCTL1_B
 750              		.loc 1 547 0
 751 0084 1032     		adds	r2, r2, #16
 752 0086 1378     		ldrb	r3, [r2]	@ zero_extendqisi2
 753 0088 43F00203 		orr	r3, r3, #2
 754 008c 1370     		strb	r3, [r2]
 548:Generated_Source\PSoC5/cyfitter_cfg.c **** 
 549:Generated_Source\PSoC5/cyfitter_cfg.c **** 		/* Enable UDB array */
 550:Generated_Source\PSoC5/cyfitter_cfg.c **** 		CY_SET_XTND_REG8((void CYFAR *)CYREG_PM_ACT_CFG0, CY_GET_XTND_REG8((void CYFAR *)CYREG_PM_ACT_CFG
 755              		.loc 1 550 0
 756 008e 2E4C     		ldr	r4, .L46+64
 757              	.LVL57:
 758 0090 2378     		ldrb	r3, [r4]	@ zero_extendqisi2
 759 0092 43F04003 		orr	r3, r3, #64
 760 0096 2370     		strb	r3, [r4]
 551:Generated_Source\PSoC5/cyfitter_cfg.c **** 		CY_SET_XTND_REG8((void CYFAR *)CYREG_PM_AVAIL_CR2, CY_GET_XTND_REG8((void CYFAR *)CYREG_PM_AVAIL_
 761              		.loc 1 551 0
 762 0098 A2F58632 		sub	r2, r2, #68608
 763 009c 513A     		subs	r2, r2, #81
 764 009e 1378     		ldrb	r3, [r2]	@ zero_extendqisi2
 765 00a0 43F01003 		orr	r3, r3, #16
 766 00a4 1370     		strb	r3, [r2]
 767              	.LBE3:
 552:Generated_Source\PSoC5/cyfitter_cfg.c **** 	}
ARM GAS  C:\Users\User\AppData\Local\Temp\ccB0ONzK.s 			page 25


 553:Generated_Source\PSoC5/cyfitter_cfg.c **** 
 554:Generated_Source\PSoC5/cyfitter_cfg.c **** 
 555:Generated_Source\PSoC5/cyfitter_cfg.c **** 	/* Perform second pass device configuration. These items must be configured in specific order afte
 556:Generated_Source\PSoC5/cyfitter_cfg.c **** 	CYCONFIGCPY((void CYFAR *)(CYREG_PRT0_DM0), (const void CYFAR *)(BS_IOPINS0_0_VAL), 8u);
 768              		.loc 1 556 0
 769 00a6 0822     		movs	r2, #8
 770 00a8 2849     		ldr	r1, .L46+68
 771 00aa 2948     		ldr	r0, .L46+72
 772 00ac FFF7FEFF 		bl	CYCONFIGCPY
 773              	.LVL58:
 557:Generated_Source\PSoC5/cyfitter_cfg.c **** 	CYCONFIGCPY((void CYFAR *)(CYREG_PRT12_DR), (const void CYFAR *)(BS_IOPINS0_7_VAL), 10u);
 774              		.loc 1 557 0
 775 00b0 0A22     		movs	r2, #10
 776 00b2 2849     		ldr	r1, .L46+76
 777 00b4 2848     		ldr	r0, .L46+80
 778 00b6 FFF7FEFF 		bl	CYCONFIGCPY
 779              	.LVL59:
 558:Generated_Source\PSoC5/cyfitter_cfg.c **** 	CYCONFIGCPY((void CYFAR *)(CYREG_PRT15_DM0), (const void CYFAR *)(BS_IOPINS0_8_VAL), 8u);
 780              		.loc 1 558 0
 781 00ba 0822     		movs	r2, #8
 782 00bc 2749     		ldr	r1, .L46+84
 783 00be 2848     		ldr	r0, .L46+88
 784 00c0 FFF7FEFF 		bl	CYCONFIGCPY
 785              	.LVL60:
 559:Generated_Source\PSoC5/cyfitter_cfg.c **** 	CYCONFIGCPY((void CYFAR *)(CYREG_PRT1_DM0), (const void CYFAR *)(BS_IOPINS0_1_VAL), 8u);
 786              		.loc 1 559 0
 787 00c4 0822     		movs	r2, #8
 788 00c6 2749     		ldr	r1, .L46+92
 789 00c8 2748     		ldr	r0, .L46+96
 790 00ca FFF7FEFF 		bl	CYCONFIGCPY
 791              	.LVL61:
 560:Generated_Source\PSoC5/cyfitter_cfg.c **** 	CYCONFIGCPY((void CYFAR *)(CYREG_PRT2_DR), (const void CYFAR *)(BS_IOPINS0_2_VAL), 10u);
 792              		.loc 1 560 0
 793 00ce 0A22     		movs	r2, #10
 794 00d0 2649     		ldr	r1, .L46+100
 795 00d2 2748     		ldr	r0, .L46+104
 796 00d4 FFF7FEFF 		bl	CYCONFIGCPY
 797              	.LVL62:
 561:Generated_Source\PSoC5/cyfitter_cfg.c **** 	CYCONFIGCPY((void CYFAR *)(CYREG_PRT3_DM0), (const void CYFAR *)(BS_IOPINS0_3_VAL), 8u);
 798              		.loc 1 561 0
 799 00d8 0822     		movs	r2, #8
 800 00da 2649     		ldr	r1, .L46+108
 801 00dc 2648     		ldr	r0, .L46+112
 802 00de FFF7FEFF 		bl	CYCONFIGCPY
 803              	.LVL63:
 562:Generated_Source\PSoC5/cyfitter_cfg.c **** 	/* Switch Boost to the precision bandgap reference from its internal reference */
 563:Generated_Source\PSoC5/cyfitter_cfg.c **** 	CY_SET_REG8((void CYXDATA *)CYREG_BOOST_CR2, (CY_GET_REG8((void CYXDATA *)CYREG_BOOST_CR2) | 0x08u
 804              		.loc 1 563 0
 805 00e2 264A     		ldr	r2, .L46+116
 806 00e4 1378     		ldrb	r3, [r2]	@ zero_extendqisi2
 807 00e6 43F00803 		orr	r3, r3, #8
 808 00ea 1370     		strb	r3, [r2]
 564:Generated_Source\PSoC5/cyfitter_cfg.c **** 
 565:Generated_Source\PSoC5/cyfitter_cfg.c **** 	/* Set Flash Cycles based on max possible frequency in case a glitch occurs during ClockSetup(). *
 566:Generated_Source\PSoC5/cyfitter_cfg.c **** 	CY_SET_XTND_REG8((void CYFAR *)(CYREG_CACHE_CC_CTL), (((CYDEV_INSTRUCT_CACHE_ENABLED) != 0) ? 0x61
 809              		.loc 1 566 0
 810 00ec 6122     		movs	r2, #97
ARM GAS  C:\Users\User\AppData\Local\Temp\ccB0ONzK.s 			page 26


 811 00ee 244B     		ldr	r3, .L46+120
 812 00f0 1A70     		strb	r2, [r3]
 567:Generated_Source\PSoC5/cyfitter_cfg.c **** 	/* Setup clocks based on selections from Clock DWR */
 568:Generated_Source\PSoC5/cyfitter_cfg.c **** 	ClockSetup();
 813              		.loc 1 568 0
 814 00f2 FFF7FEFF 		bl	ClockSetup
 815              	.LVL64:
 569:Generated_Source\PSoC5/cyfitter_cfg.c **** 
 570:Generated_Source\PSoC5/cyfitter_cfg.c **** 	/* Perform basic analog initialization to defaults */
 571:Generated_Source\PSoC5/cyfitter_cfg.c **** 	AnalogSetDefault();
 816              		.loc 1 571 0
 817 00f6 FFF7FEFF 		bl	AnalogSetDefault
 818              	.LVL65:
 572:Generated_Source\PSoC5/cyfitter_cfg.c **** 
 573:Generated_Source\PSoC5/cyfitter_cfg.c **** 	/* Configure alternate active mode */
 574:Generated_Source\PSoC5/cyfitter_cfg.c **** 	CYCONFIGCPY((void CYFAR *)CYDEV_PM_STBY_BASE, (const void CYFAR *)CYDEV_PM_ACT_BASE, 14u);
 819              		.loc 1 574 0
 820 00fa 0E22     		movs	r2, #14
 821 00fc 2146     		mov	r1, r4
 822 00fe 2148     		ldr	r0, .L46+124
 823 0100 FFF7FEFF 		bl	CYCONFIGCPY
 824              	.LVL66:
 825 0104 10BD     		pop	{r4, pc}
 826              	.L47:
 827 0106 00BF     		.align	2
 828              	.L46:
 829 0108 E8460040 		.word	1073759976
 830 010c 00000000 		.word	.LANCHOR0
 831 0110 90000048 		.word	1207959696
 832 0114 4A580040 		.word	1073764426
 833 0118 00760040 		.word	1073772032
 834 011c 70070048 		.word	1207961456
 835 0120 08760040 		.word	1073772040
 836 0124 74070048 		.word	1207961460
 837 0128 10760040 		.word	1073772048
 838 012c 78070048 		.word	1207961464
 839 0130 18760040 		.word	1073772056
 840 0134 7C070048 		.word	1207961468
 841 0138 20760040 		.word	1073772064
 842 013c 80070048 		.word	1207961472
 843 0140 28760040 		.word	1073772072
 844 0144 03500140 		.word	1073827843
 845 0148 A0430040 		.word	1073759136
 846 014c 34070048 		.word	1207961396
 847 0150 02510040 		.word	1073762562
 848 0154 3C070048 		.word	1207961404
 849 0158 C0510040 		.word	1073762752
 850 015c 48070048 		.word	1207961416
 851 0160 F2510040 		.word	1073762802
 852 0164 50070048 		.word	1207961424
 853 0168 12510040 		.word	1073762578
 854 016c 58070048 		.word	1207961432
 855 0170 20510040 		.word	1073762592
 856 0174 64070048 		.word	1207961444
 857 0178 32510040 		.word	1073762610
 858 017c 22430040 		.word	1073759010
 859 0180 00480040 		.word	1073760256
ARM GAS  C:\Users\User\AppData\Local\Temp\ccB0ONzK.s 			page 27


 860 0184 B0430040 		.word	1073759152
 861              		.cfi_endproc
 862              	.LFE10:
 863              		.size	cyfitter_cfg, .-cyfitter_cfg
 864              		.global	ChannelSel__maskTable
 865              		.global	ChannelSel__addrTable
 866              		.section	.rodata
 867              		.align	2
 868              		.set	.LANCHOR0,. + 0
 869              		.type	ChannelSel__addrTable, %object
 870              		.size	ChannelSel__addrTable, 20
 871              	ChannelSel__addrTable:
 872 0000 205A0040 		.word	1073764896
 873 0004 945A0040 		.word	1073765012
 874 0008 205A0040 		.word	1073764896
 875 000c 065B0040 		.word	1073765126
 876 0010 0D510040 		.word	1073762573
 877              		.type	ChannelSel__maskTable, %object
 878              		.size	ChannelSel__maskTable, 5
 879              	ChannelSel__maskTable:
 880 0014 01       		.byte	1
 881 0015 10       		.byte	16
 882 0016 02       		.byte	2
 883 0017 08       		.byte	8
 884 0018 01       		.byte	1
 885 0019 000000   		.space	3
 886              		.type	cfg_memset_list.5022, %object
 887              		.size	cfg_memset_list.5022, 42
 888              	cfg_memset_list.5022:
 889 001c 004F0040 		.word	1073762048
 890 0020 0C00     		.short	12
 891 0022 40510040 		.4byte	1073762624
 892 0026 3000     		.short	48
 893 0028 00000140 		.word	1073807360
 894 002c 0010     		.short	4096
 895 002e 00140140 		.4byte	1073812480
 896 0032 0008     		.short	2048
 897 0034 00400140 		.word	1073823744
 898 0038 000A     		.short	2560
 899 003a 004C0140 		.4byte	1073826816
 900 003e 0002     		.short	512
 901 0040 00500140 		.word	1073827840
 902 0044 2000     		.short	32
 903              		.text
 904              	.Letext0:
 905              		.file 2 "d:\\program files (x86)\\cypress\\psoc creator\\4.1\\psoc creator\\import\\gnu\\arm\\5.4.
 906              		.file 3 "Generated_Source\\PSoC5\\cytypes.h"
 907              		.file 4 "Generated_Source\\PSoC5\\CyLib.h"