ARM GAS  C:\Users\User\AppData\Local\Temp\ccnpu280.s 			page 1


   1              		.syntax unified
   2              		.cpu cortex-m3
   3              		.fpu softvfp
   4              		.eabi_attribute 20, 1
   5              		.eabi_attribute 21, 1
   6              		.eabi_attribute 23, 3
   7              		.eabi_attribute 24, 1
   8              		.eabi_attribute 25, 1
   9              		.eabi_attribute 26, 1
  10              		.eabi_attribute 30, 1
  11              		.eabi_attribute 34, 1
  12              		.eabi_attribute 18, 4
  13              		.thumb
  14              		.syntax unified
  15              		.file	"FLASH.c"
  16              		.text
  17              	.Ltext0:
  18              		.cfi_sections	.debug_frame
  19              		.section	.text.FLASH_Start,"ax",%progbits
  20              		.align	2
  21              		.global	FLASH_Start
  22              		.thumb
  23              		.thumb_func
  24              		.type	FLASH_Start, %function
  25              	FLASH_Start:
  26              	.LFB0:
  27              		.file 1 "Generated_Source\\PSoC5\\FLASH.c"
   1:Generated_Source\PSoC5/FLASH.c **** /*******************************************************************************
   2:Generated_Source\PSoC5/FLASH.c **** * File Name: FLASH.c
   3:Generated_Source\PSoC5/FLASH.c **** * Version 1.20
   4:Generated_Source\PSoC5/FLASH.c **** *
   5:Generated_Source\PSoC5/FLASH.c **** * Description:
   6:Generated_Source\PSoC5/FLASH.c **** *  This file provides the source code to API for the Emulated EEPROM Component.
   7:Generated_Source\PSoC5/FLASH.c **** *
   8:Generated_Source\PSoC5/FLASH.c **** ********************************************************************************
   9:Generated_Source\PSoC5/FLASH.c **** * Copyright 2013-2016, Cypress Semiconductor Corporation.  All rights reserved.
  10:Generated_Source\PSoC5/FLASH.c **** * You may use this file only in accordance with the license, terms, conditions,
  11:Generated_Source\PSoC5/FLASH.c **** * disclaimers, and limitations in the end user license agreement accompanying
  12:Generated_Source\PSoC5/FLASH.c **** * the software package with which this file was provided.
  13:Generated_Source\PSoC5/FLASH.c **** *******************************************************************************/
  14:Generated_Source\PSoC5/FLASH.c **** 
  15:Generated_Source\PSoC5/FLASH.c **** #include "FLASH.h"
  16:Generated_Source\PSoC5/FLASH.c **** 
  17:Generated_Source\PSoC5/FLASH.c **** 
  18:Generated_Source\PSoC5/FLASH.c **** /*******************************************************************************
  19:Generated_Source\PSoC5/FLASH.c **** * Function Name: FLASH_Start
  20:Generated_Source\PSoC5/FLASH.c **** ********************************************************************************
  21:Generated_Source\PSoC5/FLASH.c **** *
  22:Generated_Source\PSoC5/FLASH.c **** * Summary:
  23:Generated_Source\PSoC5/FLASH.c **** *  Empty function. Included for consistency with other
  24:Generated_Source\PSoC5/FLASH.c **** *  components.
  25:Generated_Source\PSoC5/FLASH.c **** *
  26:Generated_Source\PSoC5/FLASH.c **** * Parameters:
  27:Generated_Source\PSoC5/FLASH.c **** *  None
  28:Generated_Source\PSoC5/FLASH.c **** *
  29:Generated_Source\PSoC5/FLASH.c **** * Return:
  30:Generated_Source\PSoC5/FLASH.c **** *  None
ARM GAS  C:\Users\User\AppData\Local\Temp\ccnpu280.s 			page 2


  31:Generated_Source\PSoC5/FLASH.c **** *
  32:Generated_Source\PSoC5/FLASH.c **** *******************************************************************************/
  33:Generated_Source\PSoC5/FLASH.c **** void FLASH_Start(void) 
  34:Generated_Source\PSoC5/FLASH.c **** {
  28              		.loc 1 34 0
  29              		.cfi_startproc
  30              		@ args = 0, pretend = 0, frame = 0
  31              		@ frame_needed = 0, uses_anonymous_args = 0
  32              		@ link register save eliminated.
  33 0000 7047     		bx	lr
  34              		.cfi_endproc
  35              	.LFE0:
  36              		.size	FLASH_Start, .-FLASH_Start
  37 0002 00BF     		.section	.text.FLASH_Stop,"ax",%progbits
  38              		.align	2
  39              		.global	FLASH_Stop
  40              		.thumb
  41              		.thumb_func
  42              		.type	FLASH_Stop, %function
  43              	FLASH_Stop:
  44              	.LFB1:
  35:Generated_Source\PSoC5/FLASH.c **** 
  36:Generated_Source\PSoC5/FLASH.c **** }
  37:Generated_Source\PSoC5/FLASH.c **** 
  38:Generated_Source\PSoC5/FLASH.c **** 
  39:Generated_Source\PSoC5/FLASH.c **** /*******************************************************************************
  40:Generated_Source\PSoC5/FLASH.c **** * Function Name: FLASH_Stop
  41:Generated_Source\PSoC5/FLASH.c **** ********************************************************************************
  42:Generated_Source\PSoC5/FLASH.c **** *
  43:Generated_Source\PSoC5/FLASH.c **** * Summary:
  44:Generated_Source\PSoC5/FLASH.c **** *  Empty function. Included for consistency with other
  45:Generated_Source\PSoC5/FLASH.c **** *  components.
  46:Generated_Source\PSoC5/FLASH.c **** *
  47:Generated_Source\PSoC5/FLASH.c **** * Parameters:
  48:Generated_Source\PSoC5/FLASH.c **** *  None
  49:Generated_Source\PSoC5/FLASH.c **** *
  50:Generated_Source\PSoC5/FLASH.c **** * Return:
  51:Generated_Source\PSoC5/FLASH.c **** *  None
  52:Generated_Source\PSoC5/FLASH.c **** *
  53:Generated_Source\PSoC5/FLASH.c **** *******************************************************************************/
  54:Generated_Source\PSoC5/FLASH.c **** void FLASH_Stop(void) 
  55:Generated_Source\PSoC5/FLASH.c **** {
  45              		.loc 1 55 0
  46              		.cfi_startproc
  47              		@ args = 0, pretend = 0, frame = 0
  48              		@ frame_needed = 0, uses_anonymous_args = 0
  49              		@ link register save eliminated.
  50 0000 7047     		bx	lr
  51              		.cfi_endproc
  52              	.LFE1:
  53              		.size	FLASH_Stop, .-FLASH_Stop
  54 0002 00BF     		.section	.text.FLASH_Write,"ax",%progbits
  55              		.align	2
  56              		.global	FLASH_Write
  57              		.thumb
  58              		.thumb_func
  59              		.type	FLASH_Write, %function
ARM GAS  C:\Users\User\AppData\Local\Temp\ccnpu280.s 			page 3


  60              	FLASH_Write:
  61              	.LFB2:
  56:Generated_Source\PSoC5/FLASH.c **** 
  57:Generated_Source\PSoC5/FLASH.c **** }
  58:Generated_Source\PSoC5/FLASH.c **** 
  59:Generated_Source\PSoC5/FLASH.c **** 
  60:Generated_Source\PSoC5/FLASH.c **** /*******************************************************************************
  61:Generated_Source\PSoC5/FLASH.c **** * Function Name: FLASH_Write
  62:Generated_Source\PSoC5/FLASH.c **** ********************************************************************************
  63:Generated_Source\PSoC5/FLASH.c **** *
  64:Generated_Source\PSoC5/FLASH.c **** * Summary:
  65:Generated_Source\PSoC5/FLASH.c **** *  Writes the specified number of bytes from the source buffer in SRAM to the
  66:Generated_Source\PSoC5/FLASH.c **** *  emulated EEPROM array in flash, without modifying other data in flash.
  67:Generated_Source\PSoC5/FLASH.c **** *
  68:Generated_Source\PSoC5/FLASH.c **** * Parameters:
  69:Generated_Source\PSoC5/FLASH.c **** *  srcBuf:    Pointer to the SRAM buffer holding the data to write.
  70:Generated_Source\PSoC5/FLASH.c **** *  eepromPtr: Pointer to the array or variable in flash representing
  71:Generated_Source\PSoC5/FLASH.c **** *             the emulated EEPROM.
  72:Generated_Source\PSoC5/FLASH.c **** *  byteCount: Number of bytes to write from srcBuf to eepromPtr.
  73:Generated_Source\PSoC5/FLASH.c **** *
  74:Generated_Source\PSoC5/FLASH.c **** * Return:
  75:Generated_Source\PSoC5/FLASH.c **** *    CYRET_SUCCESS     Successful write.
  76:Generated_Source\PSoC5/FLASH.c **** *    CYRET_BAD_PARAM   eepromPtr is out of range of flash memory.
  77:Generated_Source\PSoC5/FLASH.c **** *    CYRET_UNKNOWN     Other error in writing flash.
  78:Generated_Source\PSoC5/FLASH.c **** *
  79:Generated_Source\PSoC5/FLASH.c **** *******************************************************************************/
  80:Generated_Source\PSoC5/FLASH.c **** #if (CY_PSOC3)
  81:Generated_Source\PSoC5/FLASH.c ****     cystatus FLASH_Write(const uint8 srcBuf[], const uint8 eepromPtr[], uint16 byteCount)
  82:Generated_Source\PSoC5/FLASH.c ****                                                                             
  83:Generated_Source\PSoC5/FLASH.c **** #else
  84:Generated_Source\PSoC5/FLASH.c ****     cystatus FLASH_Write(const uint8 srcBuf[], const uint8 eepromPtr[], uint32 byteCount)
  85:Generated_Source\PSoC5/FLASH.c **** #endif /* (!CY_PSOC3) */
  86:Generated_Source\PSoC5/FLASH.c **** {
  62              		.loc 1 86 0
  63              		.cfi_startproc
  64              		@ args = 0, pretend = 0, frame = 544
  65              		@ frame_needed = 0, uses_anonymous_args = 0
  66              	.LVL0:
  67              		.loc 1 86 0
  68 0000 2DE9F04F 		push	{r4, r5, r6, r7, r8, r9, r10, fp, lr}
  69              		.cfi_def_cfa_offset 36
  70              		.cfi_offset 4, -36
  71              		.cfi_offset 5, -32
  72              		.cfi_offset 6, -28
  73              		.cfi_offset 7, -24
  74              		.cfi_offset 8, -20
  75              		.cfi_offset 9, -16
  76              		.cfi_offset 10, -12
  77              		.cfi_offset 11, -8
  78              		.cfi_offset 14, -4
  79 0004 ADF5097D 		sub	sp, sp, #548
  80              		.cfi_def_cfa_offset 584
  81              	.LVL1:
  87:Generated_Source\PSoC5/FLASH.c ****     uint8 writeBuffer[CY_FLASH_SIZEOF_ROW];
  88:Generated_Source\PSoC5/FLASH.c ****     uint32 arrayId;
  89:Generated_Source\PSoC5/FLASH.c ****     uint32 rowId;
  90:Generated_Source\PSoC5/FLASH.c ****     uint32 dstIndex;
ARM GAS  C:\Users\User\AppData\Local\Temp\ccnpu280.s 			page 4


  91:Generated_Source\PSoC5/FLASH.c ****     uint32 srcIndex;
  92:Generated_Source\PSoC5/FLASH.c ****     cystatus rc;
  93:Generated_Source\PSoC5/FLASH.c ****     uint32 eeOffset;
  94:Generated_Source\PSoC5/FLASH.c ****     uint32 byteOffset;
  95:Generated_Source\PSoC5/FLASH.c ****     
  96:Generated_Source\PSoC5/FLASH.c ****     #if (!CY_PSOC4)
  97:Generated_Source\PSoC5/FLASH.c ****         #if (CYDEV_ECC_ENABLE == 0)
  98:Generated_Source\PSoC5/FLASH.c ****             uint8 rowBuffer[CY_FLASH_SIZEOF_ROW + CY_FLASH_SIZEOF_ECC_ROW];
  99:Generated_Source\PSoC5/FLASH.c ****         #endif /* CYDEV_ECC_ENABLE == 0) */
 100:Generated_Source\PSoC5/FLASH.c ****     #endif /* (!CY_PSOC4) */
 101:Generated_Source\PSoC5/FLASH.c **** 
 102:Generated_Source\PSoC5/FLASH.c ****     eeOffset = (uint32)eepromPtr;
 103:Generated_Source\PSoC5/FLASH.c ****     #if (CY_PSOC3)
 104:Generated_Source\PSoC5/FLASH.c ****         eeOffset &= FLASH_CODE_ADDR_MASK;
 105:Generated_Source\PSoC5/FLASH.c ****     #endif /* (CY_PSOC3) */
 106:Generated_Source\PSoC5/FLASH.c **** 
 107:Generated_Source\PSoC5/FLASH.c ****     /* Make sure, that eepromPtr[] points to ROM */
 108:Generated_Source\PSoC5/FLASH.c ****     #if (CY_PSOC3)
 109:Generated_Source\PSoC5/FLASH.c ****         if (((uint32)eepromPtr >= FLASH_CODE_ADDR_OFFSET) &&
 110:Generated_Source\PSoC5/FLASH.c ****             (((uint32)eepromPtr + byteCount) <= FLASH_CODE_ADDR_END))
 111:Generated_Source\PSoC5/FLASH.c ****     #else
 112:Generated_Source\PSoC5/FLASH.c ****         if (((uint32)eepromPtr + byteCount) <= FLASH_FLASH_END_ADDR)
  82              		.loc 1 112 0
  83 0008 8B18     		adds	r3, r1, r2
  84 000a B3F5802F 		cmp	r3, #262144
  85 000e 3ED8     		bhi	.L13
  86 0010 0E46     		mov	r6, r1
  87 0012 1746     		mov	r7, r2
  88 0014 8046     		mov	r8, r0
 113:Generated_Source\PSoC5/FLASH.c ****     #endif /* (CY_PSOC3) */
 114:Generated_Source\PSoC5/FLASH.c ****     {
 115:Generated_Source\PSoC5/FLASH.c ****         #if (!CY_PSOC4)
 116:Generated_Source\PSoC5/FLASH.c ****             (void)CySetTemp();
  89              		.loc 1 116 0
  90 0016 FFF7FEFF 		bl	CySetTemp
  91              	.LVL2:
 117:Generated_Source\PSoC5/FLASH.c **** 
 118:Generated_Source\PSoC5/FLASH.c ****             #if(CYDEV_ECC_ENABLE == 0)
 119:Generated_Source\PSoC5/FLASH.c ****                 (void)CySetFlashEEBuffer(rowBuffer);
  92              		.loc 1 119 0
  93 001a 6846     		mov	r0, sp
  94 001c FFF7FEFF 		bl	CySetFlashEEBuffer
  95              	.LVL3:
 120:Generated_Source\PSoC5/FLASH.c ****             #endif
 121:Generated_Source\PSoC5/FLASH.c ****         #endif /* (!CY_PSOC4) */
 122:Generated_Source\PSoC5/FLASH.c **** 
 123:Generated_Source\PSoC5/FLASH.c ****         arrayId = eeOffset / CY_FLASH_SIZEOF_ARRAY;
  96              		.loc 1 123 0
  97 0020 4FEA164A 		lsr	r10, r6, #16
  98              	.LVL4:
 124:Generated_Source\PSoC5/FLASH.c ****         rowId = (eeOffset / CY_FLASH_SIZEOF_ROW) % FLASH_ROWS_IN_ARRAY;
  99              		.loc 1 124 0
 100 0024 C6F30729 		ubfx	r9, r6, #8, #8
 101              	.LVL5:
 125:Generated_Source\PSoC5/FLASH.c ****         byteOffset = (CY_FLASH_SIZEOF_ARRAY * arrayId) + (CY_FLASH_SIZEOF_ROW * rowId);
 102              		.loc 1 125 0
 103 0028 09EB0A24 		add	r4, r9, r10, lsl #8
ARM GAS  C:\Users\User\AppData\Local\Temp\ccnpu280.s 			page 5


 104 002c 2402     		lsls	r4, r4, #8
 105              	.LVL6:
 126:Generated_Source\PSoC5/FLASH.c ****         srcIndex = 0u;
 127:Generated_Source\PSoC5/FLASH.c **** 
 128:Generated_Source\PSoC5/FLASH.c ****         rc = CYRET_SUCCESS;
 106              		.loc 1 128 0
 107 002e 4FF0000B 		mov	fp, #0
 126:Generated_Source\PSoC5/FLASH.c ****         srcIndex = 0u;
 108              		.loc 1 126 0
 109 0032 5D46     		mov	r5, fp
 129:Generated_Source\PSoC5/FLASH.c **** 
 130:Generated_Source\PSoC5/FLASH.c ****         while ((srcIndex < byteCount) && (CYRET_SUCCESS == rc))
 110              		.loc 1 130 0
 111 0034 23E0     		b	.L5
 112              	.LVL7:
 113              	.L8:
 131:Generated_Source\PSoC5/FLASH.c ****         {
 132:Generated_Source\PSoC5/FLASH.c ****             /* Copy data to the write buffer either from the source buffer or from the flash */
 133:Generated_Source\PSoC5/FLASH.c ****             for (dstIndex = 0u; dstIndex < CY_FLASH_SIZEOF_ROW; dstIndex++)
 134:Generated_Source\PSoC5/FLASH.c ****             {
 135:Generated_Source\PSoC5/FLASH.c ****                 if ((byteOffset >= eeOffset) && (srcIndex < byteCount))
 114              		.loc 1 135 0
 115 0036 B442     		cmp	r4, r6
 116 0038 07D3     		bcc	.L6
 117              		.loc 1 135 0 is_stmt 0 discriminator 1
 118 003a BD42     		cmp	r5, r7
 119 003c 05D2     		bcs	.L6
 136:Generated_Source\PSoC5/FLASH.c ****                 {
 137:Generated_Source\PSoC5/FLASH.c ****                     writeBuffer[dstIndex] = srcBuf[srcIndex];
 120              		.loc 1 137 0 is_stmt 1
 121 003e 18F80510 		ldrb	r1, [r8, r5]	@ zero_extendqisi2
 122 0042 48AA     		add	r2, sp, #288
 123 0044 D154     		strb	r1, [r2, r3]
 138:Generated_Source\PSoC5/FLASH.c ****                     srcIndex++;
 124              		.loc 1 138 0
 125 0046 0135     		adds	r5, r5, #1
 126              	.LVL8:
 127 0048 02E0     		b	.L7
 128              	.L6:
 139:Generated_Source\PSoC5/FLASH.c ****                 }
 140:Generated_Source\PSoC5/FLASH.c ****                 else
 141:Generated_Source\PSoC5/FLASH.c ****                 {
 142:Generated_Source\PSoC5/FLASH.c ****                     writeBuffer[dstIndex] = CY_GET_XTND_REG8(CYDEV_FLASH_BASE + byteOffset);
 129              		.loc 1 142 0
 130 004a 2178     		ldrb	r1, [r4]	@ zero_extendqisi2
 131 004c 48AA     		add	r2, sp, #288
 132 004e D154     		strb	r1, [r2, r3]
 133              	.L7:
 143:Generated_Source\PSoC5/FLASH.c ****                 }
 144:Generated_Source\PSoC5/FLASH.c ****                 byteOffset++;
 134              		.loc 1 144 0 discriminator 2
 135 0050 0134     		adds	r4, r4, #1
 136              	.LVL9:
 133:Generated_Source\PSoC5/FLASH.c ****             {
 137              		.loc 1 133 0 discriminator 2
 138 0052 0133     		adds	r3, r3, #1
 139              	.LVL10:
ARM GAS  C:\Users\User\AppData\Local\Temp\ccnpu280.s 			page 6


 140 0054 00E0     		b	.L11
 141              	.LVL11:
 142              	.L14:
 143 0056 0023     		movs	r3, #0
 144              	.L11:
 145              	.LVL12:
 133:Generated_Source\PSoC5/FLASH.c ****             {
 146              		.loc 1 133 0 is_stmt 0 discriminator 1
 147 0058 FF2B     		cmp	r3, #255
 148 005a ECD9     		bls	.L8
 145:Generated_Source\PSoC5/FLASH.c ****             }
 146:Generated_Source\PSoC5/FLASH.c **** 
 147:Generated_Source\PSoC5/FLASH.c ****             /* Write flash row */
 148:Generated_Source\PSoC5/FLASH.c ****             #if (CY_PSOC4)
 149:Generated_Source\PSoC5/FLASH.c ****                 rc = CySysFlashWriteRow(rowId, writeBuffer);
 150:Generated_Source\PSoC5/FLASH.c ****             #else
 151:Generated_Source\PSoC5/FLASH.c ****                 rc = CyWriteRowData((uint8)arrayId, (uint16)rowId, writeBuffer);
 149              		.loc 1 151 0 is_stmt 1
 150 005c 48AA     		add	r2, sp, #288
 151 005e 1FFA89F1 		uxth	r1, r9
 152 0062 5FFA8AF0 		uxtb	r0, r10
 153 0066 FFF7FEFF 		bl	CyWriteRowData
 154              	.LVL13:
 155 006a 8346     		mov	fp, r0
 156              	.LVL14:
 152:Generated_Source\PSoC5/FLASH.c ****             #endif /* (CY_PSOC4) */
 153:Generated_Source\PSoC5/FLASH.c **** 
 154:Generated_Source\PSoC5/FLASH.c ****             /* Go to the next row */
 155:Generated_Source\PSoC5/FLASH.c ****             rowId++;
 157              		.loc 1 155 0
 158 006c 09F10109 		add	r9, r9, #1
 159              	.LVL15:
 156:Generated_Source\PSoC5/FLASH.c ****             #if (CY_FLASH_NUMBER_ARRAYS > 1)
 157:Generated_Source\PSoC5/FLASH.c ****                 if (rowId >= FLASH_ROWS_IN_ARRAY)
 160              		.loc 1 157 0
 161 0070 B9F1FF0F 		cmp	r9, #255
 162 0074 03D9     		bls	.L5
 158:Generated_Source\PSoC5/FLASH.c ****                 {
 159:Generated_Source\PSoC5/FLASH.c ****                     arrayId++;
 163              		.loc 1 159 0
 164 0076 0AF1010A 		add	r10, r10, #1
 165              	.LVL16:
 160:Generated_Source\PSoC5/FLASH.c ****                     rowId = 0u;
 166              		.loc 1 160 0
 167 007a 4FF00009 		mov	r9, #0
 168              	.LVL17:
 169              	.L5:
 130:Generated_Source\PSoC5/FLASH.c ****         {
 170              		.loc 1 130 0
 171 007e BD42     		cmp	r5, r7
 172 0080 02D2     		bcs	.L10
 130:Generated_Source\PSoC5/FLASH.c ****         {
 173              		.loc 1 130 0 is_stmt 0 discriminator 1
 174 0082 BBF1000F 		cmp	fp, #0
 175 0086 E6D0     		beq	.L14
 176              	.L10:
 161:Generated_Source\PSoC5/FLASH.c ****                 }
ARM GAS  C:\Users\User\AppData\Local\Temp\ccnpu280.s 			page 7


 162:Generated_Source\PSoC5/FLASH.c ****             #endif /* (CY_FLASH_NUMBER_ARRAYS > 1) */
 163:Generated_Source\PSoC5/FLASH.c ****         }
 164:Generated_Source\PSoC5/FLASH.c **** 
 165:Generated_Source\PSoC5/FLASH.c ****         /* Flush both Cache and PHUB prefetch buffer */
 166:Generated_Source\PSoC5/FLASH.c ****         #if (CY_PSOC5)
 167:Generated_Source\PSoC5/FLASH.c ****             CyFlushCache();
 177              		.loc 1 167 0 is_stmt 1
 178 0088 FFF7FEFF 		bl	CyFlushCache
 179              	.LVL18:
 180 008c 01E0     		b	.L4
 181              	.LVL19:
 182              	.L13:
 168:Generated_Source\PSoC5/FLASH.c ****         #elif (CY_PSOC3)
 169:Generated_Source\PSoC5/FLASH.c ****             CY_FLASH_CONTROL_REG |= 6u;
 170:Generated_Source\PSoC5/FLASH.c ****         #endif /* (CY_PSOC5) */
 171:Generated_Source\PSoC5/FLASH.c ****     }
 172:Generated_Source\PSoC5/FLASH.c ****     else
 173:Generated_Source\PSoC5/FLASH.c ****     {
 174:Generated_Source\PSoC5/FLASH.c ****         rc = CYRET_BAD_PARAM;
 183              		.loc 1 174 0
 184 008e 4FF0010B 		mov	fp, #1
 185              	.LVL20:
 186              	.L4:
 175:Generated_Source\PSoC5/FLASH.c ****     }
 176:Generated_Source\PSoC5/FLASH.c **** 
 177:Generated_Source\PSoC5/FLASH.c ****     /* Mask return codes from flash, if they are not supported */
 178:Generated_Source\PSoC5/FLASH.c ****     if ((CYRET_SUCCESS != rc) && (CYRET_BAD_PARAM != rc))
 187              		.loc 1 178 0
 188 0092 BBF1010F 		cmp	fp, #1
 189 0096 01D9     		bls	.L12
 179:Generated_Source\PSoC5/FLASH.c ****     {
 180:Generated_Source\PSoC5/FLASH.c ****         rc = CYRET_UNKNOWN;
 190              		.loc 1 180 0
 191 0098 4FF0FF3B 		mov	fp, #-1
 192              	.LVL21:
 193              	.L12:
 181:Generated_Source\PSoC5/FLASH.c ****     }
 182:Generated_Source\PSoC5/FLASH.c ****     
 183:Generated_Source\PSoC5/FLASH.c ****     return (rc);
 184:Generated_Source\PSoC5/FLASH.c **** }
 194              		.loc 1 184 0
 195 009c 5846     		mov	r0, fp
 196 009e 0DF5097D 		add	sp, sp, #548
 197              		.cfi_def_cfa_offset 36
 198              		@ sp needed
 199 00a2 BDE8F08F 		pop	{r4, r5, r6, r7, r8, r9, r10, fp, pc}
 200              		.cfi_endproc
 201              	.LFE2:
 202              		.size	FLASH_Write, .-FLASH_Write
 203 00a6 00BF     		.text
 204              	.Letext0:
 205              		.file 2 "Generated_Source\\PSoC5\\cytypes.h"
 206              		.file 3 "Generated_Source\\PSoC5\\CyFlash.h"
 207              		.file 4 "Generated_Source\\PSoC5\\CyLib.h"