ARM GAS  C:\Users\User\AppData\Local\Temp\ccoMSFoX.s 			page 1


   1              		.syntax unified
   2              		.cpu cortex-m3
   3              		.fpu softvfp
   4              		.eabi_attribute 20, 1
   5              		.eabi_attribute 21, 1
   6              		.eabi_attribute 23, 3
   7              		.eabi_attribute 24, 1
   8              		.eabi_attribute 25, 1
   9              		.eabi_attribute 26, 1
  10              		.eabi_attribute 30, 1
  11              		.eabi_attribute 34, 1
  12              		.eabi_attribute 18, 4
  13              		.thumb
  14              		.syntax unified
  15              		.file	"main.c"
  16              		.text
  17              	.Ltext0:
  18              		.cfi_sections	.debug_frame
  19              		.section	.text.isr_DAC_1_done,"ax",%progbits
  20              		.align	2
  21              		.global	isr_DAC_1_done
  22              		.thumb
  23              		.thumb_func
  24              		.type	isr_DAC_1_done, %function
  25              	isr_DAC_1_done:
  26              	.LFB80:
  27              		.file 1 "main.c"
   1:main.c        **** /* ========================================
   2:main.c        ****  * 
   3:main.c        ****  * This code is supplementary material for the IWMPI 2018, Hamburg, Germany 
   4:main.c        ****  *
   5:main.c        ****  * Martin.Rueckert@physik.uni-wuerzburg.de
   6:main.c        ****  *
   7:main.c        ****  * Copyright (C) 2017 University of Wuerzburg, Experimental Physics 5, Biophysics
   8:main.c        ****  * https://www.physik.uni-wuerzburg.de/ep5/magnetic-particle-imaging/
   9:main.c        ****  *
  10:main.c        ****  * WOTAN is free software: you can redistribute it and/or modify
  11:main.c        ****  * it under the terms of the GNU General Public License version 3 as
  12:main.c        ****  * published by the Free Software Foundation.
  13:main.c        ****  *
  14:main.c        ****  * WOTAN is distributed in the hope that it will be useful,
  15:main.c        ****  * but WITHOUT ANY WARRANTY; without even the implied warranty of
  16:main.c        ****  * MERCHANTABILITY or FITNESS FOR A PARTICULAR PURPOSE.  See the
  17:main.c        ****  * GNU General Public License for more details.
  18:main.c        ****  *
  19:main.c        ****  * You should have received a copy of the GNU General Public License
  20:main.c        ****  * along with WOTAN.  If not, see <http://www.gnu.org/licenses/>.
  21:main.c        ****  * ========================================
  22:main.c        ****  */
  23:main.c        **** 
  24:main.c        **** #include "project.h"
  25:main.c        **** #include <stdio.h>
  26:main.c        **** #include <string.h>
  27:main.c        **** #include <math.h>
  28:main.c        **** 
  29:main.c        **** #define  TRUE               1
  30:main.c        **** #define  FALSE              0
ARM GAS  C:\Users\User\AppData\Local\Temp\ccoMSFoX.s 			page 2


  31:main.c        **** 
  32:main.c        **** #define START_CLOCK         0
  33:main.c        **** #define STOP_CLOCK          1
  34:main.c        **** 
  35:main.c        **** // UART interface
  36:main.c        **** #define  UART_BUF_IN        100
  37:main.c        **** #define  UART_BUF_OUT       80
  38:main.c        **** #define  KEY_RUN             'r'
  39:main.c        **** #define  KEY_RUN_ALT         'v'
  40:main.c        **** #define  KEY_RUN_AND_SHOW    's'
  41:main.c        **** #define  KEY_RUN_NEXT_SHOW   'a'
  42:main.c        **** #define  KEY_SEND_ASCII_DAT  'd'
  43:main.c        **** #define  KEY_SEND_BYTE_DAT   'o'
  44:main.c        **** #define  KEY_SET_PARAMS      't'
  45:main.c        **** #define  KEY_RESET           'e'
  46:main.c        **** #define  KEY_DAC1            '1'
  47:main.c        **** #define  KEY_DAC2            '2'
  48:main.c        **** #define  KEY_DAC3            '3'
  49:main.c        **** #define  KEY_DAC4            '4'
  50:main.c        **** #define  KEY_SIG_IN          '5'
  51:main.c        **** 
  52:main.c        **** #define  NSAMPLES_ADC       15000               // 1 MS/s, max value: 15000
  53:main.c        **** #define  NSAMPLES_DAC       NSAMPLES_ADC/4      // 250 kS/s (make sample duration for Transmit and 
  54:main.c        **** #define  SEQU_DURATION_US   NSAMPLES_ADC*3      // duration includes start- and end ramp
  55:main.c        **** 
  56:main.c        **** #define  IGNORE_FIRST_PART  TRUE               // if FALSE: shows start ramp of sequence (default: 
  57:main.c        **** 
  58:main.c        **** #define  N_TDS_ADC          20
  59:main.c        **** #define  N_TDS_DAC          3               // TD1: on ramp, TD2: sequence (each with length NSAMPL
  60:main.c        **** 
  61:main.c        **** #define  FLASH_CH1          (const uint8 *)     0x08000  // Flash addresses for storing the DAC wav
  62:main.c        **** #define  FLASH_CH2          (const uint8 *)     0x10000
  63:main.c        **** #define  FLASH_CH3          (const uint8 *)     0x20000
  64:main.c        **** #define  FLASH_CH4          (const uint8 *)     0x30000 
  65:main.c        **** 
  66:main.c        **** #define  CLOCK_SHIFT_CH1     0b1100   
  67:main.c        **** #define  CLOCK_SHIFT_CH2     0b0110   
  68:main.c        **** #define  CLOCK_SHIFT_CH3     0b0011   
  69:main.c        **** #define  CLOCK_SHIFT_CH4     0b1001   
  70:main.c        **** 
  71:main.c        **** // Set all MPI waveform parameters
  72:main.c        **** #define NUM_CHANNELS    4
  73:main.c        **** #define CH1             0
  74:main.c        **** #define CH2             1
  75:main.c        **** #define CH3             2
  76:main.c        **** #define CH4             3
  77:main.c        **** #define FREQ_CORRECTION 1.0 // XTAL: +/- 30ppm
  78:main.c        **** #define OM_1HZ          2*M_PI/250000.0*FREQ_CORRECTION
  79:main.c        **** #define PHI_90DEG       M_PI/2.0
  80:main.c        **** #define MAX_VALUE       180 // 180 => CH1, CH2: 1.82 V-pp; CH3, Ch4: 1.78 V-pp
  81:main.c        **** #define WAVE_EXIST      MAX_VALUE/2 // token = first sample in each wave form
  82:main.c        **** 
  83:main.c        **** struct sequenceParams { 
  84:main.c        ****     float           om          [NUM_CHANNELS];
  85:main.c        ****     float           om_mod      [NUM_CHANNELS];
  86:main.c        ****     float           phi         [NUM_CHANNELS];
  87:main.c        ****     float           phi_mod     [NUM_CHANNELS];
ARM GAS  C:\Users\User\AppData\Local\Temp\ccoMSFoX.s 			page 3


  88:main.c        ****     float           amp         [NUM_CHANNELS];
  89:main.c        ****     float           off         [NUM_CHANNELS];
  90:main.c        ****     const uint8*    flash_ptr   [NUM_CHANNELS];
  91:main.c        **** }
  92:main.c        **** // parameter structure:
  93:main.c        **** //         -> {{ paramX_CH1,        paramX_CH2,         paramX_CH3,         paramX_CH4 },...}
  94:main.c        **** twMPI_params= {{723.57*OM_1HZ,    723.57*OM_1HZ,    16823.0*OM_1HZ,    16823.0*OM_1HZ},\
  95:main.c        ****                {0.0*OM_1HZ,         0.0*OM_1HZ,         0.0*OM_1HZ,         0.0*OM_1HZ},\
  96:main.c        ****                {0.0*PHI_90DEG,      1.0*PHI_90DEG,      0.0*PHI_90DEG,      0.0*PHI_90DEG},\
  97:main.c        ****                {1.0*PHI_90DEG,      1.0*PHI_90DEG,      1.0*PHI_90DEG,      1.0*PHI_90DEG},\
  98:main.c        ****                {0.47*MAX_VALUE,     0.47*MAX_VALUE,     0.47*MAX_VALUE,   0.47*MAX_VALUE},\
  99:main.c        ****                {0.5*MAX_VALUE,      0.5*MAX_VALUE,      0.5*MAX_VALUE,    0.5*MAX_VALUE},\
 100:main.c        ****                {FLASH_CH1,          FLASH_CH2,          FLASH_CH3,          FLASH_CH4}};
 101:main.c        **** 
 102:main.c        **** struct sequenceParams *twMPI = &twMPI_params;
 103:main.c        **** 
 104:main.c        **** 
 105:main.c        **** /* Defines for DMA_DAC_1 */
 106:main.c        **** #define DMA_DAC_1_BYTES_PER_BURST 1
 107:main.c        **** #define DMA_DAC_1_REQUEST_PER_BURST 1
 108:main.c        **** #define DMA_DAC_1_SRC_BASE (FLASH_CH1)
 109:main.c        **** #define DMA_DAC_1_DST_BASE (CYDEV_PERIPH_BASE)
 110:main.c        **** 
 111:main.c        **** /* Variable declarations for DMA_DAC */
 112:main.c        **** /* Move these variable declarations to the top of the function */
 113:main.c        **** uint8 DMA_DAC_1_Chan;
 114:main.c        **** uint8 DMA_DAC_1_TD[N_TDS_DAC];
 115:main.c        **** 
 116:main.c        **** /* Defines for DMA_DAC_2 */
 117:main.c        **** #define DMA_DAC_2_BYTES_PER_BURST 1
 118:main.c        **** #define DMA_DAC_2_REQUEST_PER_BURST 1
 119:main.c        **** #define DMA_DAC_2_SRC_BASE (FLASH_CH2)
 120:main.c        **** #define DMA_DAC_2_DST_BASE (CYDEV_PERIPH_BASE)
 121:main.c        **** 
 122:main.c        **** /* Variable declarations for DMA_DAC_2 */
 123:main.c        **** /* Move these variable declarations to the top of the function */
 124:main.c        **** uint8 DMA_DAC_2_Chan;
 125:main.c        **** uint8 DMA_DAC_2_TD[N_TDS_DAC];
 126:main.c        **** 
 127:main.c        **** /* Defines for DMA_DAC_3 */
 128:main.c        **** #define DMA_DAC_3_BYTES_PER_BURST 1
 129:main.c        **** #define DMA_DAC_3_REQUEST_PER_BURST 1
 130:main.c        **** #define DMA_DAC_3_SRC_BASE (FLASH_CH3)
 131:main.c        **** #define DMA_DAC_3_DST_BASE (CYDEV_PERIPH_BASE)
 132:main.c        **** 
 133:main.c        **** /* Variable declarations for DMA_DAC_3 */
 134:main.c        **** /* Move these variable declarations to the top of the function */
 135:main.c        **** uint8 DMA_DAC_3_Chan;
 136:main.c        **** uint8 DMA_DAC_3_TD[N_TDS_DAC];
 137:main.c        **** 
 138:main.c        **** /* Defines for DMA_DAC_4 */
 139:main.c        **** #define DMA_DAC_4_BYTES_PER_BURST 1
 140:main.c        **** #define DMA_DAC_4_REQUEST_PER_BURST 1
 141:main.c        **** #define DMA_DAC_4_SRC_BASE (FLASH_CH4)
 142:main.c        **** #define DMA_DAC_4_DST_BASE (CYDEV_PERIPH_BASE)
 143:main.c        **** 
 144:main.c        **** /* Variable declarations for DMA_DAC */
ARM GAS  C:\Users\User\AppData\Local\Temp\ccoMSFoX.s 			page 4


 145:main.c        **** /* Move these variable declarations to the top of the function */
 146:main.c        **** uint8 DMA_DAC_4_Chan;
 147:main.c        **** uint8 DMA_DAC_4_TD[N_TDS_DAC];
 148:main.c        **** 
 149:main.c        **** 
 150:main.c        **** /* Defines for DMA_ADC_1 */
 151:main.c        **** #define DMA_ADC_1_BYTES_PER_BURST 2
 152:main.c        **** #define DMA_ADC_1_REQUEST_PER_BURST 1
 153:main.c        **** #define DMA_ADC_1_SRC_BASE (CYDEV_PERIPH_BASE)
 154:main.c        **** #define DMA_ADC_1_DST_BASE (CYDEV_SRAM_BASE)
 155:main.c        **** 
 156:main.c        **** /* Variable declarations for DMA_ADC */
 157:main.c        **** /* Move these variable declarations to the top of the function */
 158:main.c        **** uint8 DMA_ADC_1_Chan;
 159:main.c        **** uint8 DMA_ADC_1_TD[N_TDS_ADC];
 160:main.c        **** 
 161:main.c        **** /* Defines for DMA_ADC_2 */
 162:main.c        **** #define DMA_ADC_2_BYTES_PER_BURST 2
 163:main.c        **** #define DMA_ADC_2_REQUEST_PER_BURST 1
 164:main.c        **** #define DMA_ADC_2_SRC_BASE (CYDEV_PERIPH_BASE)
 165:main.c        **** #define DMA_ADC_2_DST_BASE (CYDEV_SRAM_BASE)
 166:main.c        **** 
 167:main.c        **** /* Variable declarations for DMA_ADC */
 168:main.c        **** /* Move these variable declarations to the top of the function */
 169:main.c        **** uint8 DMA_ADC_2_Chan;
 170:main.c        **** uint8 DMA_ADC_2_TD[N_TDS_ADC];
 171:main.c        **** 
 172:main.c        **** // auxilliary variables
 173:main.c        **** char    sms     [UART_BUF_OUT];
 174:main.c        **** char    puttyIn [UART_BUF_IN];
 175:main.c        **** int     rxBuf;
 176:main.c        **** uint8   run_count_DAC_1=0;
 177:main.c        **** uint8   nextRun = FALSE;
 178:main.c        **** 
 179:main.c        **** // Two adc buffers 
 180:main.c        **** uint16 signal_adc_1[NSAMPLES_ADC]; 
 181:main.c        **** uint16 signal_adc_2[NSAMPLES_ADC];
 182:main.c        **** 
 183:main.c        **** void init_components(void);
 184:main.c        **** void show_default_message(void);
 185:main.c        **** void show_channel_num(void);
 186:main.c        **** void set_sequence_params(void);
 187:main.c        **** void generate_sequence(void);
 188:main.c        **** void run_sequence(char);
 189:main.c        **** void display_results(void);
 190:main.c        **** void uart_interface(void);
 191:main.c        **** void dma_dac_1_init(void);
 192:main.c        **** void dma_dac_2_init(void);
 193:main.c        **** void dma_dac_3_init(void);
 194:main.c        **** void dma_dac_4_init(void);
 195:main.c        **** void dma_adc_1_init(void);
 196:main.c        **** void dma_adc_2_init(void);
 197:main.c        **** CY_ISR_PROTO( isr_triggerIn );
 198:main.c        **** CY_ISR_PROTO( isr_DAC_1_done );
 199:main.c        **** CY_ISR_PROTO( isr_DAC_2_done );
 200:main.c        **** CY_ISR_PROTO( isr_DAC_3_done );
 201:main.c        **** CY_ISR_PROTO( isr_DAC_4_done );
ARM GAS  C:\Users\User\AppData\Local\Temp\ccoMSFoX.s 			page 5


 202:main.c        **** CY_ISR_PROTO( isr_ADC_1_done );
 203:main.c        **** CY_ISR_PROTO( isr_ADC_2_done );
 204:main.c        **** 
 205:main.c        **** 
 206:main.c        **** uint8 current_chan=0;
 207:main.c        **** uint8 count_of_runs=0;
 208:main.c        **** 
 209:main.c        **** int main(void)
 210:main.c        **** {
 211:main.c        ****     CyGlobalIntEnable; /* Enable global interrupts. */
 212:main.c        **** 
 213:main.c        ****     /* Place your initialization/startup code here (e.g. MyInst_Start()) */
 214:main.c        ****     init_components();
 215:main.c        ****     if( *(FLASH_CH1 ) == 0 ) // Skip sequence generation if non-empty
 216:main.c        ****         generate_sequence();
 217:main.c        ****     show_default_message();
 218:main.c        ****    
 219:main.c        ****     for(;;) 
 220:main.c        ****     {       
 221:main.c        ****         // Control interface via UART for Putty or Matlab/Octave
 222:main.c        ****         uart_interface();
 223:main.c        ****     }
 224:main.c        **** }
 225:main.c        **** /* END MAIN() ***********************************/
 226:main.c        **** 
 227:main.c        **** void init_components(void)
 228:main.c        **** {
 229:main.c        ****     // ADDA Clock
 230:main.c        ****     pwmSAMPLING_Start();
 231:main.c        ****     
 232:main.c        ****     // Transmit channels 
 233:main.c        ****     IDAC8_1_Start();
 234:main.c        ****         IDAC8_1_SetValue(MAX_VALUE/2); // Set dc value for avoiding base level fluctuations before 
 235:main.c        ****         ShiftReg_1_WriteRegValue(CLOCK_SHIFT_CH1); // Shift Register are for avoiding simultaneous 
 236:main.c        ****         ShiftReg_1_Start();
 237:main.c        ****     IDAC8_2_Start();
 238:main.c        ****         IDAC8_1_SetValue(MAX_VALUE/2);
 239:main.c        ****         ShiftReg_2_WriteRegValue(CLOCK_SHIFT_CH2);
 240:main.c        ****         ShiftReg_2_Start();
 241:main.c        ****     IDAC8_3_Start();
 242:main.c        ****         IDAC8_1_SetValue(MAX_VALUE/2);
 243:main.c        ****         ShiftReg_3_WriteRegValue(CLOCK_SHIFT_CH3);
 244:main.c        ****         ShiftReg_3_Start();
 245:main.c        ****     IDAC8_4_Start();
 246:main.c        ****         IDAC8_1_SetValue(MAX_VALUE/2);
 247:main.c        ****         ShiftReg_4_WriteRegValue(CLOCK_SHIFT_CH4);
 248:main.c        ****         ShiftReg_4_Start();
 249:main.c        **** 
 250:main.c        ****     // Receive channel
 251:main.c        ****     ADC_SAR_1_Start();
 252:main.c        ****         ADC_SAR_1_IRQ_Disable();
 253:main.c        ****     ADC_SAR_2_Start();
 254:main.c        ****         ADC_SAR_2_IRQ_Disable();
 255:main.c        ****     Track_Hold_1_Start();
 256:main.c        ****     Track_Hold_2_Start();
 257:main.c        ****     
 258:main.c        ****     refOut_Start();
ARM GAS  C:\Users\User\AppData\Local\Temp\ccoMSFoX.s 			page 6


 259:main.c        ****     sigBuf_Start();
 260:main.c        ****     
 261:main.c        ****     // Components for user interface and debugging
 262:main.c        ****     ChannelSel_Start();
 263:main.c        ****         ChannelSel_Select(current_chan=0);
 264:main.c        ****     UART_1_Start();
 265:main.c        ****     CompTrigger_Start();
 266:main.c        ****         isrTrigger_StartEx( isr_triggerIn );
 267:main.c        ****     isr_DAC_1_StartEx( isr_DAC_1_done );
 268:main.c        ****     isr_DAC_2_StartEx( isr_DAC_2_done );
 269:main.c        ****     isr_DAC_3_StartEx( isr_DAC_3_done );
 270:main.c        ****     isr_DAC_4_StartEx( isr_DAC_4_done );
 271:main.c        ****     isr_ADC_1_StartEx( isr_ADC_1_done );
 272:main.c        ****     isr_ADC_2_StartEx( isr_ADC_2_done );
 273:main.c        **** 
 274:main.c        **** }
 275:main.c        **** 
 276:main.c        **** void show_default_message(void)
 277:main.c        **** {
 278:main.c        ****     UART_1_PutCRLF(2);
 279:main.c        ****     sprintf(sms, "Press '%c' to run the sequence and show the results (ASCII table)", KEY_RUN_AND_S
 280:main.c        ****         UART_1_PutString(sms); UART_1_PutCRLF(1);
 281:main.c        ****     sprintf(sms, "Press '%c' to only run the sequence (No ASCII table, currently measured: Channel 
 282:main.c        ****         UART_1_PutString(sms); UART_1_PutCRLF(1);
 283:main.c        ****     sprintf(sms, "Press '%c' to only run the alternating sequence (odd: CH3 is off, even: CH4 is of
 284:main.c        ****         UART_1_PutString(sms); UART_1_PutCRLF(1);
 285:main.c        ****     sprintf(sms, "Press '%c' to show last results (ASCII table)", KEY_SEND_ASCII_DAT);
 286:main.c        ****         UART_1_PutString(sms); UART_1_PutCRLF(1);
 287:main.c        ****     sprintf(sms, "Press '%c' to switch to next channel and run the sequence)", KEY_RUN_NEXT_SHOW);
 288:main.c        ****         UART_1_PutString(sms); UART_1_PutCRLF(1);
 289:main.c        ****     sprintf(sms, "Press '%c', '%c', '%c' or '%c' for measuring DAC 1..4 or '%c' for measuring GPIO 
 290:main.c        ****         UART_1_PutString(sms); UART_1_PutCRLF(1);
 291:main.c        ****     sprintf(sms, "Press '%c' to reset the device (Software reset)", KEY_RESET);
 292:main.c        ****         UART_1_PutString(sms); UART_1_PutCRLF(1);
 293:main.c        ****     UART_1_PutCRLF(2);
 294:main.c        **** }
 295:main.c        **** 
 296:main.c        **** void show_channel_num(void)
 297:main.c        **** {
 298:main.c        ****     sprintf(sms,"Currently selected channel for data monitoring: %d", current_chan+1 );
 299:main.c        ****         UART_1_PutString(sms); UART_1_PutCRLF(1);
 300:main.c        ****     sprintf(sms,"Count of sequence runs after reset: %d", count_of_runs);
 301:main.c        ****         UART_1_PutString(sms); UART_1_PutCRLF(1);
 302:main.c        **** }
 303:main.c        **** 
 304:main.c        **** void display_results(void)
 305:main.c        **** {
 306:main.c        ****     for(int i=0;i<NSAMPLES_ADC;i++)
 307:main.c        ****     {
 308:main.c        ****         sprintf(sms,"ADC_1 Value %d,0 us:\t  %d", i, signal_adc_1[i]);
 309:main.c        ****             UART_1_PutString(sms);
 310:main.c        ****         UART_1_PutCRLF(1);
 311:main.c        ****         sprintf(sms,"ADC_2 Value %d,5 us:\t  %d", i, signal_adc_2[i]);
 312:main.c        ****             UART_1_PutString(sms);
 313:main.c        ****         UART_1_PutCRLF(1);
 314:main.c        ****         
 315:main.c        ****         // stop printing ascii table with any key:
ARM GAS  C:\Users\User\AppData\Local\Temp\ccoMSFoX.s 			page 7


 316:main.c        ****         if( UART_1_GetRxBufferSize() != 0 )
 317:main.c        ****         {
 318:main.c        ****            UART_1_ClearRxBuffer();
 319:main.c        ****            UART_1_PutCRLF(2);
 320:main.c        ****            UART_1_PutString("Data listing aborted...\n\n");
 321:main.c        ****            UART_1_PutCRLF(1);
 322:main.c        ****            CyDelay(10);
 323:main.c        ****            break;
 324:main.c        ****         }
 325:main.c        ****     }
 326:main.c        ****     
 327:main.c        ****     show_channel_num();
 328:main.c        ****     
 329:main.c        ****     show_default_message();  
 330:main.c        **** }
 331:main.c        **** 
 332:main.c        **** void set_sequence_params(void)
 333:main.c        **** {
 334:main.c        ****     // clear token
 335:main.c        ****     puttyIn[0]=0;
 336:main.c        ****     puttyIn[1]=0;
 337:main.c        ****     puttyIn[2]=0;
 338:main.c        ****     
 339:main.c        ****     LED_Write(1);
 340:main.c        ****     
 341:main.c        ****     for(int chan_i=0; chan_i<NUM_CHANNELS; chan_i++)
 342:main.c        ****     {
 343:main.c        ****         //om
 344:main.c        ****         //om_mod
 345:main.c        ****         //phi
 346:main.c        ****         //phi_mod
 347:main.c        ****         //amp
 348:main.c        ****         twMPI->amp[0] = 50.0;// ((float) (100*(puttyIn[3]-'0') + 10*(puttyIn[4]-'0') * 1*(puttyIn[5
 349:main.c        ****         //off
 350:main.c        ****     }
 351:main.c        ****     generate_sequence();
 352:main.c        **** }
 353:main.c        **** 
 354:main.c        **** void generate_sequence(void)
 355:main.c        **** {
 356:main.c        ****     // Generate waveforms for each channel and store them in flash memory
 357:main.c        ****     // (overrides 'signal_adc_1[]' for buffering the calculations)
 358:main.c        ****     UART_1_PutString("* Generate sequence...");
 359:main.c        ****     UART_1_PutCRLF(1);
 360:main.c        **** 
 361:main.c        ****     int time_i;
 362:main.c        ****     for(int channel_i=0; channel_i<NUM_CHANNELS; channel_i++)
 363:main.c        ****     {
 364:main.c        ****         time_i=0-1;
 365:main.c        ****         // A) ramp up sequence
 366:main.c        ****         for(int i=0;i<NSAMPLES_DAC;i++)
 367:main.c        ****         {
 368:main.c        ****             time_i++;
 369:main.c        ****             ((uint8*)signal_adc_1)[time_i]\
 370:main.c        ****                     =(uint8) (1.0/((float)NSAMPLES_DAC) * (float)time_i * (float)twMPI->amp[channel
 371:main.c        ****                     * sin( (float) twMPI->om[channel_i] * (float)time_i + (float)twMPI->phi[channel
 372:main.c        ****                     * sin( (float) twMPI->om_mod[channel_i] * (float)time_i + (float)twMPI->phi_mod
ARM GAS  C:\Users\User\AppData\Local\Temp\ccoMSFoX.s 			page 8


 373:main.c        ****                     + (float)twMPI->off[channel_i]);
 374:main.c        ****         }   
 375:main.c        ****         //FLASH_Write( (uint8*)signal_adc_1, twMPI->flash_ptr[channel_i], NSAMPLES_DAC); 
 376:main.c        ****         // B) sequence
 377:main.c        ****         for(int i=0;i<NSAMPLES_DAC;i++)
 378:main.c        ****         {
 379:main.c        ****             time_i++;
 380:main.c        ****             ((uint8*)signal_adc_1)[time_i]\
 381:main.c        ****                     = (uint8) ((float)twMPI->amp[channel_i]\
 382:main.c        ****                     * sin( (float) twMPI->om[channel_i] * ((float)time_i) + (float)twMPI->phi[chann
 383:main.c        ****                     * sin( (float) twMPI->om_mod[channel_i] * ((float)time_i) + (float)twMPI->phi_m
 384:main.c        ****                     + (float)twMPI->off[channel_i]);
 385:main.c        ****         }   
 386:main.c        ****         //FLASH_Write( (uint8*)signal_adc_1, twMPI->flash_ptr[channel_i] + NSAMPLES_DAC, NSAMPLES_D
 387:main.c        ****         // C) ramp down sequence
 388:main.c        ****         for(int i=0;i<NSAMPLES_DAC;i++)
 389:main.c        ****         {
 390:main.c        ****             time_i++;
 391:main.c        ****             ((uint8*)signal_adc_1)[time_i]\
 392:main.c        ****                     = (uint8) ((float)twMPI->amp[channel_i] * ((float)(((float)NSAMPLES_DAC-((float
 393:main.c        ****                     * sin( (float) twMPI->om[channel_i] * ((float)time_i) + (float)twMPI->phi[chann
 394:main.c        ****                     * sin( (float) twMPI->om_mod[channel_i] * ((float)time_i) + (float)twMPI->phi_m
 395:main.c        ****                     + (float)twMPI->off[channel_i]);
 396:main.c        ****         }   
 397:main.c        ****         *(uint8*)signal_adc_1 = WAVE_EXIST; // token to indicate that a valid wave form allready ex
 398:main.c        ****         FLASH_Write( (uint8*)signal_adc_1, twMPI->flash_ptr[channel_i], 3*NSAMPLES_DAC); 
 399:main.c        ****     }
 400:main.c        ****     // Clear 'signal_adc_1[]'
 401:main.c        ****     for(int i=0;i<3*NSAMPLES_DAC;i++)
 402:main.c        ****     {
 403:main.c        ****         ((uint8*)signal_adc_1)[i] = 0;
 404:main.c        ****     } 
 405:main.c        ****     UART_1_PutString("* Sequence ready.");
 406:main.c        ****     UART_1_PutCRLF(1);
 407:main.c        **** 
 408:main.c        **** }
 409:main.c        **** 
 410:main.c        **** void run_sequence(char selSequ)
 411:main.c        **** {
 412:main.c        ****     internTrigger_Write(STOP_CLOCK);
 413:main.c        ****     
 414:main.c        ****         ShiftReg_1_Stop(); ShiftReg_1_WriteRegValue(CLOCK_SHIFT_CH1); ShiftReg_1_Start();
 415:main.c        ****         ShiftReg_2_Stop(); ShiftReg_2_WriteRegValue(CLOCK_SHIFT_CH2); ShiftReg_2_Start();
 416:main.c        ****         ShiftReg_3_Stop(); ShiftReg_3_WriteRegValue(CLOCK_SHIFT_CH3); ShiftReg_3_Start();
 417:main.c        ****         ShiftReg_4_Stop(); ShiftReg_4_WriteRegValue(CLOCK_SHIFT_CH4); ShiftReg_4_Start();
 418:main.c        **** 
 419:main.c        ****         dma_dac_1_init();
 420:main.c        ****         dma_dac_2_init();
 421:main.c        ****         if( selSequ == KEY_RUN_ALT)
 422:main.c        ****         {
 423:main.c        ****             if( (count_of_runs%2) == 0)  dma_dac_3_init(); // count_of_runs = EVEN
 424:main.c        ****             else                         dma_dac_4_init(); // count_of_runs = ODD
 425:main.c        ****         }
 426:main.c        ****         else
 427:main.c        ****         {
 428:main.c        ****             dma_dac_3_init();
 429:main.c        ****             dma_dac_4_init();
ARM GAS  C:\Users\User\AppData\Local\Temp\ccoMSFoX.s 			page 9


 430:main.c        ****         }
 431:main.c        ****         dma_adc_1_init();
 432:main.c        ****         dma_adc_2_init();
 433:main.c        ****         
 434:main.c        ****     internTrigger_Write(START_CLOCK);
 435:main.c        ****     
 436:main.c        ****     count_of_runs++;
 437:main.c        **** }
 438:main.c        **** 
 439:main.c        **** 
 440:main.c        **** void uart_interface(void)
 441:main.c        **** {
 442:main.c        ****     nextRun = TRUE; // used to avoid extern trigger from blocking the userinterface
 443:main.c        ****     // Control interface via UART for Putty or Matlab/Octave
 444:main.c        ****     if( (rxBuf = UART_1_GetRxBufferSize())!=0 )
 445:main.c        ****     {
 446:main.c        ****         // 1) Read Terminal Input String into puttyIn[]
 447:main.c        ****         for(int char_i=0; UART_1_GetRxBufferSize() !=0; char_i++)
 448:main.c        ****         {
 449:main.c        ****             puttyIn[char_i] = UART_1_GetChar();
 450:main.c        ****             
 451:main.c        ****             LED_Write( 1u ); // indicate received chars
 452:main.c        ****             CyDelay(50);
 453:main.c        ****             LED_Write( 0u );
 454:main.c        ****             CyDelay(50);
 455:main.c        ****         }
 456:main.c        ****         
 457:main.c        ****         // Set new sequence parameters via uart
 458:main.c        ****         if( puttyIn[0] == 't' && puttyIn[1] == 't' && puttyIn[2] == 't')
 459:main.c        ****         {
 460:main.c        ****             set_sequence_params();
 461:main.c        ****         }   
 462:main.c        ****         
 463:main.c        ****         // 3) Putty user interface
 464:main.c        ****         switch( puttyIn[0] )
 465:main.c        ****         {
 466:main.c        ****             case KEY_RUN_AND_SHOW: // run sequence and show results (2*NSAMPLES_ADC lines, ASCII fo
 467:main.c        ****                 run_sequence(puttyIn[0]);
 468:main.c        ****                 display_results();
 469:main.c        ****                 show_channel_num();
 470:main.c        ****             break;
 471:main.c        ****                 
 472:main.c        ****             case KEY_RUN: // run sequence (just running, no output)
 473:main.c        ****                 run_sequence(puttyIn[0]);
 474:main.c        ****             break;
 475:main.c        ****                 
 476:main.c        ****             case KEY_RUN_ALT: // run sequence - alternating channel 3 and 4 per run  (just running,
 477:main.c        ****                 run_sequence(puttyIn[0]);
 478:main.c        ****             break;
 479:main.c        ****             // 'o' : trigger streaming ADC data in binary form
 480:main.c        ****             //          for showing data with Matlab/Octave instead of Putty
 481:main.c        ****             case KEY_SEND_BYTE_DAT:
 482:main.c        ****                 LED_Write( 1u ); 
 483:main.c        ****                 for(int j=0;j<NSAMPLES_ADC;j++)
 484:main.c        ****                 {
 485:main.c        ****                     // turn uint16 arrays into uint8 streams:
 486:main.c        ****                     UART_1_PutChar(signal_adc_1[j] >>8   );
ARM GAS  C:\Users\User\AppData\Local\Temp\ccoMSFoX.s 			page 10


 487:main.c        ****                     UART_1_PutChar(signal_adc_1[j] &0xFF ); 
 488:main.c        ****                     UART_1_PutChar(signal_adc_2[j] >>8   );
 489:main.c        ****                     UART_1_PutChar(signal_adc_2[j] &0xFF ); 
 490:main.c        ****                 }
 491:main.c        ****                 LED_Write( 0u );
 492:main.c        ****             break;
 493:main.c        ****                 
 494:main.c        ****             case KEY_RUN_NEXT_SHOW: // run sequence and switch to next channel (just running, no ou
 495:main.c        ****                 current_chan++;
 496:main.c        ****                 if(current_chan>4) current_chan=0;
 497:main.c        ****                 ChannelSel_Select(current_chan);
 498:main.c        ****                 run_sequence(puttyIn[0]);
 499:main.c        ****                 show_channel_num();
 500:main.c        ****             break;
 501:main.c        ****             
 502:main.c        ****             case KEY_DAC1: // Read signal from DAC 1
 503:main.c        ****                 current_chan=0;
 504:main.c        ****                 ChannelSel_Select(current_chan);
 505:main.c        ****                 show_channel_num();
 506:main.c        ****             break;
 507:main.c        ****                 
 508:main.c        ****             case KEY_DAC2: // DAC 2
 509:main.c        ****                 current_chan=1;
 510:main.c        ****                 ChannelSel_Select(current_chan);
 511:main.c        ****                 show_channel_num();
 512:main.c        ****             break;
 513:main.c        ****                 
 514:main.c        ****             case KEY_DAC3: // DAC 3
 515:main.c        ****                 current_chan=2;
 516:main.c        ****                 ChannelSel_Select(current_chan);
 517:main.c        ****                 show_channel_num();
 518:main.c        ****             break;
 519:main.c        ****                 
 520:main.c        ****             case KEY_DAC4: // DAC 4
 521:main.c        ****                 current_chan=3;
 522:main.c        ****                 ChannelSel_Select(current_chan);
 523:main.c        ****                 show_channel_num();
 524:main.c        ****             break;
 525:main.c        ****                 
 526:main.c        ****             case KEY_SIG_IN: // Read Signal from GPIO P0.7
 527:main.c        ****                 current_chan=4;
 528:main.c        ****                 ChannelSel_Select(current_chan);
 529:main.c        ****                 show_channel_num();
 530:main.c        ****             break;
 531:main.c        **** 
 532:main.c        ****             case KEY_SEND_ASCII_DAT: // Give ADC data stream in ASCII format (for display in e.g. P
 533:main.c        ****                  display_results();
 534:main.c        ****             break;
 535:main.c        ****                 
 536:main.c        ****             case KEY_RESET: // RESET
 537:main.c        ****                  CySoftwareReset();   
 538:main.c        ****             break;
 539:main.c        **** 
 540:main.c        ****              
 541:main.c        ****         }
 542:main.c        **** 
 543:main.c        ****     }
ARM GAS  C:\Users\User\AppData\Local\Temp\ccoMSFoX.s 			page 11


 544:main.c        **** }
 545:main.c        **** 
 546:main.c        **** void dma_dac_1_init(void)
 547:main.c        **** {
 548:main.c        ****     /* DMA Configuration for DMA_DAC_1 */
 549:main.c        ****     if( count_of_runs == 0)
 550:main.c        ****     {
 551:main.c        ****         DMA_DAC_1_Chan = DMA_DAC_1_DmaInitialize(DMA_DAC_1_BYTES_PER_BURST, DMA_DAC_1_REQUEST_PER_B
 552:main.c        ****             HI16(DMA_DAC_1_SRC_BASE), HI16(DMA_DAC_1_DST_BASE));
 553:main.c        ****         DMA_DAC_1_TD[0] = CyDmaTdAllocate();
 554:main.c        ****         DMA_DAC_1_TD[1] = CyDmaTdAllocate();
 555:main.c        ****         DMA_DAC_1_TD[2] = CyDmaTdAllocate();
 556:main.c        ****     }
 557:main.c        ****     CyDmaTdSetConfiguration(DMA_DAC_1_TD[0], NSAMPLES_DAC, DMA_DAC_1_TD[1], CY_DMA_TD_INC_SRC_ADR);
 558:main.c        ****     CyDmaTdSetConfiguration(DMA_DAC_1_TD[1], NSAMPLES_DAC, DMA_DAC_1_TD[2], CY_DMA_TD_INC_SRC_ADR);
 559:main.c        ****     CyDmaTdSetConfiguration(DMA_DAC_1_TD[2], NSAMPLES_DAC, CY_DMA_DISABLE_TD, DMA_DAC_1__TD_TERMOUT
 560:main.c        ****     CyDmaTdSetAddress(DMA_DAC_1_TD[0], LO16((uint32)FLASH_CH1), LO16((uint32)IDAC8_1_Data_PTR));
 561:main.c        ****     CyDmaTdSetAddress(DMA_DAC_1_TD[1], LO16((uint32)FLASH_CH1 + NSAMPLES_DAC), LO16((uint32)IDAC8_1
 562:main.c        ****     CyDmaTdSetAddress(DMA_DAC_1_TD[2], LO16((uint32)FLASH_CH1 + 2*NSAMPLES_DAC), LO16((uint32)IDAC8
 563:main.c        ****     CyDmaChSetInitialTd(DMA_DAC_1_Chan, DMA_DAC_1_TD[0]);
 564:main.c        ****     CyDmaChEnable(DMA_DAC_1_Chan, 1);
 565:main.c        **** }
 566:main.c        **** 
 567:main.c        **** void dma_dac_2_init(void)
 568:main.c        **** {
 569:main.c        ****     /* DMA Configuration for DMA_DAC_2 */
 570:main.c        ****     if( count_of_runs == 0)
 571:main.c        ****     {
 572:main.c        ****         DMA_DAC_2_Chan = DMA_DAC_2_DmaInitialize(DMA_DAC_2_BYTES_PER_BURST, DMA_DAC_2_REQUEST_PER_B
 573:main.c        ****             HI16(DMA_DAC_2_SRC_BASE), HI16(DMA_DAC_2_DST_BASE));
 574:main.c        ****         DMA_DAC_2_TD[0] = CyDmaTdAllocate();
 575:main.c        ****         DMA_DAC_2_TD[1] = CyDmaTdAllocate();
 576:main.c        ****         DMA_DAC_2_TD[2] = CyDmaTdAllocate();
 577:main.c        ****     }
 578:main.c        ****     CyDmaTdSetConfiguration(DMA_DAC_2_TD[0], NSAMPLES_DAC, DMA_DAC_2_TD[1], CY_DMA_TD_INC_SRC_ADR);
 579:main.c        ****     CyDmaTdSetConfiguration(DMA_DAC_2_TD[1], NSAMPLES_DAC, DMA_DAC_2_TD[2], CY_DMA_TD_INC_SRC_ADR);
 580:main.c        ****     CyDmaTdSetConfiguration(DMA_DAC_2_TD[2], NSAMPLES_DAC, CY_DMA_DISABLE_TD, DMA_DAC_2__TD_TERMOUT
 581:main.c        ****     CyDmaTdSetAddress(DMA_DAC_2_TD[0], LO16((uint32)FLASH_CH2), LO16((uint32)IDAC8_2_Data_PTR));
 582:main.c        ****     CyDmaTdSetAddress(DMA_DAC_2_TD[1], LO16((uint32)FLASH_CH2 + NSAMPLES_DAC), LO16((uint32)IDAC8_2
 583:main.c        ****     CyDmaTdSetAddress(DMA_DAC_2_TD[2], LO16((uint32)FLASH_CH2 + 2*NSAMPLES_DAC), LO16((uint32)IDAC8
 584:main.c        ****     CyDmaChSetInitialTd(DMA_DAC_2_Chan, DMA_DAC_2_TD[0]);
 585:main.c        ****     CyDmaChEnable(DMA_DAC_2_Chan, 1);
 586:main.c        **** }
 587:main.c        **** 
 588:main.c        **** void dma_dac_3_init(void)
 589:main.c        **** {
 590:main.c        ****     /* DMA Configuration for DMA_DAC_3 */
 591:main.c        ****     if( count_of_runs == 0)
 592:main.c        ****     {
 593:main.c        ****         DMA_DAC_3_Chan = DMA_DAC_3_DmaInitialize(DMA_DAC_3_BYTES_PER_BURST, DMA_DAC_3_REQUEST_PER_B
 594:main.c        ****             HI16(DMA_DAC_3_SRC_BASE), HI16(DMA_DAC_3_DST_BASE));
 595:main.c        ****         DMA_DAC_3_TD[0] = CyDmaTdAllocate();
 596:main.c        ****         DMA_DAC_3_TD[1] = CyDmaTdAllocate();
 597:main.c        ****         DMA_DAC_3_TD[2] = CyDmaTdAllocate();
 598:main.c        ****     }
 599:main.c        ****     CyDmaTdSetConfiguration(DMA_DAC_3_TD[0], NSAMPLES_DAC, DMA_DAC_3_TD[1], CY_DMA_TD_INC_SRC_ADR);
 600:main.c        ****     CyDmaTdSetConfiguration(DMA_DAC_3_TD[1], NSAMPLES_DAC, DMA_DAC_3_TD[2], CY_DMA_TD_INC_SRC_ADR);
ARM GAS  C:\Users\User\AppData\Local\Temp\ccoMSFoX.s 			page 12


 601:main.c        ****     CyDmaTdSetConfiguration(DMA_DAC_3_TD[2], NSAMPLES_DAC, CY_DMA_DISABLE_TD, DMA_DAC_3__TD_TERMOUT
 602:main.c        ****     CyDmaTdSetAddress(DMA_DAC_3_TD[0], LO16((uint32)FLASH_CH3), LO16((uint32)IDAC8_3_Data_PTR));
 603:main.c        ****     CyDmaTdSetAddress(DMA_DAC_3_TD[1], LO16((uint32)FLASH_CH3 + NSAMPLES_DAC), LO16((uint32)IDAC8_3
 604:main.c        ****     CyDmaTdSetAddress(DMA_DAC_3_TD[2], LO16((uint32)FLASH_CH3 + 2*NSAMPLES_DAC), LO16((uint32)IDAC8
 605:main.c        ****     CyDmaChSetInitialTd(DMA_DAC_3_Chan, DMA_DAC_3_TD[0]);
 606:main.c        ****     CyDmaChEnable(DMA_DAC_3_Chan, 1);
 607:main.c        **** }
 608:main.c        **** 
 609:main.c        **** void dma_dac_4_init(void)
 610:main.c        **** {
 611:main.c        ****     /* DMA Configuration for DMA_DAC_4 */
 612:main.c        ****     if( count_of_runs == 0)
 613:main.c        ****     {
 614:main.c        ****         DMA_DAC_4_Chan = DMA_DAC_4_DmaInitialize(DMA_DAC_4_BYTES_PER_BURST, DMA_DAC_4_REQUEST_PER_B
 615:main.c        ****             HI16(DMA_DAC_4_SRC_BASE), HI16(DMA_DAC_4_DST_BASE));
 616:main.c        ****         DMA_DAC_4_TD[0] = CyDmaTdAllocate();
 617:main.c        ****         DMA_DAC_4_TD[1] = CyDmaTdAllocate();
 618:main.c        ****         DMA_DAC_4_TD[2] = CyDmaTdAllocate();
 619:main.c        ****     }
 620:main.c        ****     CyDmaTdSetConfiguration(DMA_DAC_4_TD[0], NSAMPLES_DAC, DMA_DAC_4_TD[1], CY_DMA_TD_INC_SRC_ADR);
 621:main.c        ****     CyDmaTdSetConfiguration(DMA_DAC_4_TD[1], NSAMPLES_DAC, DMA_DAC_4_TD[2], CY_DMA_TD_INC_SRC_ADR);
 622:main.c        ****     CyDmaTdSetConfiguration(DMA_DAC_4_TD[2], NSAMPLES_DAC, CY_DMA_DISABLE_TD, DMA_DAC_4__TD_TERMOUT
 623:main.c        ****     CyDmaTdSetAddress(DMA_DAC_4_TD[0], LO16((uint32)FLASH_CH4), LO16((uint32)IDAC8_4_Data_PTR));
 624:main.c        ****     CyDmaTdSetAddress(DMA_DAC_4_TD[1], LO16((uint32)FLASH_CH4 + NSAMPLES_DAC), LO16((uint32)IDAC8_4
 625:main.c        ****     CyDmaTdSetAddress(DMA_DAC_4_TD[2], LO16((uint32)FLASH_CH4 + 2*NSAMPLES_DAC), LO16((uint32)IDAC8
 626:main.c        ****     CyDmaChSetInitialTd(DMA_DAC_4_Chan, DMA_DAC_4_TD[0]);
 627:main.c        ****     CyDmaChEnable(DMA_DAC_4_Chan, 1);
 628:main.c        **** }
 629:main.c        **** 
 630:main.c        **** void dma_adc_1_init(void)
 631:main.c        **** {
 632:main.c        ****     /* DMA Configuration for DMA_ADC_1 */
 633:main.c        ****     if( count_of_runs == 0)
 634:main.c        ****     {
 635:main.c        ****         DMA_ADC_1_Chan = DMA_ADC_1_DmaInitialize(DMA_ADC_1_BYTES_PER_BURST, DMA_ADC_1_REQUEST_PER_B
 636:main.c        ****             HI16(DMA_ADC_1_SRC_BASE), HI16(DMA_ADC_1_DST_BASE));
 637:main.c        ****         DMA_ADC_1_TD[0] = CyDmaTdAllocate();
 638:main.c        ****         DMA_ADC_1_TD[1] = CyDmaTdAllocate();
 639:main.c        ****         DMA_ADC_1_TD[2] = CyDmaTdAllocate();
 640:main.c        ****         DMA_ADC_1_TD[3] = CyDmaTdAllocate();
 641:main.c        ****         DMA_ADC_1_TD[4] = CyDmaTdAllocate();
 642:main.c        ****         DMA_ADC_1_TD[5] = CyDmaTdAllocate();
 643:main.c        ****         DMA_ADC_1_TD[6] = CyDmaTdAllocate();
 644:main.c        ****         DMA_ADC_1_TD[7] = CyDmaTdAllocate();
 645:main.c        ****         DMA_ADC_1_TD[8] = CyDmaTdAllocate();
 646:main.c        ****         DMA_ADC_1_TD[9] = CyDmaTdAllocate();
 647:main.c        ****         DMA_ADC_1_TD[10] = CyDmaTdAllocate();
 648:main.c        ****         DMA_ADC_1_TD[11] = CyDmaTdAllocate();
 649:main.c        ****         DMA_ADC_1_TD[12] = CyDmaTdAllocate();
 650:main.c        ****         DMA_ADC_1_TD[13] = CyDmaTdAllocate();
 651:main.c        ****         DMA_ADC_1_TD[14] = CyDmaTdAllocate();
 652:main.c        ****         DMA_ADC_1_TD[15] = CyDmaTdAllocate();
 653:main.c        ****         DMA_ADC_1_TD[16] = CyDmaTdAllocate();
 654:main.c        ****         DMA_ADC_1_TD[17] = CyDmaTdAllocate();
 655:main.c        ****         DMA_ADC_1_TD[18] = CyDmaTdAllocate();
 656:main.c        ****         DMA_ADC_1_TD[19] = CyDmaTdAllocate();
 657:main.c        ****     }
ARM GAS  C:\Users\User\AppData\Local\Temp\ccoMSFoX.s 			page 13


 658:main.c        ****     CyDmaTdSetConfiguration(DMA_ADC_1_TD[0], NSAMPLES_ADC/(N_TDS_ADC/2) * DMA_ADC_1_BYTES_PER_BURST
 659:main.c        ****     CyDmaTdSetConfiguration(DMA_ADC_1_TD[1], NSAMPLES_ADC/(N_TDS_ADC/2) * DMA_ADC_1_BYTES_PER_BURST
 660:main.c        ****     CyDmaTdSetConfiguration(DMA_ADC_1_TD[2], NSAMPLES_ADC/(N_TDS_ADC/2) * DMA_ADC_1_BYTES_PER_BURST
 661:main.c        ****     CyDmaTdSetConfiguration(DMA_ADC_1_TD[3], NSAMPLES_ADC/(N_TDS_ADC/2) * DMA_ADC_1_BYTES_PER_BURST
 662:main.c        ****     CyDmaTdSetConfiguration(DMA_ADC_1_TD[4], NSAMPLES_ADC/(N_TDS_ADC/2) * DMA_ADC_1_BYTES_PER_BURST
 663:main.c        ****     CyDmaTdSetConfiguration(DMA_ADC_1_TD[5], NSAMPLES_ADC/(N_TDS_ADC/2) * DMA_ADC_1_BYTES_PER_BURST
 664:main.c        ****     CyDmaTdSetConfiguration(DMA_ADC_1_TD[6], NSAMPLES_ADC/(N_TDS_ADC/2) * DMA_ADC_1_BYTES_PER_BURST
 665:main.c        ****     CyDmaTdSetConfiguration(DMA_ADC_1_TD[7], NSAMPLES_ADC/(N_TDS_ADC/2) * DMA_ADC_1_BYTES_PER_BURST
 666:main.c        ****     CyDmaTdSetConfiguration(DMA_ADC_1_TD[8], NSAMPLES_ADC/(N_TDS_ADC/2) * DMA_ADC_1_BYTES_PER_BURST
 667:main.c        ****     CyDmaTdSetConfiguration(DMA_ADC_1_TD[9], NSAMPLES_ADC/(N_TDS_ADC/2) * DMA_ADC_1_BYTES_PER_BURST
 668:main.c        ****     CyDmaTdSetConfiguration(DMA_ADC_1_TD[10], NSAMPLES_ADC/(N_TDS_ADC/2) * DMA_ADC_1_BYTES_PER_BURS
 669:main.c        ****     CyDmaTdSetConfiguration(DMA_ADC_1_TD[11], NSAMPLES_ADC/(N_TDS_ADC/2) * DMA_ADC_1_BYTES_PER_BURS
 670:main.c        ****     CyDmaTdSetConfiguration(DMA_ADC_1_TD[12], NSAMPLES_ADC/(N_TDS_ADC/2) * DMA_ADC_1_BYTES_PER_BURS
 671:main.c        ****     CyDmaTdSetConfiguration(DMA_ADC_1_TD[13], NSAMPLES_ADC/(N_TDS_ADC/2) * DMA_ADC_1_BYTES_PER_BURS
 672:main.c        ****     CyDmaTdSetConfiguration(DMA_ADC_1_TD[14], NSAMPLES_ADC/(N_TDS_ADC/2) * DMA_ADC_1_BYTES_PER_BURS
 673:main.c        ****     CyDmaTdSetConfiguration(DMA_ADC_1_TD[15], NSAMPLES_ADC/(N_TDS_ADC/2) * DMA_ADC_1_BYTES_PER_BURS
 674:main.c        ****     CyDmaTdSetConfiguration(DMA_ADC_1_TD[16], NSAMPLES_ADC/(N_TDS_ADC/2) * DMA_ADC_1_BYTES_PER_BURS
 675:main.c        ****     CyDmaTdSetConfiguration(DMA_ADC_1_TD[17], NSAMPLES_ADC/(N_TDS_ADC/2) * DMA_ADC_1_BYTES_PER_BURS
 676:main.c        ****     CyDmaTdSetConfiguration(DMA_ADC_1_TD[18], NSAMPLES_ADC/(N_TDS_ADC/2) * DMA_ADC_1_BYTES_PER_BURS
 677:main.c        ****     CyDmaTdSetConfiguration(DMA_ADC_1_TD[19], NSAMPLES_ADC/(N_TDS_ADC/2) * DMA_ADC_1_BYTES_PER_BURS
 678:main.c        ****     CyDmaTdSetAddress(DMA_ADC_1_TD[0], LO16((uint32)ADC_SAR_1_SAR_WRK0_PTR), LO16((uint32)signal_ad
 679:main.c        ****     CyDmaTdSetAddress(DMA_ADC_1_TD[1], LO16((uint32)ADC_SAR_1_SAR_WRK0_PTR), LO16((uint32)signal_ad
 680:main.c        ****     CyDmaTdSetAddress(DMA_ADC_1_TD[2], LO16((uint32)ADC_SAR_1_SAR_WRK0_PTR), LO16((uint32)signal_ad
 681:main.c        ****     CyDmaTdSetAddress(DMA_ADC_1_TD[3], LO16((uint32)ADC_SAR_1_SAR_WRK0_PTR), LO16((uint32)signal_ad
 682:main.c        ****     CyDmaTdSetAddress(DMA_ADC_1_TD[4], LO16((uint32)ADC_SAR_1_SAR_WRK0_PTR), LO16((uint32)signal_ad
 683:main.c        ****     CyDmaTdSetAddress(DMA_ADC_1_TD[5], LO16((uint32)ADC_SAR_1_SAR_WRK0_PTR), LO16((uint32)signal_ad
 684:main.c        ****     CyDmaTdSetAddress(DMA_ADC_1_TD[6], LO16((uint32)ADC_SAR_1_SAR_WRK0_PTR), LO16((uint32)signal_ad
 685:main.c        ****     CyDmaTdSetAddress(DMA_ADC_1_TD[7], LO16((uint32)ADC_SAR_1_SAR_WRK0_PTR), LO16((uint32)signal_ad
 686:main.c        ****     CyDmaTdSetAddress(DMA_ADC_1_TD[8], LO16((uint32)ADC_SAR_1_SAR_WRK0_PTR), LO16((uint32)signal_ad
 687:main.c        ****     CyDmaTdSetAddress(DMA_ADC_1_TD[9], LO16((uint32)ADC_SAR_1_SAR_WRK0_PTR), LO16((uint32)signal_ad
 688:main.c        ****     CyDmaTdSetAddress(DMA_ADC_1_TD[10], LO16((uint32)ADC_SAR_1_SAR_WRK0_PTR), LO16((uint32)signal_a
 689:main.c        ****     CyDmaTdSetAddress(DMA_ADC_1_TD[11], LO16((uint32)ADC_SAR_1_SAR_WRK0_PTR), LO16((uint32)signal_a
 690:main.c        ****     CyDmaTdSetAddress(DMA_ADC_1_TD[12], LO16((uint32)ADC_SAR_1_SAR_WRK0_PTR), LO16((uint32)signal_a
 691:main.c        ****     CyDmaTdSetAddress(DMA_ADC_1_TD[13], LO16((uint32)ADC_SAR_1_SAR_WRK0_PTR), LO16((uint32)signal_a
 692:main.c        ****     CyDmaTdSetAddress(DMA_ADC_1_TD[14], LO16((uint32)ADC_SAR_1_SAR_WRK0_PTR), LO16((uint32)signal_a
 693:main.c        ****     CyDmaTdSetAddress(DMA_ADC_1_TD[15], LO16((uint32)ADC_SAR_1_SAR_WRK0_PTR), LO16((uint32)signal_a
 694:main.c        ****     CyDmaTdSetAddress(DMA_ADC_1_TD[16], LO16((uint32)ADC_SAR_1_SAR_WRK0_PTR), LO16((uint32)signal_a
 695:main.c        ****     CyDmaTdSetAddress(DMA_ADC_1_TD[17], LO16((uint32)ADC_SAR_1_SAR_WRK0_PTR), LO16((uint32)signal_a
 696:main.c        ****     CyDmaTdSetAddress(DMA_ADC_1_TD[18], LO16((uint32)ADC_SAR_1_SAR_WRK0_PTR), LO16((uint32)signal_a
 697:main.c        ****     CyDmaTdSetAddress(DMA_ADC_1_TD[19], LO16((uint32)ADC_SAR_1_SAR_WRK0_PTR), LO16((uint32)signal_a
 698:main.c        ****     CyDmaChSetInitialTd(DMA_ADC_1_Chan, DMA_ADC_1_TD[0]);
 699:main.c        ****     CyDmaChEnable(DMA_ADC_1_Chan, 1);     
 700:main.c        **** }
 701:main.c        **** 
 702:main.c        **** void dma_adc_2_init(void)
 703:main.c        **** {
 704:main.c        ****     /* DMA Configuration for DMA_ADC_2 */
 705:main.c        ****     if( count_of_runs == 0)
 706:main.c        ****     {
 707:main.c        ****         DMA_ADC_2_Chan = DMA_ADC_2_DmaInitialize(DMA_ADC_2_BYTES_PER_BURST, DMA_ADC_2_REQUEST_PER_B
 708:main.c        ****             HI16(DMA_ADC_2_SRC_BASE), HI16(DMA_ADC_2_DST_BASE));
 709:main.c        ****         DMA_ADC_2_TD[0] = CyDmaTdAllocate();
 710:main.c        ****         DMA_ADC_2_TD[1] = CyDmaTdAllocate();
 711:main.c        ****         DMA_ADC_2_TD[2] = CyDmaTdAllocate();
 712:main.c        ****         DMA_ADC_2_TD[3] = CyDmaTdAllocate();
 713:main.c        ****         DMA_ADC_2_TD[4] = CyDmaTdAllocate();
 714:main.c        ****         DMA_ADC_2_TD[5] = CyDmaTdAllocate();
ARM GAS  C:\Users\User\AppData\Local\Temp\ccoMSFoX.s 			page 14


 715:main.c        ****         DMA_ADC_2_TD[6] = CyDmaTdAllocate();
 716:main.c        ****         DMA_ADC_2_TD[7] = CyDmaTdAllocate();
 717:main.c        ****         DMA_ADC_2_TD[8] = CyDmaTdAllocate();
 718:main.c        ****         DMA_ADC_2_TD[9] = CyDmaTdAllocate();
 719:main.c        ****         DMA_ADC_2_TD[10] = CyDmaTdAllocate();
 720:main.c        ****         DMA_ADC_2_TD[11] = CyDmaTdAllocate();
 721:main.c        ****         DMA_ADC_2_TD[12] = CyDmaTdAllocate();
 722:main.c        ****         DMA_ADC_2_TD[13] = CyDmaTdAllocate();
 723:main.c        ****         DMA_ADC_2_TD[14] = CyDmaTdAllocate();
 724:main.c        ****         DMA_ADC_2_TD[15] = CyDmaTdAllocate();
 725:main.c        ****         DMA_ADC_2_TD[16] = CyDmaTdAllocate();
 726:main.c        ****         DMA_ADC_2_TD[17] = CyDmaTdAllocate();
 727:main.c        ****         DMA_ADC_2_TD[18] = CyDmaTdAllocate();
 728:main.c        ****         DMA_ADC_2_TD[19] = CyDmaTdAllocate();
 729:main.c        ****     }
 730:main.c        ****     CyDmaTdSetConfiguration(DMA_ADC_2_TD[0], NSAMPLES_ADC/(N_TDS_ADC/2) * DMA_ADC_2_BYTES_PER_BURST
 731:main.c        ****     CyDmaTdSetConfiguration(DMA_ADC_2_TD[1], NSAMPLES_ADC/(N_TDS_ADC/2) * DMA_ADC_2_BYTES_PER_BURST
 732:main.c        ****     CyDmaTdSetConfiguration(DMA_ADC_2_TD[2], NSAMPLES_ADC/(N_TDS_ADC/2) * DMA_ADC_2_BYTES_PER_BURST
 733:main.c        ****     CyDmaTdSetConfiguration(DMA_ADC_2_TD[3], NSAMPLES_ADC/(N_TDS_ADC/2) * DMA_ADC_2_BYTES_PER_BURST
 734:main.c        ****     CyDmaTdSetConfiguration(DMA_ADC_2_TD[4], NSAMPLES_ADC/(N_TDS_ADC/2) * DMA_ADC_2_BYTES_PER_BURST
 735:main.c        ****     CyDmaTdSetConfiguration(DMA_ADC_2_TD[5], NSAMPLES_ADC/(N_TDS_ADC/2) * DMA_ADC_2_BYTES_PER_BURST
 736:main.c        ****     CyDmaTdSetConfiguration(DMA_ADC_2_TD[6], NSAMPLES_ADC/(N_TDS_ADC/2) * DMA_ADC_2_BYTES_PER_BURST
 737:main.c        ****     CyDmaTdSetConfiguration(DMA_ADC_2_TD[7], NSAMPLES_ADC/(N_TDS_ADC/2) * DMA_ADC_2_BYTES_PER_BURST
 738:main.c        ****     CyDmaTdSetConfiguration(DMA_ADC_2_TD[8], NSAMPLES_ADC/(N_TDS_ADC/2) * DMA_ADC_2_BYTES_PER_BURST
 739:main.c        ****     CyDmaTdSetConfiguration(DMA_ADC_2_TD[9], NSAMPLES_ADC/(N_TDS_ADC/2) * DMA_ADC_2_BYTES_PER_BURST
 740:main.c        ****     CyDmaTdSetConfiguration(DMA_ADC_2_TD[10], NSAMPLES_ADC/(N_TDS_ADC/2) * DMA_ADC_2_BYTES_PER_BURS
 741:main.c        ****     CyDmaTdSetConfiguration(DMA_ADC_2_TD[11], NSAMPLES_ADC/(N_TDS_ADC/2) * DMA_ADC_2_BYTES_PER_BURS
 742:main.c        ****     CyDmaTdSetConfiguration(DMA_ADC_2_TD[12], NSAMPLES_ADC/(N_TDS_ADC/2) * DMA_ADC_2_BYTES_PER_BURS
 743:main.c        ****     CyDmaTdSetConfiguration(DMA_ADC_2_TD[13], NSAMPLES_ADC/(N_TDS_ADC/2) * DMA_ADC_2_BYTES_PER_BURS
 744:main.c        ****     CyDmaTdSetConfiguration(DMA_ADC_2_TD[14], NSAMPLES_ADC/(N_TDS_ADC/2) * DMA_ADC_2_BYTES_PER_BURS
 745:main.c        ****     CyDmaTdSetConfiguration(DMA_ADC_2_TD[15], NSAMPLES_ADC/(N_TDS_ADC/2) * DMA_ADC_2_BYTES_PER_BURS
 746:main.c        ****     CyDmaTdSetConfiguration(DMA_ADC_2_TD[16], NSAMPLES_ADC/(N_TDS_ADC/2) * DMA_ADC_2_BYTES_PER_BURS
 747:main.c        ****     CyDmaTdSetConfiguration(DMA_ADC_2_TD[17], NSAMPLES_ADC/(N_TDS_ADC/2) * DMA_ADC_2_BYTES_PER_BURS
 748:main.c        ****     CyDmaTdSetConfiguration(DMA_ADC_2_TD[18], NSAMPLES_ADC/(N_TDS_ADC/2) * DMA_ADC_2_BYTES_PER_BURS
 749:main.c        ****     CyDmaTdSetConfiguration(DMA_ADC_2_TD[19], NSAMPLES_ADC/(N_TDS_ADC/2) * DMA_ADC_2_BYTES_PER_BURS
 750:main.c        ****     CyDmaTdSetAddress(DMA_ADC_2_TD[0], LO16((uint32)ADC_SAR_2_SAR_WRK0_PTR), LO16((uint32)signal_ad
 751:main.c        ****     CyDmaTdSetAddress(DMA_ADC_2_TD[1], LO16((uint32)ADC_SAR_2_SAR_WRK0_PTR), LO16((uint32)signal_ad
 752:main.c        ****     CyDmaTdSetAddress(DMA_ADC_2_TD[2], LO16((uint32)ADC_SAR_2_SAR_WRK0_PTR), LO16((uint32)signal_ad
 753:main.c        ****     CyDmaTdSetAddress(DMA_ADC_2_TD[3], LO16((uint32)ADC_SAR_2_SAR_WRK0_PTR), LO16((uint32)signal_ad
 754:main.c        ****     CyDmaTdSetAddress(DMA_ADC_2_TD[4], LO16((uint32)ADC_SAR_2_SAR_WRK0_PTR), LO16((uint32)signal_ad
 755:main.c        ****     CyDmaTdSetAddress(DMA_ADC_2_TD[5], LO16((uint32)ADC_SAR_2_SAR_WRK0_PTR), LO16((uint32)signal_ad
 756:main.c        ****     CyDmaTdSetAddress(DMA_ADC_2_TD[6], LO16((uint32)ADC_SAR_2_SAR_WRK0_PTR), LO16((uint32)signal_ad
 757:main.c        ****     CyDmaTdSetAddress(DMA_ADC_2_TD[7], LO16((uint32)ADC_SAR_2_SAR_WRK0_PTR), LO16((uint32)signal_ad
 758:main.c        ****     CyDmaTdSetAddress(DMA_ADC_2_TD[8], LO16((uint32)ADC_SAR_2_SAR_WRK0_PTR), LO16((uint32)signal_ad
 759:main.c        ****     CyDmaTdSetAddress(DMA_ADC_2_TD[9], LO16((uint32)ADC_SAR_2_SAR_WRK0_PTR), LO16((uint32)signal_ad
 760:main.c        ****     CyDmaTdSetAddress(DMA_ADC_2_TD[10], LO16((uint32)ADC_SAR_2_SAR_WRK0_PTR), LO16((uint32)signal_a
 761:main.c        ****     CyDmaTdSetAddress(DMA_ADC_2_TD[11], LO16((uint32)ADC_SAR_2_SAR_WRK0_PTR), LO16((uint32)signal_a
 762:main.c        ****     CyDmaTdSetAddress(DMA_ADC_2_TD[12], LO16((uint32)ADC_SAR_2_SAR_WRK0_PTR), LO16((uint32)signal_a
 763:main.c        ****     CyDmaTdSetAddress(DMA_ADC_2_TD[13], LO16((uint32)ADC_SAR_2_SAR_WRK0_PTR), LO16((uint32)signal_a
 764:main.c        ****     CyDmaTdSetAddress(DMA_ADC_2_TD[14], LO16((uint32)ADC_SAR_2_SAR_WRK0_PTR), LO16((uint32)signal_a
 765:main.c        ****     CyDmaTdSetAddress(DMA_ADC_2_TD[15], LO16((uint32)ADC_SAR_2_SAR_WRK0_PTR), LO16((uint32)signal_a
 766:main.c        ****     CyDmaTdSetAddress(DMA_ADC_2_TD[16], LO16((uint32)ADC_SAR_2_SAR_WRK0_PTR), LO16((uint32)signal_a
 767:main.c        ****     CyDmaTdSetAddress(DMA_ADC_2_TD[17], LO16((uint32)ADC_SAR_2_SAR_WRK0_PTR), LO16((uint32)signal_a
 768:main.c        ****     CyDmaTdSetAddress(DMA_ADC_2_TD[18], LO16((uint32)ADC_SAR_2_SAR_WRK0_PTR), LO16((uint32)signal_a
 769:main.c        ****     CyDmaTdSetAddress(DMA_ADC_2_TD[19], LO16((uint32)ADC_SAR_2_SAR_WRK0_PTR), LO16((uint32)signal_a
 770:main.c        ****     CyDmaChSetInitialTd(DMA_ADC_2_Chan, DMA_ADC_2_TD[0]);
 771:main.c        ****     CyDmaChEnable(DMA_ADC_2_Chan, 1);     
ARM GAS  C:\Users\User\AppData\Local\Temp\ccoMSFoX.s 			page 15


 772:main.c        **** }
 773:main.c        **** 
 774:main.c        **** CY_ISR( isr_triggerIn )
 775:main.c        **** {
 776:main.c        ****     if( nextRun == TRUE )
 777:main.c        ****     {
 778:main.c        ****         nextRun = FALSE; // avoid blocking Putty user interface 
 779:main.c        ****         LED_Write( ~LED_Read()); // indicate trigger
 780:main.c        ****         run_sequence(KEY_RUN); 
 781:main.c        ****         CyDelayUs(SEQU_DURATION_US); // Block CPU while sequence is running to avoid interference
 782:main.c        ****     }
 783:main.c        **** }
 784:main.c        **** 
 785:main.c        **** 
 786:main.c        **** CY_ISR( isr_DAC_1_done )
 787:main.c        **** {
  28              		.loc 1 787 0
  29              		.cfi_startproc
  30              		@ args = 0, pretend = 0, frame = 0
  31              		@ frame_needed = 0, uses_anonymous_args = 0
  32              		@ link register save eliminated.
  33 0000 7047     		bx	lr
  34              		.cfi_endproc
  35              	.LFE80:
  36              		.size	isr_DAC_1_done, .-isr_DAC_1_done
  37 0002 00BF     		.section	.text.isr_DAC_2_done,"ax",%progbits
  38              		.align	2
  39              		.global	isr_DAC_2_done
  40              		.thumb
  41              		.thumb_func
  42              		.type	isr_DAC_2_done, %function
  43              	isr_DAC_2_done:
  44              	.LFB81:
 788:main.c        **** 
 789:main.c        ****     //display_results();
 790:main.c        ****     
 791:main.c        ****     //UART_1_PutString("DAC_1 done!");
 792:main.c        ****     //UART_1_PutCRLF(1);
 793:main.c        ****     
 794:main.c        **** }
 795:main.c        **** 
 796:main.c        **** CY_ISR( isr_DAC_2_done )
 797:main.c        **** {
  45              		.loc 1 797 0
  46              		.cfi_startproc
  47              		@ args = 0, pretend = 0, frame = 0
  48              		@ frame_needed = 0, uses_anonymous_args = 0
  49              		@ link register save eliminated.
  50 0000 7047     		bx	lr
  51              		.cfi_endproc
  52              	.LFE81:
  53              		.size	isr_DAC_2_done, .-isr_DAC_2_done
  54 0002 00BF     		.section	.text.isr_DAC_3_done,"ax",%progbits
  55              		.align	2
  56              		.global	isr_DAC_3_done
  57              		.thumb
  58              		.thumb_func
ARM GAS  C:\Users\User\AppData\Local\Temp\ccoMSFoX.s 			page 16


  59              		.type	isr_DAC_3_done, %function
  60              	isr_DAC_3_done:
  61              	.LFB82:
 798:main.c        ****     //CyDelay(10);
 799:main.c        ****     //UART_1_PutString("DAC_2 done!");
 800:main.c        ****     //UART_1_PutCRLF(1);
 801:main.c        **** }
 802:main.c        **** 
 803:main.c        **** CY_ISR( isr_DAC_3_done )
 804:main.c        **** {
  62              		.loc 1 804 0
  63              		.cfi_startproc
  64              		@ args = 0, pretend = 0, frame = 0
  65              		@ frame_needed = 0, uses_anonymous_args = 0
  66              		@ link register save eliminated.
  67 0000 7047     		bx	lr
  68              		.cfi_endproc
  69              	.LFE82:
  70              		.size	isr_DAC_3_done, .-isr_DAC_3_done
  71 0002 00BF     		.section	.text.isr_DAC_4_done,"ax",%progbits
  72              		.align	2
  73              		.global	isr_DAC_4_done
  74              		.thumb
  75              		.thumb_func
  76              		.type	isr_DAC_4_done, %function
  77              	isr_DAC_4_done:
  78              	.LFB83:
 805:main.c        ****     //CyDelay(10);
 806:main.c        ****     //UART_1_PutString("DAC_3 done!");
 807:main.c        ****     //UART_1_PutCRLF(1);
 808:main.c        **** }
 809:main.c        **** 
 810:main.c        **** CY_ISR( isr_DAC_4_done )
 811:main.c        **** {
  79              		.loc 1 811 0
  80              		.cfi_startproc
  81              		@ args = 0, pretend = 0, frame = 0
  82              		@ frame_needed = 0, uses_anonymous_args = 0
  83              		@ link register save eliminated.
  84 0000 7047     		bx	lr
  85              		.cfi_endproc
  86              	.LFE83:
  87              		.size	isr_DAC_4_done, .-isr_DAC_4_done
  88 0002 00BF     		.section	.text.isr_ADC_1_done,"ax",%progbits
  89              		.align	2
  90              		.global	isr_ADC_1_done
  91              		.thumb
  92              		.thumb_func
  93              		.type	isr_ADC_1_done, %function
  94              	isr_ADC_1_done:
  95              	.LFB84:
 812:main.c        ****     //CyDelay(10);
 813:main.c        ****     //UART_1_PutString("DAC_4 done!");
 814:main.c        ****     //UART_1_PutCRLF(1);
 815:main.c        **** }
 816:main.c        **** 
 817:main.c        **** CY_ISR( isr_ADC_1_done )
ARM GAS  C:\Users\User\AppData\Local\Temp\ccoMSFoX.s 			page 17


 818:main.c        **** {
  96              		.loc 1 818 0
  97              		.cfi_startproc
  98              		@ args = 0, pretend = 0, frame = 0
  99              		@ frame_needed = 0, uses_anonymous_args = 0
 100              		@ link register save eliminated.
 101 0000 7047     		bx	lr
 102              		.cfi_endproc
 103              	.LFE84:
 104              		.size	isr_ADC_1_done, .-isr_ADC_1_done
 105 0002 00BF     		.section	.text.isr_ADC_2_done,"ax",%progbits
 106              		.align	2
 107              		.global	isr_ADC_2_done
 108              		.thumb
 109              		.thumb_func
 110              		.type	isr_ADC_2_done, %function
 111              	isr_ADC_2_done:
 112              	.LFB85:
 819:main.c        ****     //CyDelay(10);
 820:main.c        ****     //UART_1_PutString("ADC_1 done!");
 821:main.c        ****     //UART_1_PutCRLF(1);
 822:main.c        **** }
 823:main.c        **** 
 824:main.c        **** CY_ISR( isr_ADC_2_done )
 825:main.c        **** {
 113              		.loc 1 825 0
 114              		.cfi_startproc
 115              		@ args = 0, pretend = 0, frame = 0
 116              		@ frame_needed = 0, uses_anonymous_args = 0
 117              		@ link register save eliminated.
 118 0000 7047     		bx	lr
 119              		.cfi_endproc
 120              	.LFE85:
 121              		.size	isr_ADC_2_done, .-isr_ADC_2_done
 122 0002 00BF     		.section	.text.init_components,"ax",%progbits
 123              		.align	2
 124              		.global	init_components
 125              		.thumb
 126              		.thumb_func
 127              		.type	init_components, %function
 128              	init_components:
 129              	.LFB65:
 228:main.c        ****     // ADDA Clock
 130              		.loc 1 228 0
 131              		.cfi_startproc
 132              		@ args = 0, pretend = 0, frame = 0
 133              		@ frame_needed = 0, uses_anonymous_args = 0
 228:main.c        ****     // ADDA Clock
 134              		.loc 1 228 0
 135 0000 08B5     		push	{r3, lr}
 136              		.cfi_def_cfa_offset 8
 137              		.cfi_offset 3, -8
 138              		.cfi_offset 14, -4
 230:main.c        ****     
 139              		.loc 1 230 0
 140 0002 FFF7FEFF 		bl	pwmSAMPLING_Start
 141              	.LVL0:
ARM GAS  C:\Users\User\AppData\Local\Temp\ccoMSFoX.s 			page 18


 233:main.c        ****         IDAC8_1_SetValue(MAX_VALUE/2); // Set dc value for avoiding base level fluctuations before 
 142              		.loc 1 233 0
 143 0006 FFF7FEFF 		bl	IDAC8_1_Start
 144              	.LVL1:
 234:main.c        ****         ShiftReg_1_WriteRegValue(CLOCK_SHIFT_CH1); // Shift Register are for avoiding simultaneous 
 145              		.loc 1 234 0
 146 000a 5A20     		movs	r0, #90
 147 000c FFF7FEFF 		bl	IDAC8_1_SetValue
 148              	.LVL2:
 235:main.c        ****         ShiftReg_1_Start();
 149              		.loc 1 235 0
 150 0010 0C20     		movs	r0, #12
 151 0012 FFF7FEFF 		bl	ShiftReg_1_WriteRegValue
 152              	.LVL3:
 236:main.c        ****     IDAC8_2_Start();
 153              		.loc 1 236 0
 154 0016 FFF7FEFF 		bl	ShiftReg_1_Start
 155              	.LVL4:
 237:main.c        ****         IDAC8_1_SetValue(MAX_VALUE/2);
 156              		.loc 1 237 0
 157 001a FFF7FEFF 		bl	IDAC8_2_Start
 158              	.LVL5:
 238:main.c        ****         ShiftReg_2_WriteRegValue(CLOCK_SHIFT_CH2);
 159              		.loc 1 238 0
 160 001e 5A20     		movs	r0, #90
 161 0020 FFF7FEFF 		bl	IDAC8_1_SetValue
 162              	.LVL6:
 239:main.c        ****         ShiftReg_2_Start();
 163              		.loc 1 239 0
 164 0024 0620     		movs	r0, #6
 165 0026 FFF7FEFF 		bl	ShiftReg_2_WriteRegValue
 166              	.LVL7:
 240:main.c        ****     IDAC8_3_Start();
 167              		.loc 1 240 0
 168 002a FFF7FEFF 		bl	ShiftReg_2_Start
 169              	.LVL8:
 241:main.c        ****         IDAC8_1_SetValue(MAX_VALUE/2);
 170              		.loc 1 241 0
 171 002e FFF7FEFF 		bl	IDAC8_3_Start
 172              	.LVL9:
 242:main.c        ****         ShiftReg_3_WriteRegValue(CLOCK_SHIFT_CH3);
 173              		.loc 1 242 0
 174 0032 5A20     		movs	r0, #90
 175 0034 FFF7FEFF 		bl	IDAC8_1_SetValue
 176              	.LVL10:
 243:main.c        ****         ShiftReg_3_Start();
 177              		.loc 1 243 0
 178 0038 0320     		movs	r0, #3
 179 003a FFF7FEFF 		bl	ShiftReg_3_WriteRegValue
 180              	.LVL11:
 244:main.c        ****     IDAC8_4_Start();
 181              		.loc 1 244 0
 182 003e FFF7FEFF 		bl	ShiftReg_3_Start
 183              	.LVL12:
 245:main.c        ****         IDAC8_1_SetValue(MAX_VALUE/2);
 184              		.loc 1 245 0
 185 0042 FFF7FEFF 		bl	IDAC8_4_Start
ARM GAS  C:\Users\User\AppData\Local\Temp\ccoMSFoX.s 			page 19


 186              	.LVL13:
 246:main.c        ****         ShiftReg_4_WriteRegValue(CLOCK_SHIFT_CH4);
 187              		.loc 1 246 0
 188 0046 5A20     		movs	r0, #90
 189 0048 FFF7FEFF 		bl	IDAC8_1_SetValue
 190              	.LVL14:
 247:main.c        ****         ShiftReg_4_Start();
 191              		.loc 1 247 0
 192 004c 0920     		movs	r0, #9
 193 004e FFF7FEFF 		bl	ShiftReg_4_WriteRegValue
 194              	.LVL15:
 248:main.c        **** 
 195              		.loc 1 248 0
 196 0052 FFF7FEFF 		bl	ShiftReg_4_Start
 197              	.LVL16:
 251:main.c        ****         ADC_SAR_1_IRQ_Disable();
 198              		.loc 1 251 0
 199 0056 FFF7FEFF 		bl	ADC_SAR_1_Start
 200              	.LVL17:
 252:main.c        ****     ADC_SAR_2_Start();
 201              		.loc 1 252 0
 202 005a FFF7FEFF 		bl	ADC_SAR_1_IRQ_Disable
 203              	.LVL18:
 253:main.c        ****         ADC_SAR_2_IRQ_Disable();
 204              		.loc 1 253 0
 205 005e FFF7FEFF 		bl	ADC_SAR_2_Start
 206              	.LVL19:
 254:main.c        ****     Track_Hold_1_Start();
 207              		.loc 1 254 0
 208 0062 FFF7FEFF 		bl	ADC_SAR_2_IRQ_Disable
 209              	.LVL20:
 255:main.c        ****     Track_Hold_2_Start();
 210              		.loc 1 255 0
 211 0066 FFF7FEFF 		bl	Track_Hold_1_Start
 212              	.LVL21:
 256:main.c        ****     
 213              		.loc 1 256 0
 214 006a FFF7FEFF 		bl	Track_Hold_2_Start
 215              	.LVL22:
 258:main.c        ****     sigBuf_Start();
 216              		.loc 1 258 0
 217 006e FFF7FEFF 		bl	refOut_Start
 218              	.LVL23:
 259:main.c        ****     
 219              		.loc 1 259 0
 220 0072 FFF7FEFF 		bl	sigBuf_Start
 221              	.LVL24:
 262:main.c        ****         ChannelSel_Select(current_chan=0);
 222              		.loc 1 262 0
 223 0076 FFF7FEFF 		bl	ChannelSel_Start
 224              	.LVL25:
 263:main.c        ****     UART_1_Start();
 225              		.loc 1 263 0
 226 007a 0020     		movs	r0, #0
 227 007c 0E4B     		ldr	r3, .L9
 228 007e 1870     		strb	r0, [r3]
 229 0080 FFF7FEFF 		bl	ChannelSel_Select
ARM GAS  C:\Users\User\AppData\Local\Temp\ccoMSFoX.s 			page 20


 230              	.LVL26:
 264:main.c        ****     CompTrigger_Start();
 231              		.loc 1 264 0
 232 0084 FFF7FEFF 		bl	UART_1_Start
 233              	.LVL27:
 265:main.c        ****         isrTrigger_StartEx( isr_triggerIn );
 234              		.loc 1 265 0
 235 0088 FFF7FEFF 		bl	CompTrigger_Start
 236              	.LVL28:
 266:main.c        ****     isr_DAC_1_StartEx( isr_DAC_1_done );
 237              		.loc 1 266 0
 238 008c 0B48     		ldr	r0, .L9+4
 239 008e FFF7FEFF 		bl	isrTrigger_StartEx
 240              	.LVL29:
 267:main.c        ****     isr_DAC_2_StartEx( isr_DAC_2_done );
 241              		.loc 1 267 0
 242 0092 0B48     		ldr	r0, .L9+8
 243 0094 FFF7FEFF 		bl	isr_DAC_1_StartEx
 244              	.LVL30:
 268:main.c        ****     isr_DAC_3_StartEx( isr_DAC_3_done );
 245              		.loc 1 268 0
 246 0098 0A48     		ldr	r0, .L9+12
 247 009a FFF7FEFF 		bl	isr_DAC_2_StartEx
 248              	.LVL31:
 269:main.c        ****     isr_DAC_4_StartEx( isr_DAC_4_done );
 249              		.loc 1 269 0
 250 009e 0A48     		ldr	r0, .L9+16
 251 00a0 FFF7FEFF 		bl	isr_DAC_3_StartEx
 252              	.LVL32:
 270:main.c        ****     isr_ADC_1_StartEx( isr_ADC_1_done );
 253              		.loc 1 270 0
 254 00a4 0948     		ldr	r0, .L9+20
 255 00a6 FFF7FEFF 		bl	isr_DAC_4_StartEx
 256              	.LVL33:
 271:main.c        ****     isr_ADC_2_StartEx( isr_ADC_2_done );
 257              		.loc 1 271 0
 258 00aa 0948     		ldr	r0, .L9+24
 259 00ac FFF7FEFF 		bl	isr_ADC_1_StartEx
 260              	.LVL34:
 272:main.c        **** 
 261              		.loc 1 272 0
 262 00b0 0848     		ldr	r0, .L9+28
 263 00b2 FFF7FEFF 		bl	isr_ADC_2_StartEx
 264              	.LVL35:
 265 00b6 08BD     		pop	{r3, pc}
 266              	.L10:
 267              		.align	2
 268              	.L9:
 269 00b8 00000000 		.word	.LANCHOR0
 270 00bc 00000000 		.word	isr_triggerIn
 271 00c0 00000000 		.word	isr_DAC_1_done
 272 00c4 00000000 		.word	isr_DAC_2_done
 273 00c8 00000000 		.word	isr_DAC_3_done
 274 00cc 00000000 		.word	isr_DAC_4_done
 275 00d0 00000000 		.word	isr_ADC_1_done
 276 00d4 00000000 		.word	isr_ADC_2_done
 277              		.cfi_endproc
ARM GAS  C:\Users\User\AppData\Local\Temp\ccoMSFoX.s 			page 21


 278              	.LFE65:
 279              		.size	init_components, .-init_components
 280              		.section	.text.show_default_message,"ax",%progbits
 281              		.align	2
 282              		.global	show_default_message
 283              		.thumb
 284              		.thumb_func
 285              		.type	show_default_message, %function
 286              	show_default_message:
 287              	.LFB66:
 277:main.c        ****     UART_1_PutCRLF(2);
 288              		.loc 1 277 0
 289              		.cfi_startproc
 290              		@ args = 0, pretend = 0, frame = 0
 291              		@ frame_needed = 0, uses_anonymous_args = 0
 292 0000 10B5     		push	{r4, lr}
 293              		.cfi_def_cfa_offset 8
 294              		.cfi_offset 4, -8
 295              		.cfi_offset 14, -4
 296 0002 84B0     		sub	sp, sp, #16
 297              		.cfi_def_cfa_offset 24
 278:main.c        ****     sprintf(sms, "Press '%c' to run the sequence and show the results (ASCII table)", KEY_RUN_AND_S
 298              		.loc 1 278 0
 299 0004 0220     		movs	r0, #2
 300 0006 FFF7FEFF 		bl	UART_1_PutCRLF
 301              	.LVL36:
 279:main.c        ****         UART_1_PutString(sms); UART_1_PutCRLF(1);
 302              		.loc 1 279 0
 303 000a 2E4C     		ldr	r4, .L13
 304 000c 7322     		movs	r2, #115
 305 000e 2E49     		ldr	r1, .L13+4
 306 0010 2046     		mov	r0, r4
 307 0012 FFF7FEFF 		bl	sprintf
 308              	.LVL37:
 280:main.c        ****     sprintf(sms, "Press '%c' to only run the sequence (No ASCII table, currently measured: Channel 
 309              		.loc 1 280 0
 310 0016 2046     		mov	r0, r4
 311 0018 FFF7FEFF 		bl	UART_1_PutString
 312              	.LVL38:
 313 001c 0120     		movs	r0, #1
 314 001e FFF7FEFF 		bl	UART_1_PutCRLF
 315              	.LVL39:
 281:main.c        ****         UART_1_PutString(sms); UART_1_PutCRLF(1);
 316              		.loc 1 281 0
 317 0022 2A4B     		ldr	r3, .L13+8
 318 0024 1B78     		ldrb	r3, [r3]	@ zero_extendqisi2
 319 0026 0133     		adds	r3, r3, #1
 320 0028 7222     		movs	r2, #114
 321 002a 2949     		ldr	r1, .L13+12
 322 002c 2046     		mov	r0, r4
 323 002e FFF7FEFF 		bl	sprintf
 324              	.LVL40:
 282:main.c        ****     sprintf(sms, "Press '%c' to only run the alternating sequence (odd: CH3 is off, even: CH4 is of
 325              		.loc 1 282 0
 326 0032 2046     		mov	r0, r4
 327 0034 FFF7FEFF 		bl	UART_1_PutString
 328              	.LVL41:
ARM GAS  C:\Users\User\AppData\Local\Temp\ccoMSFoX.s 			page 22


 329 0038 0120     		movs	r0, #1
 330 003a FFF7FEFF 		bl	UART_1_PutCRLF
 331              	.LVL42:
 283:main.c        ****         UART_1_PutString(sms); UART_1_PutCRLF(1);
 332              		.loc 1 283 0
 333 003e 7622     		movs	r2, #118
 334 0040 2449     		ldr	r1, .L13+16
 335 0042 2046     		mov	r0, r4
 336 0044 FFF7FEFF 		bl	sprintf
 337              	.LVL43:
 284:main.c        ****     sprintf(sms, "Press '%c' to show last results (ASCII table)", KEY_SEND_ASCII_DAT);
 338              		.loc 1 284 0
 339 0048 2046     		mov	r0, r4
 340 004a FFF7FEFF 		bl	UART_1_PutString
 341              	.LVL44:
 342 004e 0120     		movs	r0, #1
 343 0050 FFF7FEFF 		bl	UART_1_PutCRLF
 344              	.LVL45:
 285:main.c        ****         UART_1_PutString(sms); UART_1_PutCRLF(1);
 345              		.loc 1 285 0
 346 0054 6422     		movs	r2, #100
 347 0056 2049     		ldr	r1, .L13+20
 348 0058 2046     		mov	r0, r4
 349 005a FFF7FEFF 		bl	sprintf
 350              	.LVL46:
 286:main.c        ****     sprintf(sms, "Press '%c' to switch to next channel and run the sequence)", KEY_RUN_NEXT_SHOW);
 351              		.loc 1 286 0
 352 005e 2046     		mov	r0, r4
 353 0060 FFF7FEFF 		bl	UART_1_PutString
 354              	.LVL47:
 355 0064 0120     		movs	r0, #1
 356 0066 FFF7FEFF 		bl	UART_1_PutCRLF
 357              	.LVL48:
 287:main.c        ****         UART_1_PutString(sms); UART_1_PutCRLF(1);
 358              		.loc 1 287 0
 359 006a 6122     		movs	r2, #97
 360 006c 1B49     		ldr	r1, .L13+24
 361 006e 2046     		mov	r0, r4
 362 0070 FFF7FEFF 		bl	sprintf
 363              	.LVL49:
 288:main.c        ****     sprintf(sms, "Press '%c', '%c', '%c' or '%c' for measuring DAC 1..4 or '%c' for measuring GPIO 
 364              		.loc 1 288 0
 365 0074 2046     		mov	r0, r4
 366 0076 FFF7FEFF 		bl	UART_1_PutString
 367              	.LVL50:
 368 007a 0120     		movs	r0, #1
 369 007c FFF7FEFF 		bl	UART_1_PutCRLF
 370              	.LVL51:
 289:main.c        ****         UART_1_PutString(sms); UART_1_PutCRLF(1);
 371              		.loc 1 289 0
 372 0080 3523     		movs	r3, #53
 373 0082 0293     		str	r3, [sp, #8]
 374 0084 3423     		movs	r3, #52
 375 0086 0193     		str	r3, [sp, #4]
 376 0088 3323     		movs	r3, #51
 377 008a 0093     		str	r3, [sp]
 378 008c 3223     		movs	r3, #50
ARM GAS  C:\Users\User\AppData\Local\Temp\ccoMSFoX.s 			page 23


 379 008e 3122     		movs	r2, #49
 380 0090 1349     		ldr	r1, .L13+28
 381 0092 2046     		mov	r0, r4
 382 0094 FFF7FEFF 		bl	sprintf
 383              	.LVL52:
 290:main.c        ****     sprintf(sms, "Press '%c' to reset the device (Software reset)", KEY_RESET);
 384              		.loc 1 290 0
 385 0098 2046     		mov	r0, r4
 386 009a FFF7FEFF 		bl	UART_1_PutString
 387              	.LVL53:
 388 009e 0120     		movs	r0, #1
 389 00a0 FFF7FEFF 		bl	UART_1_PutCRLF
 390              	.LVL54:
 291:main.c        ****         UART_1_PutString(sms); UART_1_PutCRLF(1);
 391              		.loc 1 291 0
 392 00a4 6522     		movs	r2, #101
 393 00a6 0F49     		ldr	r1, .L13+32
 394 00a8 2046     		mov	r0, r4
 395 00aa FFF7FEFF 		bl	sprintf
 396              	.LVL55:
 292:main.c        ****     UART_1_PutCRLF(2);
 397              		.loc 1 292 0
 398 00ae 2046     		mov	r0, r4
 399 00b0 FFF7FEFF 		bl	UART_1_PutString
 400              	.LVL56:
 401 00b4 0120     		movs	r0, #1
 402 00b6 FFF7FEFF 		bl	UART_1_PutCRLF
 403              	.LVL57:
 293:main.c        **** }
 404              		.loc 1 293 0
 405 00ba 0220     		movs	r0, #2
 406 00bc FFF7FEFF 		bl	UART_1_PutCRLF
 407              	.LVL58:
 294:main.c        **** 
 408              		.loc 1 294 0
 409 00c0 04B0     		add	sp, sp, #16
 410              		.cfi_def_cfa_offset 8
 411              		@ sp needed
 412 00c2 10BD     		pop	{r4, pc}
 413              	.L14:
 414              		.align	2
 415              	.L13:
 416 00c4 00000000 		.word	sms
 417 00c8 00000000 		.word	.LC0
 418 00cc 00000000 		.word	.LANCHOR0
 419 00d0 44000000 		.word	.LC1
 420 00d4 9C000000 		.word	.LC2
 421 00d8 F0000000 		.word	.LC3
 422 00dc 20010000 		.word	.LC4
 423 00e0 5C010000 		.word	.LC5
 424 00e4 B4010000 		.word	.LC6
 425              		.cfi_endproc
 426              	.LFE66:
 427              		.size	show_default_message, .-show_default_message
 428              		.section	.text.show_channel_num,"ax",%progbits
 429              		.align	2
 430              		.global	show_channel_num
ARM GAS  C:\Users\User\AppData\Local\Temp\ccoMSFoX.s 			page 24


 431              		.thumb
 432              		.thumb_func
 433              		.type	show_channel_num, %function
 434              	show_channel_num:
 435              	.LFB67:
 297:main.c        ****     sprintf(sms,"Currently selected channel for data monitoring: %d", current_chan+1 );
 436              		.loc 1 297 0
 437              		.cfi_startproc
 438              		@ args = 0, pretend = 0, frame = 0
 439              		@ frame_needed = 0, uses_anonymous_args = 0
 440 0000 38B5     		push	{r3, r4, r5, lr}
 441              		.cfi_def_cfa_offset 16
 442              		.cfi_offset 3, -16
 443              		.cfi_offset 4, -12
 444              		.cfi_offset 5, -8
 445              		.cfi_offset 14, -4
 298:main.c        ****         UART_1_PutString(sms); UART_1_PutCRLF(1);
 446              		.loc 1 298 0
 447 0002 0D4D     		ldr	r5, .L17
 448 0004 2A78     		ldrb	r2, [r5]	@ zero_extendqisi2
 449 0006 0D4C     		ldr	r4, .L17+4
 450 0008 0132     		adds	r2, r2, #1
 451 000a 0D49     		ldr	r1, .L17+8
 452 000c 2046     		mov	r0, r4
 453 000e FFF7FEFF 		bl	sprintf
 454              	.LVL59:
 299:main.c        ****     sprintf(sms,"Count of sequence runs after reset: %d", count_of_runs);
 455              		.loc 1 299 0
 456 0012 2046     		mov	r0, r4
 457 0014 FFF7FEFF 		bl	UART_1_PutString
 458              	.LVL60:
 459 0018 0120     		movs	r0, #1
 460 001a FFF7FEFF 		bl	UART_1_PutCRLF
 461              	.LVL61:
 300:main.c        ****         UART_1_PutString(sms); UART_1_PutCRLF(1);
 462              		.loc 1 300 0
 463 001e 6A78     		ldrb	r2, [r5, #1]	@ zero_extendqisi2
 464 0020 0849     		ldr	r1, .L17+12
 465 0022 2046     		mov	r0, r4
 466 0024 FFF7FEFF 		bl	sprintf
 467              	.LVL62:
 301:main.c        **** }
 468              		.loc 1 301 0
 469 0028 2046     		mov	r0, r4
 470 002a FFF7FEFF 		bl	UART_1_PutString
 471              	.LVL63:
 472 002e 0120     		movs	r0, #1
 473 0030 FFF7FEFF 		bl	UART_1_PutCRLF
 474              	.LVL64:
 475 0034 38BD     		pop	{r3, r4, r5, pc}
 476              	.L18:
 477 0036 00BF     		.align	2
 478              	.L17:
 479 0038 00000000 		.word	.LANCHOR0
 480 003c 00000000 		.word	sms
 481 0040 E4010000 		.word	.LC7
 482 0044 18020000 		.word	.LC8
ARM GAS  C:\Users\User\AppData\Local\Temp\ccoMSFoX.s 			page 25


 483              		.cfi_endproc
 484              	.LFE67:
 485              		.size	show_channel_num, .-show_channel_num
 486              		.section	.text.display_results,"ax",%progbits
 487              		.align	2
 488              		.global	display_results
 489              		.thumb
 490              		.thumb_func
 491              		.type	display_results, %function
 492              	display_results:
 493              	.LFB68:
 305:main.c        ****     for(int i=0;i<NSAMPLES_ADC;i++)
 494              		.loc 1 305 0
 495              		.cfi_startproc
 496              		@ args = 0, pretend = 0, frame = 0
 497              		@ frame_needed = 0, uses_anonymous_args = 0
 498 0000 38B5     		push	{r3, r4, r5, lr}
 499              		.cfi_def_cfa_offset 16
 500              		.cfi_offset 3, -16
 501              		.cfi_offset 4, -12
 502              		.cfi_offset 5, -8
 503              		.cfi_offset 14, -4
 504              	.LVL65:
 505              	.LBB2:
 306:main.c        ****     {
 506              		.loc 1 306 0
 507 0002 0024     		movs	r4, #0
 508 0004 2FE0     		b	.L20
 509              	.LVL66:
 510              	.L23:
 308:main.c        ****             UART_1_PutString(sms);
 511              		.loc 1 308 0
 512 0006 1C4D     		ldr	r5, .L25
 513 0008 1C4B     		ldr	r3, .L25+4
 514 000a 33F81430 		ldrh	r3, [r3, r4, lsl #1]
 515 000e 2246     		mov	r2, r4
 516 0010 1B49     		ldr	r1, .L25+8
 517 0012 2846     		mov	r0, r5
 518 0014 FFF7FEFF 		bl	sprintf
 519              	.LVL67:
 309:main.c        ****         UART_1_PutCRLF(1);
 520              		.loc 1 309 0
 521 0018 2846     		mov	r0, r5
 522 001a FFF7FEFF 		bl	UART_1_PutString
 523              	.LVL68:
 310:main.c        ****         sprintf(sms,"ADC_2 Value %d,5 us:\t  %d", i, signal_adc_2[i]);
 524              		.loc 1 310 0
 525 001e 0120     		movs	r0, #1
 526 0020 FFF7FEFF 		bl	UART_1_PutCRLF
 527              	.LVL69:
 311:main.c        ****             UART_1_PutString(sms);
 528              		.loc 1 311 0
 529 0024 174B     		ldr	r3, .L25+12
 530 0026 33F81430 		ldrh	r3, [r3, r4, lsl #1]
 531 002a 2246     		mov	r2, r4
 532 002c 1649     		ldr	r1, .L25+16
 533 002e 2846     		mov	r0, r5
ARM GAS  C:\Users\User\AppData\Local\Temp\ccoMSFoX.s 			page 26


 534 0030 FFF7FEFF 		bl	sprintf
 535              	.LVL70:
 312:main.c        ****         UART_1_PutCRLF(1);
 536              		.loc 1 312 0
 537 0034 2846     		mov	r0, r5
 538 0036 FFF7FEFF 		bl	UART_1_PutString
 539              	.LVL71:
 313:main.c        ****         
 540              		.loc 1 313 0
 541 003a 0120     		movs	r0, #1
 542 003c FFF7FEFF 		bl	UART_1_PutCRLF
 543              	.LVL72:
 316:main.c        ****         {
 544              		.loc 1 316 0
 545 0040 FFF7FEFF 		bl	UART_1_GetRxBufferSize
 546              	.LVL73:
 547 0044 70B1     		cbz	r0, .L21
 318:main.c        ****            UART_1_PutCRLF(2);
 548              		.loc 1 318 0
 549 0046 FFF7FEFF 		bl	UART_1_ClearRxBuffer
 550              	.LVL74:
 319:main.c        ****            UART_1_PutString("Data listing aborted...\n\n");
 551              		.loc 1 319 0
 552 004a 0220     		movs	r0, #2
 553 004c FFF7FEFF 		bl	UART_1_PutCRLF
 554              	.LVL75:
 320:main.c        ****            UART_1_PutCRLF(1);
 555              		.loc 1 320 0
 556 0050 0E48     		ldr	r0, .L25+20
 557 0052 FFF7FEFF 		bl	UART_1_PutString
 558              	.LVL76:
 321:main.c        ****            CyDelay(10);
 559              		.loc 1 321 0
 560 0056 0120     		movs	r0, #1
 561 0058 FFF7FEFF 		bl	UART_1_PutCRLF
 562              	.LVL77:
 322:main.c        ****            break;
 563              		.loc 1 322 0
 564 005c 0A20     		movs	r0, #10
 565 005e FFF7FEFF 		bl	CyDelay
 566              	.LVL78:
 323:main.c        ****         }
 567              		.loc 1 323 0
 568 0062 04E0     		b	.L22
 569              	.L21:
 306:main.c        ****     {
 570              		.loc 1 306 0 discriminator 2
 571 0064 0134     		adds	r4, r4, #1
 572              	.LVL79:
 573              	.L20:
 306:main.c        ****     {
 574              		.loc 1 306 0 is_stmt 0 discriminator 1
 575 0066 43F69723 		movw	r3, #14999
 576 006a 9C42     		cmp	r4, r3
 577 006c CBDD     		ble	.L23
 578              	.L22:
 579              	.LBE2:
ARM GAS  C:\Users\User\AppData\Local\Temp\ccoMSFoX.s 			page 27


 327:main.c        ****     
 580              		.loc 1 327 0 is_stmt 1
 581 006e FFF7FEFF 		bl	show_channel_num
 582              	.LVL80:
 329:main.c        **** }
 583              		.loc 1 329 0
 584 0072 FFF7FEFF 		bl	show_default_message
 585              	.LVL81:
 586 0076 38BD     		pop	{r3, r4, r5, pc}
 587              	.LVL82:
 588              	.L26:
 589              		.align	2
 590              	.L25:
 591 0078 00000000 		.word	sms
 592 007c 00000000 		.word	signal_adc_1
 593 0080 40020000 		.word	.LC9
 594 0084 00000000 		.word	signal_adc_2
 595 0088 5C020000 		.word	.LC10
 596 008c 78020000 		.word	.LC11
 597              		.cfi_endproc
 598              	.LFE68:
 599              		.size	display_results, .-display_results
 600              		.global	__aeabi_i2f
 601              		.global	__aeabi_f2d
 602              		.global	__aeabi_dmul
 603              		.global	__aeabi_fmul
 604              		.global	__aeabi_fadd
 605              		.global	__aeabi_dadd
 606              		.global	__aeabi_d2uiz
 607              		.global	__aeabi_fsub
 608              		.global	__aeabi_fdiv
 609              		.section	.text.generate_sequence,"ax",%progbits
 610              		.align	2
 611              		.global	generate_sequence
 612              		.thumb
 613              		.thumb_func
 614              		.type	generate_sequence, %function
 615              	generate_sequence:
 616              	.LFB70:
 355:main.c        ****     // Generate waveforms for each channel and store them in flash memory
 617              		.loc 1 355 0
 618              		.cfi_startproc
 619              		@ args = 0, pretend = 0, frame = 0
 620              		@ frame_needed = 0, uses_anonymous_args = 0
 621 0000 2DE9F84F 		push	{r3, r4, r5, r6, r7, r8, r9, r10, fp, lr}
 622              		.cfi_def_cfa_offset 40
 623              		.cfi_offset 3, -40
 624              		.cfi_offset 4, -36
 625              		.cfi_offset 5, -32
 626              		.cfi_offset 6, -28
 627              		.cfi_offset 7, -24
 628              		.cfi_offset 8, -20
 629              		.cfi_offset 9, -16
 630              		.cfi_offset 10, -12
 631              		.cfi_offset 11, -8
 632              		.cfi_offset 14, -4
 358:main.c        ****     UART_1_PutCRLF(1);
ARM GAS  C:\Users\User\AppData\Local\Temp\ccoMSFoX.s 			page 28


 633              		.loc 1 358 0
 634 0004 A248     		ldr	r0, .L39+8
 635 0006 FFF7FEFF 		bl	UART_1_PutString
 636              	.LVL83:
 359:main.c        **** 
 637              		.loc 1 359 0
 638 000a 0120     		movs	r0, #1
 639 000c FFF7FEFF 		bl	UART_1_PutCRLF
 640              	.LVL84:
 641              	.LBB3:
 362:main.c        ****     {
 642              		.loc 1 362 0
 643 0010 0024     		movs	r4, #0
 644 0012 23E1     		b	.L28
 645              	.LVL85:
 646              	.L29:
 647              	.LBB4:
 368:main.c        ****             ((uint8*)signal_adc_1)[time_i]\
 648              		.loc 1 368 0 discriminator 3
 649 0014 0135     		adds	r5, r5, #1
 650              	.LVL86:
 370:main.c        ****                     * sin( (float) twMPI->om[channel_i] * (float)time_i + (float)twMPI->phi[channel
 651              		.loc 1 370 0 discriminator 3
 652 0016 2846     		mov	r0, r5
 653 0018 FFF7FEFF 		bl	__aeabi_i2f
 654              	.LVL87:
 655 001c 8246     		mov	r10, r0
 656 001e FFF7FEFF 		bl	__aeabi_f2d
 657              	.LVL88:
 658 0022 99A3     		adr	r3, .L39
 659 0024 D3E90023 		ldrd	r2, [r3]
 660 0028 FFF7FEFF 		bl	__aeabi_dmul
 661              	.LVL89:
 662 002c 8046     		mov	r8, r0
 663 002e 8946     		mov	r9, r1
 664 0030 984B     		ldr	r3, .L39+12
 665 0032 1E68     		ldr	r6, [r3]
 666 0034 04F11003 		add	r3, r4, #16
 667 0038 56F82300 		ldr	r0, [r6, r3, lsl #2]	@ float
 668 003c FFF7FEFF 		bl	__aeabi_f2d
 669              	.LVL90:
 670 0040 4246     		mov	r2, r8
 671 0042 4B46     		mov	r3, r9
 672 0044 FFF7FEFF 		bl	__aeabi_dmul
 673              	.LVL91:
 674 0048 8046     		mov	r8, r0
 675 004a 8946     		mov	r9, r1
 371:main.c        ****                     * sin( (float) twMPI->om_mod[channel_i] * (float)time_i + (float)twMPI->phi_mod
 676              		.loc 1 371 0 discriminator 3
 677 004c 56F82410 		ldr	r1, [r6, r4, lsl #2]	@ float
 678 0050 5046     		mov	r0, r10
 679 0052 FFF7FEFF 		bl	__aeabi_fmul
 680              	.LVL92:
 681 0056 04F10803 		add	r3, r4, #8
 682 005a 56F82310 		ldr	r1, [r6, r3, lsl #2]	@ float
 683 005e FFF7FEFF 		bl	__aeabi_fadd
 684              	.LVL93:
ARM GAS  C:\Users\User\AppData\Local\Temp\ccoMSFoX.s 			page 29


 685 0062 FFF7FEFF 		bl	__aeabi_f2d
 686              	.LVL94:
 687 0066 FFF7FEFF 		bl	sin
 688              	.LVL95:
 689 006a 0246     		mov	r2, r0
 690 006c 0B46     		mov	r3, r1
 691 006e 4046     		mov	r0, r8
 692 0070 4946     		mov	r1, r9
 693 0072 FFF7FEFF 		bl	__aeabi_dmul
 694              	.LVL96:
 695 0076 8046     		mov	r8, r0
 696 0078 8946     		mov	r9, r1
 372:main.c        ****                     + (float)twMPI->off[channel_i]);
 697              		.loc 1 372 0 discriminator 3
 698 007a 231D     		adds	r3, r4, #4
 699 007c 56F82310 		ldr	r1, [r6, r3, lsl #2]	@ float
 700 0080 5046     		mov	r0, r10
 701 0082 FFF7FEFF 		bl	__aeabi_fmul
 702              	.LVL97:
 703 0086 04F10C03 		add	r3, r4, #12
 704 008a 56F82310 		ldr	r1, [r6, r3, lsl #2]	@ float
 705 008e FFF7FEFF 		bl	__aeabi_fadd
 706              	.LVL98:
 707 0092 FFF7FEFF 		bl	__aeabi_f2d
 708              	.LVL99:
 709 0096 FFF7FEFF 		bl	sin
 710              	.LVL100:
 711 009a 0246     		mov	r2, r0
 712 009c 0B46     		mov	r3, r1
 713 009e 4046     		mov	r0, r8
 714 00a0 4946     		mov	r1, r9
 715 00a2 FFF7FEFF 		bl	__aeabi_dmul
 716              	.LVL101:
 717 00a6 8046     		mov	r8, r0
 718 00a8 8946     		mov	r9, r1
 373:main.c        ****         }   
 719              		.loc 1 373 0 discriminator 3
 720 00aa 04F11403 		add	r3, r4, #20
 721 00ae 56F82300 		ldr	r0, [r6, r3, lsl #2]	@ float
 722 00b2 FFF7FEFF 		bl	__aeabi_f2d
 723              	.LVL102:
 724 00b6 4246     		mov	r2, r8
 725 00b8 4B46     		mov	r3, r9
 726 00ba FFF7FEFF 		bl	__aeabi_dadd
 727              	.LVL103:
 370:main.c        ****                     * sin( (float) twMPI->om[channel_i] * (float)time_i + (float)twMPI->phi[channel
 728              		.loc 1 370 0 discriminator 3
 729 00be FFF7FEFF 		bl	__aeabi_d2uiz
 730              	.LVL104:
 731 00c2 754B     		ldr	r3, .L39+16
 732 00c4 5855     		strb	r0, [r3, r5]
 366:main.c        ****         {
 733              		.loc 1 366 0 discriminator 3
 734 00c6 0137     		adds	r7, r7, #1
 735              	.LVL105:
 736 00c8 02E0     		b	.L34
 737              	.LVL106:
ARM GAS  C:\Users\User\AppData\Local\Temp\ccoMSFoX.s 			page 30


 738              	.L37:
 739              	.LBE4:
 740 00ca 0027     		movs	r7, #0
 741 00cc 4FF0FF35 		mov	r5, #-1
 742              	.L34:
 743              	.LVL107:
 744              	.LBB5:
 366:main.c        ****         {
 745              		.loc 1 366 0 is_stmt 0 discriminator 1
 746 00d0 40F6A563 		movw	r3, #3749
 747 00d4 9F42     		cmp	r7, r3
 748 00d6 9DDD     		ble	.L29
 749 00d8 0027     		movs	r7, #0
 750              	.LVL108:
 751 00da 4CE0     		b	.L30
 752              	.LVL109:
 753              	.L31:
 754              	.LBE5:
 755              	.LBB6:
 379:main.c        ****             ((uint8*)signal_adc_1)[time_i]\
 756              		.loc 1 379 0 is_stmt 1 discriminator 3
 757 00dc 0135     		adds	r5, r5, #1
 758              	.LVL110:
 381:main.c        ****                     * sin( (float) twMPI->om[channel_i] * ((float)time_i) + (float)twMPI->phi[chann
 759              		.loc 1 381 0 discriminator 3
 760 00de 6D4B     		ldr	r3, .L39+12
 761 00e0 1E68     		ldr	r6, [r3]
 762 00e2 04F11003 		add	r3, r4, #16
 763 00e6 56F823B0 		ldr	fp, [r6, r3, lsl #2]	@ float
 382:main.c        ****                     * sin( (float) twMPI->om_mod[channel_i] * ((float)time_i) + (float)twMPI->phi_m
 764              		.loc 1 382 0 discriminator 3
 765 00ea 56F82480 		ldr	r8, [r6, r4, lsl #2]	@ float
 766 00ee 2846     		mov	r0, r5
 767 00f0 FFF7FEFF 		bl	__aeabi_i2f
 768              	.LVL111:
 769 00f4 8246     		mov	r10, r0
 770 00f6 0146     		mov	r1, r0
 771 00f8 4046     		mov	r0, r8
 772 00fa FFF7FEFF 		bl	__aeabi_fmul
 773              	.LVL112:
 774 00fe 04F10803 		add	r3, r4, #8
 775 0102 56F82310 		ldr	r1, [r6, r3, lsl #2]	@ float
 776 0106 FFF7FEFF 		bl	__aeabi_fadd
 777              	.LVL113:
 778 010a FFF7FEFF 		bl	__aeabi_f2d
 779              	.LVL114:
 780 010e FFF7FEFF 		bl	sin
 781              	.LVL115:
 782 0112 8046     		mov	r8, r0
 783 0114 8946     		mov	r9, r1
 784 0116 5846     		mov	r0, fp
 785 0118 FFF7FEFF 		bl	__aeabi_f2d
 786              	.LVL116:
 787 011c 4246     		mov	r2, r8
 788 011e 4B46     		mov	r3, r9
 789 0120 FFF7FEFF 		bl	__aeabi_dmul
 790              	.LVL117:
ARM GAS  C:\Users\User\AppData\Local\Temp\ccoMSFoX.s 			page 31


 791 0124 8046     		mov	r8, r0
 792 0126 8946     		mov	r9, r1
 383:main.c        ****                     + (float)twMPI->off[channel_i]);
 793              		.loc 1 383 0 discriminator 3
 794 0128 231D     		adds	r3, r4, #4
 795 012a 56F82310 		ldr	r1, [r6, r3, lsl #2]	@ float
 796 012e 5046     		mov	r0, r10
 797 0130 FFF7FEFF 		bl	__aeabi_fmul
 798              	.LVL118:
 799 0134 04F10C03 		add	r3, r4, #12
 800 0138 56F82310 		ldr	r1, [r6, r3, lsl #2]	@ float
 801 013c FFF7FEFF 		bl	__aeabi_fadd
 802              	.LVL119:
 803 0140 FFF7FEFF 		bl	__aeabi_f2d
 804              	.LVL120:
 805 0144 FFF7FEFF 		bl	sin
 806              	.LVL121:
 807 0148 0246     		mov	r2, r0
 808 014a 0B46     		mov	r3, r1
 809 014c 4046     		mov	r0, r8
 810 014e 4946     		mov	r1, r9
 811 0150 FFF7FEFF 		bl	__aeabi_dmul
 812              	.LVL122:
 813 0154 8046     		mov	r8, r0
 814 0156 8946     		mov	r9, r1
 384:main.c        ****         }   
 815              		.loc 1 384 0 discriminator 3
 816 0158 04F11403 		add	r3, r4, #20
 817 015c 56F82300 		ldr	r0, [r6, r3, lsl #2]	@ float
 818 0160 FFF7FEFF 		bl	__aeabi_f2d
 819              	.LVL123:
 820 0164 4246     		mov	r2, r8
 821 0166 4B46     		mov	r3, r9
 822 0168 FFF7FEFF 		bl	__aeabi_dadd
 823              	.LVL124:
 381:main.c        ****                     * sin( (float) twMPI->om[channel_i] * ((float)time_i) + (float)twMPI->phi[chann
 824              		.loc 1 381 0 discriminator 3
 825 016c FFF7FEFF 		bl	__aeabi_d2uiz
 826              	.LVL125:
 827 0170 494B     		ldr	r3, .L39+16
 828 0172 5855     		strb	r0, [r3, r5]
 377:main.c        ****         {
 829              		.loc 1 377 0 discriminator 3
 830 0174 0137     		adds	r7, r7, #1
 831              	.LVL126:
 832              	.L30:
 377:main.c        ****         {
 833              		.loc 1 377 0 is_stmt 0 discriminator 1
 834 0176 40F6A563 		movw	r3, #3749
 835 017a 9F42     		cmp	r7, r3
 836 017c AEDD     		ble	.L31
 837 017e 0027     		movs	r7, #0
 838              	.LVL127:
 839 0180 5AE0     		b	.L32
 840              	.LVL128:
 841              	.L33:
 842              	.LBE6:
ARM GAS  C:\Users\User\AppData\Local\Temp\ccoMSFoX.s 			page 32


 843              	.LBB7:
 390:main.c        ****             ((uint8*)signal_adc_1)[time_i]\
 844              		.loc 1 390 0 is_stmt 1 discriminator 3
 845 0182 0135     		adds	r5, r5, #1
 846              	.LVL129:
 392:main.c        ****                     * sin( (float) twMPI->om[channel_i] * ((float)time_i) + (float)twMPI->phi[chann
 847              		.loc 1 392 0 discriminator 3
 848 0184 434B     		ldr	r3, .L39+12
 849 0186 1E68     		ldr	r6, [r3]
 850 0188 04F11003 		add	r3, r4, #16
 851 018c 56F82380 		ldr	r8, [r6, r3, lsl #2]	@ float
 852 0190 2846     		mov	r0, r5
 853 0192 FFF7FEFF 		bl	__aeabi_i2f
 854              	.LVL130:
 855 0196 8246     		mov	r10, r0
 856 0198 4049     		ldr	r1, .L39+20
 857 019a FFF7FEFF 		bl	__aeabi_fsub
 858              	.LVL131:
 859 019e 0146     		mov	r1, r0
 860 01a0 3F48     		ldr	r0, .L39+24
 861 01a2 FFF7FEFF 		bl	__aeabi_fsub
 862              	.LVL132:
 863 01a6 3E49     		ldr	r1, .L39+24
 864 01a8 FFF7FEFF 		bl	__aeabi_fdiv
 865              	.LVL133:
 866 01ac 0146     		mov	r1, r0
 867 01ae 4046     		mov	r0, r8
 868 01b0 FFF7FEFF 		bl	__aeabi_fmul
 869              	.LVL134:
 870 01b4 8346     		mov	fp, r0
 393:main.c        ****                     * sin( (float) twMPI->om_mod[channel_i] * ((float)time_i) + (float)twMPI->phi_m
 871              		.loc 1 393 0 discriminator 3
 872 01b6 56F82410 		ldr	r1, [r6, r4, lsl #2]	@ float
 873 01ba 5046     		mov	r0, r10
 874 01bc FFF7FEFF 		bl	__aeabi_fmul
 875              	.LVL135:
 876 01c0 04F10803 		add	r3, r4, #8
 877 01c4 56F82310 		ldr	r1, [r6, r3, lsl #2]	@ float
 878 01c8 FFF7FEFF 		bl	__aeabi_fadd
 879              	.LVL136:
 880 01cc FFF7FEFF 		bl	__aeabi_f2d
 881              	.LVL137:
 882 01d0 FFF7FEFF 		bl	sin
 883              	.LVL138:
 884 01d4 8046     		mov	r8, r0
 885 01d6 8946     		mov	r9, r1
 886 01d8 5846     		mov	r0, fp
 887 01da FFF7FEFF 		bl	__aeabi_f2d
 888              	.LVL139:
 889 01de 4246     		mov	r2, r8
 890 01e0 4B46     		mov	r3, r9
 891 01e2 FFF7FEFF 		bl	__aeabi_dmul
 892              	.LVL140:
 893 01e6 8046     		mov	r8, r0
 894 01e8 8946     		mov	r9, r1
 394:main.c        ****                     + (float)twMPI->off[channel_i]);
 895              		.loc 1 394 0 discriminator 3
ARM GAS  C:\Users\User\AppData\Local\Temp\ccoMSFoX.s 			page 33


 896 01ea 231D     		adds	r3, r4, #4
 897 01ec 56F82310 		ldr	r1, [r6, r3, lsl #2]	@ float
 898 01f0 5046     		mov	r0, r10
 899 01f2 FFF7FEFF 		bl	__aeabi_fmul
 900              	.LVL141:
 901 01f6 04F10C03 		add	r3, r4, #12
 902 01fa 56F82310 		ldr	r1, [r6, r3, lsl #2]	@ float
 903 01fe FFF7FEFF 		bl	__aeabi_fadd
 904              	.LVL142:
 905 0202 FFF7FEFF 		bl	__aeabi_f2d
 906              	.LVL143:
 907 0206 FFF7FEFF 		bl	sin
 908              	.LVL144:
 909 020a 0246     		mov	r2, r0
 910 020c 0B46     		mov	r3, r1
 911 020e 4046     		mov	r0, r8
 912 0210 4946     		mov	r1, r9
 913 0212 FFF7FEFF 		bl	__aeabi_dmul
 914              	.LVL145:
 915 0216 8046     		mov	r8, r0
 916 0218 8946     		mov	r9, r1
 395:main.c        ****         }   
 917              		.loc 1 395 0 discriminator 3
 918 021a 04F11403 		add	r3, r4, #20
 919 021e 56F82300 		ldr	r0, [r6, r3, lsl #2]	@ float
 920 0222 FFF7FEFF 		bl	__aeabi_f2d
 921              	.LVL146:
 922 0226 4246     		mov	r2, r8
 923 0228 4B46     		mov	r3, r9
 924 022a FFF7FEFF 		bl	__aeabi_dadd
 925              	.LVL147:
 392:main.c        ****                     * sin( (float) twMPI->om[channel_i] * ((float)time_i) + (float)twMPI->phi[chann
 926              		.loc 1 392 0 discriminator 3
 927 022e FFF7FEFF 		bl	__aeabi_d2uiz
 928              	.LVL148:
 929 0232 194B     		ldr	r3, .L39+16
 930 0234 5855     		strb	r0, [r3, r5]
 388:main.c        ****         {
 931              		.loc 1 388 0 discriminator 3
 932 0236 0137     		adds	r7, r7, #1
 933              	.LVL149:
 934              	.L32:
 388:main.c        ****         {
 935              		.loc 1 388 0 is_stmt 0 discriminator 1
 936 0238 40F6A563 		movw	r3, #3749
 937 023c 9F42     		cmp	r7, r3
 938 023e A0DD     		ble	.L33
 939              	.LBE7:
 397:main.c        ****         FLASH_Write( (uint8*)signal_adc_1, twMPI->flash_ptr[channel_i], 3*NSAMPLES_DAC); 
 940              		.loc 1 397 0 is_stmt 1 discriminator 2
 941 0240 1548     		ldr	r0, .L39+16
 942 0242 5A23     		movs	r3, #90
 943 0244 0370     		strb	r3, [r0]
 398:main.c        ****     }
 944              		.loc 1 398 0 discriminator 2
 945 0246 134B     		ldr	r3, .L39+12
 946 0248 1B68     		ldr	r3, [r3]
ARM GAS  C:\Users\User\AppData\Local\Temp\ccoMSFoX.s 			page 34


 947 024a 04F11801 		add	r1, r4, #24
 948 024e 42F6F232 		movw	r2, #11250
 949 0252 53F82110 		ldr	r1, [r3, r1, lsl #2]
 950 0256 FFF7FEFF 		bl	FLASH_Write
 951              	.LVL150:
 362:main.c        ****     {
 952              		.loc 1 362 0 discriminator 2
 953 025a 0134     		adds	r4, r4, #1
 954              	.LVL151:
 955              	.L28:
 362:main.c        ****     {
 956              		.loc 1 362 0 is_stmt 0 discriminator 1
 957 025c 032C     		cmp	r4, #3
 958 025e 7FF734AF 		ble	.L37
 959 0262 0023     		movs	r3, #0
 960 0264 03E0     		b	.L35
 961              	.LVL152:
 962              	.L36:
 963              	.LBE3:
 964              	.LBB8:
 403:main.c        ****     } 
 965              		.loc 1 403 0 is_stmt 1 discriminator 3
 966 0266 0021     		movs	r1, #0
 967 0268 0B4A     		ldr	r2, .L39+16
 968 026a 9954     		strb	r1, [r3, r2]
 401:main.c        ****     {
 969              		.loc 1 401 0 discriminator 3
 970 026c 0133     		adds	r3, r3, #1
 971              	.LVL153:
 972              	.L35:
 401:main.c        ****     {
 973              		.loc 1 401 0 is_stmt 0 discriminator 1
 974 026e 42F6F132 		movw	r2, #11249
 975 0272 9342     		cmp	r3, r2
 976 0274 F7DD     		ble	.L36
 977              	.LBE8:
 405:main.c        ****     UART_1_PutCRLF(1);
 978              		.loc 1 405 0 is_stmt 1
 979 0276 0B48     		ldr	r0, .L39+28
 980 0278 FFF7FEFF 		bl	UART_1_PutString
 981              	.LVL154:
 406:main.c        **** 
 982              		.loc 1 406 0
 983 027c 0120     		movs	r0, #1
 984 027e FFF7FEFF 		bl	UART_1_PutCRLF
 985              	.LVL155:
 986 0282 BDE8F88F 		pop	{r3, r4, r5, r6, r7, r8, r9, r10, fp, pc}
 987              	.LVL156:
 988              	.L40:
 989 0286 00BF     		.align	3
 990              	.L39:
 991 0288 1E82BD9C 		.word	-1665301986
 992 028c EC79313F 		.word	1060207084
 993 0290 94020000 		.word	.LC12
 994 0294 00000000 		.word	.LANCHOR1
 995 0298 00000000 		.word	signal_adc_1
 996 029c 0060EA45 		.word	1172987904
ARM GAS  C:\Users\User\AppData\Local\Temp\ccoMSFoX.s 			page 35


 997 02a0 00606A45 		.word	1164599296
 998 02a4 AC020000 		.word	.LC13
 999              		.cfi_endproc
 1000              	.LFE70:
 1001              		.size	generate_sequence, .-generate_sequence
 1002              		.section	.text.set_sequence_params,"ax",%progbits
 1003              		.align	2
 1004              		.global	set_sequence_params
 1005              		.thumb
 1006              		.thumb_func
 1007              		.type	set_sequence_params, %function
 1008              	set_sequence_params:
 1009              	.LFB69:
 333:main.c        ****     // clear token
 1010              		.loc 1 333 0
 1011              		.cfi_startproc
 1012              		@ args = 0, pretend = 0, frame = 0
 1013              		@ frame_needed = 0, uses_anonymous_args = 0
 1014 0000 10B5     		push	{r4, lr}
 1015              		.cfi_def_cfa_offset 8
 1016              		.cfi_offset 4, -8
 1017              		.cfi_offset 14, -4
 335:main.c        ****     puttyIn[1]=0;
 1018              		.loc 1 335 0
 1019 0002 0A4B     		ldr	r3, .L45
 1020 0004 0024     		movs	r4, #0
 1021 0006 1C70     		strb	r4, [r3]
 336:main.c        ****     puttyIn[2]=0;
 1022              		.loc 1 336 0
 1023 0008 5C70     		strb	r4, [r3, #1]
 337:main.c        ****     
 1024              		.loc 1 337 0
 1025 000a 9C70     		strb	r4, [r3, #2]
 339:main.c        ****     
 1026              		.loc 1 339 0
 1027 000c 0120     		movs	r0, #1
 1028 000e FFF7FEFF 		bl	LED_Write
 1029              	.LVL157:
 1030              	.LBB9:
 341:main.c        ****     {
 1031              		.loc 1 341 0
 1032 0012 2346     		mov	r3, r4
 1033 0014 04E0     		b	.L42
 1034              	.LVL158:
 1035              	.L43:
 348:main.c        ****         //off
 1036              		.loc 1 348 0 discriminator 3
 1037 0016 064A     		ldr	r2, .L45+4
 1038 0018 1268     		ldr	r2, [r2]
 1039 001a 0649     		ldr	r1, .L45+8
 1040 001c 1164     		str	r1, [r2, #64]	@ float
 341:main.c        ****     {
 1041              		.loc 1 341 0 discriminator 3
 1042 001e 0133     		adds	r3, r3, #1
 1043              	.LVL159:
 1044              	.L42:
 341:main.c        ****     {
ARM GAS  C:\Users\User\AppData\Local\Temp\ccoMSFoX.s 			page 36


 1045              		.loc 1 341 0 is_stmt 0 discriminator 1
 1046 0020 032B     		cmp	r3, #3
 1047 0022 F8DD     		ble	.L43
 1048              	.LBE9:
 351:main.c        **** }
 1049              		.loc 1 351 0 is_stmt 1
 1050 0024 FFF7FEFF 		bl	generate_sequence
 1051              	.LVL160:
 1052 0028 10BD     		pop	{r4, pc}
 1053              	.L46:
 1054 002a 00BF     		.align	2
 1055              	.L45:
 1056 002c 00000000 		.word	puttyIn
 1057 0030 00000000 		.word	.LANCHOR1
 1058 0034 00004842 		.word	1112014848
 1059              		.cfi_endproc
 1060              	.LFE69:
 1061              		.size	set_sequence_params, .-set_sequence_params
 1062              		.section	.text.dma_dac_1_init,"ax",%progbits
 1063              		.align	2
 1064              		.global	dma_dac_1_init
 1065              		.thumb
 1066              		.thumb_func
 1067              		.type	dma_dac_1_init, %function
 1068              	dma_dac_1_init:
 1069              	.LFB73:
 547:main.c        ****     /* DMA Configuration for DMA_DAC_1 */
 1070              		.loc 1 547 0
 1071              		.cfi_startproc
 1072              		@ args = 0, pretend = 0, frame = 0
 1073              		@ frame_needed = 0, uses_anonymous_args = 0
 1074 0000 38B5     		push	{r3, r4, r5, lr}
 1075              		.cfi_def_cfa_offset 16
 1076              		.cfi_offset 3, -16
 1077              		.cfi_offset 4, -12
 1078              		.cfi_offset 5, -8
 1079              		.cfi_offset 14, -4
 549:main.c        ****     {
 1080              		.loc 1 549 0
 1081 0002 254B     		ldr	r3, .L50
 1082 0004 5B78     		ldrb	r3, [r3, #1]	@ zero_extendqisi2
 1083 0006 93B9     		cbnz	r3, .L48
 551:main.c        ****             HI16(DMA_DAC_1_SRC_BASE), HI16(DMA_DAC_1_DST_BASE));
 1084              		.loc 1 551 0
 1085 0008 4FF48043 		mov	r3, #16384
 1086 000c 0022     		movs	r2, #0
 1087 000e 0121     		movs	r1, #1
 1088 0010 0846     		mov	r0, r1
 1089 0012 FFF7FEFF 		bl	DMA_DAC_1_DmaInitialize
 1090              	.LVL161:
 1091 0016 214B     		ldr	r3, .L50+4
 1092 0018 1870     		strb	r0, [r3]
 553:main.c        ****         DMA_DAC_1_TD[1] = CyDmaTdAllocate();
 1093              		.loc 1 553 0
 1094 001a FFF7FEFF 		bl	CyDmaTdAllocate
 1095              	.LVL162:
 1096 001e 204C     		ldr	r4, .L50+8
ARM GAS  C:\Users\User\AppData\Local\Temp\ccoMSFoX.s 			page 37


 1097 0020 2070     		strb	r0, [r4]
 554:main.c        ****         DMA_DAC_1_TD[2] = CyDmaTdAllocate();
 1098              		.loc 1 554 0
 1099 0022 FFF7FEFF 		bl	CyDmaTdAllocate
 1100              	.LVL163:
 1101 0026 6070     		strb	r0, [r4, #1]
 555:main.c        ****     }
 1102              		.loc 1 555 0
 1103 0028 FFF7FEFF 		bl	CyDmaTdAllocate
 1104              	.LVL164:
 1105 002c A070     		strb	r0, [r4, #2]
 1106              	.L48:
 557:main.c        ****     CyDmaTdSetConfiguration(DMA_DAC_1_TD[1], NSAMPLES_DAC, DMA_DAC_1_TD[2], CY_DMA_TD_INC_SRC_ADR);
 1107              		.loc 1 557 0
 1108 002e 1C4C     		ldr	r4, .L50+8
 1109 0030 0123     		movs	r3, #1
 1110 0032 6278     		ldrb	r2, [r4, #1]	@ zero_extendqisi2
 1111 0034 40F6A661 		movw	r1, #3750
 1112 0038 2078     		ldrb	r0, [r4]	@ zero_extendqisi2
 1113 003a FFF7FEFF 		bl	CyDmaTdSetConfiguration
 1114              	.LVL165:
 558:main.c        ****     CyDmaTdSetConfiguration(DMA_DAC_1_TD[2], NSAMPLES_DAC, CY_DMA_DISABLE_TD, DMA_DAC_1__TD_TERMOUT
 1115              		.loc 1 558 0
 1116 003e 0123     		movs	r3, #1
 1117 0040 A278     		ldrb	r2, [r4, #2]	@ zero_extendqisi2
 1118 0042 40F6A661 		movw	r1, #3750
 1119 0046 6078     		ldrb	r0, [r4, #1]	@ zero_extendqisi2
 1120 0048 FFF7FEFF 		bl	CyDmaTdSetConfiguration
 1121              	.LVL166:
 559:main.c        ****     CyDmaTdSetAddress(DMA_DAC_1_TD[0], LO16((uint32)FLASH_CH1), LO16((uint32)IDAC8_1_Data_PTR));
 1122              		.loc 1 559 0
 1123 004c 0523     		movs	r3, #5
 1124 004e FE22     		movs	r2, #254
 1125 0050 40F6A661 		movw	r1, #3750
 1126 0054 A078     		ldrb	r0, [r4, #2]	@ zero_extendqisi2
 1127 0056 FFF7FEFF 		bl	CyDmaTdSetConfiguration
 1128              	.LVL167:
 560:main.c        ****     CyDmaTdSetAddress(DMA_DAC_1_TD[1], LO16((uint32)FLASH_CH1 + NSAMPLES_DAC), LO16((uint32)IDAC8_1
 1129              		.loc 1 560 0
 1130 005a 45F68132 		movw	r2, #23425
 1131 005e 4FF40041 		mov	r1, #32768
 1132 0062 2078     		ldrb	r0, [r4]	@ zero_extendqisi2
 1133 0064 FFF7FEFF 		bl	CyDmaTdSetAddress
 1134              	.LVL168:
 561:main.c        ****     CyDmaTdSetAddress(DMA_DAC_1_TD[2], LO16((uint32)FLASH_CH1 + 2*NSAMPLES_DAC), LO16((uint32)IDAC8
 1135              		.loc 1 561 0
 1136 0068 45F68132 		movw	r2, #23425
 1137 006c 48F6A661 		movw	r1, #36518
 1138 0070 6078     		ldrb	r0, [r4, #1]	@ zero_extendqisi2
 1139 0072 FFF7FEFF 		bl	CyDmaTdSetAddress
 1140              	.LVL169:
 562:main.c        ****     CyDmaChSetInitialTd(DMA_DAC_1_Chan, DMA_DAC_1_TD[0]);
 1141              		.loc 1 562 0
 1142 0076 45F68132 		movw	r2, #23425
 1143 007a 49F64C51 		movw	r1, #40268
 1144 007e A078     		ldrb	r0, [r4, #2]	@ zero_extendqisi2
 1145 0080 FFF7FEFF 		bl	CyDmaTdSetAddress
ARM GAS  C:\Users\User\AppData\Local\Temp\ccoMSFoX.s 			page 38


 1146              	.LVL170:
 563:main.c        ****     CyDmaChEnable(DMA_DAC_1_Chan, 1);
 1147              		.loc 1 563 0
 1148 0084 054D     		ldr	r5, .L50+4
 1149 0086 2178     		ldrb	r1, [r4]	@ zero_extendqisi2
 1150 0088 2878     		ldrb	r0, [r5]	@ zero_extendqisi2
 1151 008a FFF7FEFF 		bl	CyDmaChSetInitialTd
 1152              	.LVL171:
 564:main.c        **** }
 1153              		.loc 1 564 0
 1154 008e 0121     		movs	r1, #1
 1155 0090 2878     		ldrb	r0, [r5]	@ zero_extendqisi2
 1156 0092 FFF7FEFF 		bl	CyDmaChEnable
 1157              	.LVL172:
 1158 0096 38BD     		pop	{r3, r4, r5, pc}
 1159              	.L51:
 1160              		.align	2
 1161              	.L50:
 1162 0098 00000000 		.word	.LANCHOR0
 1163 009c 00000000 		.word	DMA_DAC_1_Chan
 1164 00a0 00000000 		.word	DMA_DAC_1_TD
 1165              		.cfi_endproc
 1166              	.LFE73:
 1167              		.size	dma_dac_1_init, .-dma_dac_1_init
 1168              		.section	.text.dma_dac_2_init,"ax",%progbits
 1169              		.align	2
 1170              		.global	dma_dac_2_init
 1171              		.thumb
 1172              		.thumb_func
 1173              		.type	dma_dac_2_init, %function
 1174              	dma_dac_2_init:
 1175              	.LFB74:
 568:main.c        ****     /* DMA Configuration for DMA_DAC_2 */
 1176              		.loc 1 568 0
 1177              		.cfi_startproc
 1178              		@ args = 0, pretend = 0, frame = 0
 1179              		@ frame_needed = 0, uses_anonymous_args = 0
 1180 0000 38B5     		push	{r3, r4, r5, lr}
 1181              		.cfi_def_cfa_offset 16
 1182              		.cfi_offset 3, -16
 1183              		.cfi_offset 4, -12
 1184              		.cfi_offset 5, -8
 1185              		.cfi_offset 14, -4
 570:main.c        ****     {
 1186              		.loc 1 570 0
 1187 0002 254B     		ldr	r3, .L55
 1188 0004 5B78     		ldrb	r3, [r3, #1]	@ zero_extendqisi2
 1189 0006 93B9     		cbnz	r3, .L53
 572:main.c        ****             HI16(DMA_DAC_2_SRC_BASE), HI16(DMA_DAC_2_DST_BASE));
 1190              		.loc 1 572 0
 1191 0008 4FF48043 		mov	r3, #16384
 1192 000c 0122     		movs	r2, #1
 1193 000e 1146     		mov	r1, r2
 1194 0010 1046     		mov	r0, r2
 1195 0012 FFF7FEFF 		bl	DMA_DAC_2_DmaInitialize
 1196              	.LVL173:
 1197 0016 214B     		ldr	r3, .L55+4
ARM GAS  C:\Users\User\AppData\Local\Temp\ccoMSFoX.s 			page 39


 1198 0018 1870     		strb	r0, [r3]
 574:main.c        ****         DMA_DAC_2_TD[1] = CyDmaTdAllocate();
 1199              		.loc 1 574 0
 1200 001a FFF7FEFF 		bl	CyDmaTdAllocate
 1201              	.LVL174:
 1202 001e 204C     		ldr	r4, .L55+8
 1203 0020 2070     		strb	r0, [r4]
 575:main.c        ****         DMA_DAC_2_TD[2] = CyDmaTdAllocate();
 1204              		.loc 1 575 0
 1205 0022 FFF7FEFF 		bl	CyDmaTdAllocate
 1206              	.LVL175:
 1207 0026 6070     		strb	r0, [r4, #1]
 576:main.c        ****     }
 1208              		.loc 1 576 0
 1209 0028 FFF7FEFF 		bl	CyDmaTdAllocate
 1210              	.LVL176:
 1211 002c A070     		strb	r0, [r4, #2]
 1212              	.L53:
 578:main.c        ****     CyDmaTdSetConfiguration(DMA_DAC_2_TD[1], NSAMPLES_DAC, DMA_DAC_2_TD[2], CY_DMA_TD_INC_SRC_ADR);
 1213              		.loc 1 578 0
 1214 002e 1C4C     		ldr	r4, .L55+8
 1215 0030 0123     		movs	r3, #1
 1216 0032 6278     		ldrb	r2, [r4, #1]	@ zero_extendqisi2
 1217 0034 40F6A661 		movw	r1, #3750
 1218 0038 2078     		ldrb	r0, [r4]	@ zero_extendqisi2
 1219 003a FFF7FEFF 		bl	CyDmaTdSetConfiguration
 1220              	.LVL177:
 579:main.c        ****     CyDmaTdSetConfiguration(DMA_DAC_2_TD[2], NSAMPLES_DAC, CY_DMA_DISABLE_TD, DMA_DAC_2__TD_TERMOUT
 1221              		.loc 1 579 0
 1222 003e 0123     		movs	r3, #1
 1223 0040 A278     		ldrb	r2, [r4, #2]	@ zero_extendqisi2
 1224 0042 40F6A661 		movw	r1, #3750
 1225 0046 6078     		ldrb	r0, [r4, #1]	@ zero_extendqisi2
 1226 0048 FFF7FEFF 		bl	CyDmaTdSetConfiguration
 1227              	.LVL178:
 580:main.c        ****     CyDmaTdSetAddress(DMA_DAC_2_TD[0], LO16((uint32)FLASH_CH2), LO16((uint32)IDAC8_2_Data_PTR));
 1228              		.loc 1 580 0
 1229 004c 0523     		movs	r3, #5
 1230 004e FE22     		movs	r2, #254
 1231 0050 40F6A661 		movw	r1, #3750
 1232 0054 A078     		ldrb	r0, [r4, #2]	@ zero_extendqisi2
 1233 0056 FFF7FEFF 		bl	CyDmaTdSetConfiguration
 1234              	.LVL179:
 581:main.c        ****     CyDmaTdSetAddress(DMA_DAC_2_TD[1], LO16((uint32)FLASH_CH2 + NSAMPLES_DAC), LO16((uint32)IDAC8_2
 1235              		.loc 1 581 0
 1236 005a 45F68232 		movw	r2, #23426
 1237 005e 0021     		movs	r1, #0
 1238 0060 2078     		ldrb	r0, [r4]	@ zero_extendqisi2
 1239 0062 FFF7FEFF 		bl	CyDmaTdSetAddress
 1240              	.LVL180:
 582:main.c        ****     CyDmaTdSetAddress(DMA_DAC_2_TD[2], LO16((uint32)FLASH_CH2 + 2*NSAMPLES_DAC), LO16((uint32)IDAC8
 1241              		.loc 1 582 0
 1242 0066 45F68232 		movw	r2, #23426
 1243 006a 40F6A661 		movw	r1, #3750
 1244 006e 6078     		ldrb	r0, [r4, #1]	@ zero_extendqisi2
 1245 0070 FFF7FEFF 		bl	CyDmaTdSetAddress
 1246              	.LVL181:
ARM GAS  C:\Users\User\AppData\Local\Temp\ccoMSFoX.s 			page 40


 583:main.c        ****     CyDmaChSetInitialTd(DMA_DAC_2_Chan, DMA_DAC_2_TD[0]);
 1247              		.loc 1 583 0
 1248 0074 45F68232 		movw	r2, #23426
 1249 0078 41F64C51 		movw	r1, #7500
 1250 007c A078     		ldrb	r0, [r4, #2]	@ zero_extendqisi2
 1251 007e FFF7FEFF 		bl	CyDmaTdSetAddress
 1252              	.LVL182:
 584:main.c        ****     CyDmaChEnable(DMA_DAC_2_Chan, 1);
 1253              		.loc 1 584 0
 1254 0082 064D     		ldr	r5, .L55+4
 1255 0084 2178     		ldrb	r1, [r4]	@ zero_extendqisi2
 1256 0086 2878     		ldrb	r0, [r5]	@ zero_extendqisi2
 1257 0088 FFF7FEFF 		bl	CyDmaChSetInitialTd
 1258              	.LVL183:
 585:main.c        **** }
 1259              		.loc 1 585 0
 1260 008c 0121     		movs	r1, #1
 1261 008e 2878     		ldrb	r0, [r5]	@ zero_extendqisi2
 1262 0090 FFF7FEFF 		bl	CyDmaChEnable
 1263              	.LVL184:
 1264 0094 38BD     		pop	{r3, r4, r5, pc}
 1265              	.L56:
 1266 0096 00BF     		.align	2
 1267              	.L55:
 1268 0098 00000000 		.word	.LANCHOR0
 1269 009c 00000000 		.word	DMA_DAC_2_Chan
 1270 00a0 00000000 		.word	DMA_DAC_2_TD
 1271              		.cfi_endproc
 1272              	.LFE74:
 1273              		.size	dma_dac_2_init, .-dma_dac_2_init
 1274              		.section	.text.dma_dac_3_init,"ax",%progbits
 1275              		.align	2
 1276              		.global	dma_dac_3_init
 1277              		.thumb
 1278              		.thumb_func
 1279              		.type	dma_dac_3_init, %function
 1280              	dma_dac_3_init:
 1281              	.LFB75:
 589:main.c        ****     /* DMA Configuration for DMA_DAC_3 */
 1282              		.loc 1 589 0
 1283              		.cfi_startproc
 1284              		@ args = 0, pretend = 0, frame = 0
 1285              		@ frame_needed = 0, uses_anonymous_args = 0
 1286 0000 38B5     		push	{r3, r4, r5, lr}
 1287              		.cfi_def_cfa_offset 16
 1288              		.cfi_offset 3, -16
 1289              		.cfi_offset 4, -12
 1290              		.cfi_offset 5, -8
 1291              		.cfi_offset 14, -4
 591:main.c        ****     {
 1292              		.loc 1 591 0
 1293 0002 254B     		ldr	r3, .L60
 1294 0004 5B78     		ldrb	r3, [r3, #1]	@ zero_extendqisi2
 1295 0006 93B9     		cbnz	r3, .L58
 593:main.c        ****             HI16(DMA_DAC_3_SRC_BASE), HI16(DMA_DAC_3_DST_BASE));
 1296              		.loc 1 593 0
 1297 0008 4FF48043 		mov	r3, #16384
ARM GAS  C:\Users\User\AppData\Local\Temp\ccoMSFoX.s 			page 41


 1298 000c 0222     		movs	r2, #2
 1299 000e 0121     		movs	r1, #1
 1300 0010 0846     		mov	r0, r1
 1301 0012 FFF7FEFF 		bl	DMA_DAC_3_DmaInitialize
 1302              	.LVL185:
 1303 0016 214B     		ldr	r3, .L60+4
 1304 0018 1870     		strb	r0, [r3]
 595:main.c        ****         DMA_DAC_3_TD[1] = CyDmaTdAllocate();
 1305              		.loc 1 595 0
 1306 001a FFF7FEFF 		bl	CyDmaTdAllocate
 1307              	.LVL186:
 1308 001e 204C     		ldr	r4, .L60+8
 1309 0020 2070     		strb	r0, [r4]
 596:main.c        ****         DMA_DAC_3_TD[2] = CyDmaTdAllocate();
 1310              		.loc 1 596 0
 1311 0022 FFF7FEFF 		bl	CyDmaTdAllocate
 1312              	.LVL187:
 1313 0026 6070     		strb	r0, [r4, #1]
 597:main.c        ****     }
 1314              		.loc 1 597 0
 1315 0028 FFF7FEFF 		bl	CyDmaTdAllocate
 1316              	.LVL188:
 1317 002c A070     		strb	r0, [r4, #2]
 1318              	.L58:
 599:main.c        ****     CyDmaTdSetConfiguration(DMA_DAC_3_TD[1], NSAMPLES_DAC, DMA_DAC_3_TD[2], CY_DMA_TD_INC_SRC_ADR);
 1319              		.loc 1 599 0
 1320 002e 1C4C     		ldr	r4, .L60+8
 1321 0030 0123     		movs	r3, #1
 1322 0032 6278     		ldrb	r2, [r4, #1]	@ zero_extendqisi2
 1323 0034 40F6A661 		movw	r1, #3750
 1324 0038 2078     		ldrb	r0, [r4]	@ zero_extendqisi2
 1325 003a FFF7FEFF 		bl	CyDmaTdSetConfiguration
 1326              	.LVL189:
 600:main.c        ****     CyDmaTdSetConfiguration(DMA_DAC_3_TD[2], NSAMPLES_DAC, CY_DMA_DISABLE_TD, DMA_DAC_3__TD_TERMOUT
 1327              		.loc 1 600 0
 1328 003e 0123     		movs	r3, #1
 1329 0040 A278     		ldrb	r2, [r4, #2]	@ zero_extendqisi2
 1330 0042 40F6A661 		movw	r1, #3750
 1331 0046 6078     		ldrb	r0, [r4, #1]	@ zero_extendqisi2
 1332 0048 FFF7FEFF 		bl	CyDmaTdSetConfiguration
 1333              	.LVL190:
 601:main.c        ****     CyDmaTdSetAddress(DMA_DAC_3_TD[0], LO16((uint32)FLASH_CH3), LO16((uint32)IDAC8_3_Data_PTR));
 1334              		.loc 1 601 0
 1335 004c 0523     		movs	r3, #5
 1336 004e FE22     		movs	r2, #254
 1337 0050 40F6A661 		movw	r1, #3750
 1338 0054 A078     		ldrb	r0, [r4, #2]	@ zero_extendqisi2
 1339 0056 FFF7FEFF 		bl	CyDmaTdSetConfiguration
 1340              	.LVL191:
 602:main.c        ****     CyDmaTdSetAddress(DMA_DAC_3_TD[1], LO16((uint32)FLASH_CH3 + NSAMPLES_DAC), LO16((uint32)IDAC8_3
 1341              		.loc 1 602 0
 1342 005a 4FF4B742 		mov	r2, #23424
 1343 005e 0021     		movs	r1, #0
 1344 0060 2078     		ldrb	r0, [r4]	@ zero_extendqisi2
 1345 0062 FFF7FEFF 		bl	CyDmaTdSetAddress
 1346              	.LVL192:
 603:main.c        ****     CyDmaTdSetAddress(DMA_DAC_3_TD[2], LO16((uint32)FLASH_CH3 + 2*NSAMPLES_DAC), LO16((uint32)IDAC8
ARM GAS  C:\Users\User\AppData\Local\Temp\ccoMSFoX.s 			page 42


 1347              		.loc 1 603 0
 1348 0066 4FF4B742 		mov	r2, #23424
 1349 006a 40F6A661 		movw	r1, #3750
 1350 006e 6078     		ldrb	r0, [r4, #1]	@ zero_extendqisi2
 1351 0070 FFF7FEFF 		bl	CyDmaTdSetAddress
 1352              	.LVL193:
 604:main.c        ****     CyDmaChSetInitialTd(DMA_DAC_3_Chan, DMA_DAC_3_TD[0]);
 1353              		.loc 1 604 0
 1354 0074 4FF4B742 		mov	r2, #23424
 1355 0078 41F64C51 		movw	r1, #7500
 1356 007c A078     		ldrb	r0, [r4, #2]	@ zero_extendqisi2
 1357 007e FFF7FEFF 		bl	CyDmaTdSetAddress
 1358              	.LVL194:
 605:main.c        ****     CyDmaChEnable(DMA_DAC_3_Chan, 1);
 1359              		.loc 1 605 0
 1360 0082 064D     		ldr	r5, .L60+4
 1361 0084 2178     		ldrb	r1, [r4]	@ zero_extendqisi2
 1362 0086 2878     		ldrb	r0, [r5]	@ zero_extendqisi2
 1363 0088 FFF7FEFF 		bl	CyDmaChSetInitialTd
 1364              	.LVL195:
 606:main.c        **** }
 1365              		.loc 1 606 0
 1366 008c 0121     		movs	r1, #1
 1367 008e 2878     		ldrb	r0, [r5]	@ zero_extendqisi2
 1368 0090 FFF7FEFF 		bl	CyDmaChEnable
 1369              	.LVL196:
 1370 0094 38BD     		pop	{r3, r4, r5, pc}
 1371              	.L61:
 1372 0096 00BF     		.align	2
 1373              	.L60:
 1374 0098 00000000 		.word	.LANCHOR0
 1375 009c 00000000 		.word	DMA_DAC_3_Chan
 1376 00a0 00000000 		.word	DMA_DAC_3_TD
 1377              		.cfi_endproc
 1378              	.LFE75:
 1379              		.size	dma_dac_3_init, .-dma_dac_3_init
 1380              		.section	.text.dma_dac_4_init,"ax",%progbits
 1381              		.align	2
 1382              		.global	dma_dac_4_init
 1383              		.thumb
 1384              		.thumb_func
 1385              		.type	dma_dac_4_init, %function
 1386              	dma_dac_4_init:
 1387              	.LFB76:
 610:main.c        ****     /* DMA Configuration for DMA_DAC_4 */
 1388              		.loc 1 610 0
 1389              		.cfi_startproc
 1390              		@ args = 0, pretend = 0, frame = 0
 1391              		@ frame_needed = 0, uses_anonymous_args = 0
 1392 0000 38B5     		push	{r3, r4, r5, lr}
 1393              		.cfi_def_cfa_offset 16
 1394              		.cfi_offset 3, -16
 1395              		.cfi_offset 4, -12
 1396              		.cfi_offset 5, -8
 1397              		.cfi_offset 14, -4
 612:main.c        ****     {
 1398              		.loc 1 612 0
ARM GAS  C:\Users\User\AppData\Local\Temp\ccoMSFoX.s 			page 43


 1399 0002 254B     		ldr	r3, .L65
 1400 0004 5B78     		ldrb	r3, [r3, #1]	@ zero_extendqisi2
 1401 0006 93B9     		cbnz	r3, .L63
 614:main.c        ****             HI16(DMA_DAC_4_SRC_BASE), HI16(DMA_DAC_4_DST_BASE));
 1402              		.loc 1 614 0
 1403 0008 4FF48043 		mov	r3, #16384
 1404 000c 0322     		movs	r2, #3
 1405 000e 0121     		movs	r1, #1
 1406 0010 0846     		mov	r0, r1
 1407 0012 FFF7FEFF 		bl	DMA_DAC_4_DmaInitialize
 1408              	.LVL197:
 1409 0016 214B     		ldr	r3, .L65+4
 1410 0018 1870     		strb	r0, [r3]
 616:main.c        ****         DMA_DAC_4_TD[1] = CyDmaTdAllocate();
 1411              		.loc 1 616 0
 1412 001a FFF7FEFF 		bl	CyDmaTdAllocate
 1413              	.LVL198:
 1414 001e 204C     		ldr	r4, .L65+8
 1415 0020 2070     		strb	r0, [r4]
 617:main.c        ****         DMA_DAC_4_TD[2] = CyDmaTdAllocate();
 1416              		.loc 1 617 0
 1417 0022 FFF7FEFF 		bl	CyDmaTdAllocate
 1418              	.LVL199:
 1419 0026 6070     		strb	r0, [r4, #1]
 618:main.c        ****     }
 1420              		.loc 1 618 0
 1421 0028 FFF7FEFF 		bl	CyDmaTdAllocate
 1422              	.LVL200:
 1423 002c A070     		strb	r0, [r4, #2]
 1424              	.L63:
 620:main.c        ****     CyDmaTdSetConfiguration(DMA_DAC_4_TD[1], NSAMPLES_DAC, DMA_DAC_4_TD[2], CY_DMA_TD_INC_SRC_ADR);
 1425              		.loc 1 620 0
 1426 002e 1C4C     		ldr	r4, .L65+8
 1427 0030 0123     		movs	r3, #1
 1428 0032 6278     		ldrb	r2, [r4, #1]	@ zero_extendqisi2
 1429 0034 40F6A661 		movw	r1, #3750
 1430 0038 2078     		ldrb	r0, [r4]	@ zero_extendqisi2
 1431 003a FFF7FEFF 		bl	CyDmaTdSetConfiguration
 1432              	.LVL201:
 621:main.c        ****     CyDmaTdSetConfiguration(DMA_DAC_4_TD[2], NSAMPLES_DAC, CY_DMA_DISABLE_TD, DMA_DAC_4__TD_TERMOUT
 1433              		.loc 1 621 0
 1434 003e 0123     		movs	r3, #1
 1435 0040 A278     		ldrb	r2, [r4, #2]	@ zero_extendqisi2
 1436 0042 40F6A661 		movw	r1, #3750
 1437 0046 6078     		ldrb	r0, [r4, #1]	@ zero_extendqisi2
 1438 0048 FFF7FEFF 		bl	CyDmaTdSetConfiguration
 1439              	.LVL202:
 622:main.c        ****     CyDmaTdSetAddress(DMA_DAC_4_TD[0], LO16((uint32)FLASH_CH4), LO16((uint32)IDAC8_4_Data_PTR));
 1440              		.loc 1 622 0
 1441 004c 0523     		movs	r3, #5
 1442 004e FE22     		movs	r2, #254
 1443 0050 40F6A661 		movw	r1, #3750
 1444 0054 A078     		ldrb	r0, [r4, #2]	@ zero_extendqisi2
 1445 0056 FFF7FEFF 		bl	CyDmaTdSetConfiguration
 1446              	.LVL203:
 623:main.c        ****     CyDmaTdSetAddress(DMA_DAC_4_TD[1], LO16((uint32)FLASH_CH4 + NSAMPLES_DAC), LO16((uint32)IDAC8_4
 1447              		.loc 1 623 0
ARM GAS  C:\Users\User\AppData\Local\Temp\ccoMSFoX.s 			page 44


 1448 005a 45F68332 		movw	r2, #23427
 1449 005e 0021     		movs	r1, #0
 1450 0060 2078     		ldrb	r0, [r4]	@ zero_extendqisi2
 1451 0062 FFF7FEFF 		bl	CyDmaTdSetAddress
 1452              	.LVL204:
 624:main.c        ****     CyDmaTdSetAddress(DMA_DAC_4_TD[2], LO16((uint32)FLASH_CH4 + 2*NSAMPLES_DAC), LO16((uint32)IDAC8
 1453              		.loc 1 624 0
 1454 0066 45F68332 		movw	r2, #23427
 1455 006a 40F6A661 		movw	r1, #3750
 1456 006e 6078     		ldrb	r0, [r4, #1]	@ zero_extendqisi2
 1457 0070 FFF7FEFF 		bl	CyDmaTdSetAddress
 1458              	.LVL205:
 625:main.c        ****     CyDmaChSetInitialTd(DMA_DAC_4_Chan, DMA_DAC_4_TD[0]);
 1459              		.loc 1 625 0
 1460 0074 45F68332 		movw	r2, #23427
 1461 0078 41F64C51 		movw	r1, #7500
 1462 007c A078     		ldrb	r0, [r4, #2]	@ zero_extendqisi2
 1463 007e FFF7FEFF 		bl	CyDmaTdSetAddress
 1464              	.LVL206:
 626:main.c        ****     CyDmaChEnable(DMA_DAC_4_Chan, 1);
 1465              		.loc 1 626 0
 1466 0082 064D     		ldr	r5, .L65+4
 1467 0084 2178     		ldrb	r1, [r4]	@ zero_extendqisi2
 1468 0086 2878     		ldrb	r0, [r5]	@ zero_extendqisi2
 1469 0088 FFF7FEFF 		bl	CyDmaChSetInitialTd
 1470              	.LVL207:
 627:main.c        **** }
 1471              		.loc 1 627 0
 1472 008c 0121     		movs	r1, #1
 1473 008e 2878     		ldrb	r0, [r5]	@ zero_extendqisi2
 1474 0090 FFF7FEFF 		bl	CyDmaChEnable
 1475              	.LVL208:
 1476 0094 38BD     		pop	{r3, r4, r5, pc}
 1477              	.L66:
 1478 0096 00BF     		.align	2
 1479              	.L65:
 1480 0098 00000000 		.word	.LANCHOR0
 1481 009c 00000000 		.word	DMA_DAC_4_Chan
 1482 00a0 00000000 		.word	DMA_DAC_4_TD
 1483              		.cfi_endproc
 1484              	.LFE76:
 1485              		.size	dma_dac_4_init, .-dma_dac_4_init
 1486              		.section	.text.dma_adc_1_init,"ax",%progbits
 1487              		.align	2
 1488              		.global	dma_adc_1_init
 1489              		.thumb
 1490              		.thumb_func
 1491              		.type	dma_adc_1_init, %function
 1492              	dma_adc_1_init:
 1493              	.LFB77:
 631:main.c        ****     /* DMA Configuration for DMA_ADC_1 */
 1494              		.loc 1 631 0
 1495              		.cfi_startproc
 1496              		@ args = 0, pretend = 0, frame = 16
 1497              		@ frame_needed = 0, uses_anonymous_args = 0
 1498 0000 2DE9F04F 		push	{r4, r5, r6, r7, r8, r9, r10, fp, lr}
 1499              		.cfi_def_cfa_offset 36
ARM GAS  C:\Users\User\AppData\Local\Temp\ccoMSFoX.s 			page 45


 1500              		.cfi_offset 4, -36
 1501              		.cfi_offset 5, -32
 1502              		.cfi_offset 6, -28
 1503              		.cfi_offset 7, -24
 1504              		.cfi_offset 8, -20
 1505              		.cfi_offset 9, -16
 1506              		.cfi_offset 10, -12
 1507              		.cfi_offset 11, -8
 1508              		.cfi_offset 14, -4
 1509 0004 85B0     		sub	sp, sp, #20
 1510              		.cfi_def_cfa_offset 56
 633:main.c        ****     {
 1511              		.loc 1 633 0
 1512 0006 C54B     		ldr	r3, .L70
 1513 0008 5B78     		ldrb	r3, [r3, #1]	@ zero_extendqisi2
 1514 000a 002B     		cmp	r3, #0
 1515 000c 46D1     		bne	.L68
 635:main.c        ****             HI16(DMA_ADC_1_SRC_BASE), HI16(DMA_ADC_1_DST_BASE));
 1516              		.loc 1 635 0
 1517 000e 41F6FF73 		movw	r3, #8191
 1518 0012 4FF48042 		mov	r2, #16384
 1519 0016 0121     		movs	r1, #1
 1520 0018 0220     		movs	r0, #2
 1521 001a FFF7FEFF 		bl	DMA_ADC_1_DmaInitialize
 1522              	.LVL209:
 1523 001e C04B     		ldr	r3, .L70+4
 1524 0020 1870     		strb	r0, [r3]
 637:main.c        ****         DMA_ADC_1_TD[1] = CyDmaTdAllocate();
 1525              		.loc 1 637 0
 1526 0022 FFF7FEFF 		bl	CyDmaTdAllocate
 1527              	.LVL210:
 1528 0026 BF4C     		ldr	r4, .L70+8
 1529 0028 2070     		strb	r0, [r4]
 638:main.c        ****         DMA_ADC_1_TD[2] = CyDmaTdAllocate();
 1530              		.loc 1 638 0
 1531 002a FFF7FEFF 		bl	CyDmaTdAllocate
 1532              	.LVL211:
 1533 002e 6070     		strb	r0, [r4, #1]
 639:main.c        ****         DMA_ADC_1_TD[3] = CyDmaTdAllocate();
 1534              		.loc 1 639 0
 1535 0030 FFF7FEFF 		bl	CyDmaTdAllocate
 1536              	.LVL212:
 1537 0034 A070     		strb	r0, [r4, #2]
 640:main.c        ****         DMA_ADC_1_TD[4] = CyDmaTdAllocate();
 1538              		.loc 1 640 0
 1539 0036 FFF7FEFF 		bl	CyDmaTdAllocate
 1540              	.LVL213:
 1541 003a E070     		strb	r0, [r4, #3]
 641:main.c        ****         DMA_ADC_1_TD[5] = CyDmaTdAllocate();
 1542              		.loc 1 641 0
 1543 003c FFF7FEFF 		bl	CyDmaTdAllocate
 1544              	.LVL214:
 1545 0040 2071     		strb	r0, [r4, #4]
 642:main.c        ****         DMA_ADC_1_TD[6] = CyDmaTdAllocate();
 1546              		.loc 1 642 0
 1547 0042 FFF7FEFF 		bl	CyDmaTdAllocate
 1548              	.LVL215:
ARM GAS  C:\Users\User\AppData\Local\Temp\ccoMSFoX.s 			page 46


 1549 0046 6071     		strb	r0, [r4, #5]
 643:main.c        ****         DMA_ADC_1_TD[7] = CyDmaTdAllocate();
 1550              		.loc 1 643 0
 1551 0048 FFF7FEFF 		bl	CyDmaTdAllocate
 1552              	.LVL216:
 1553 004c A071     		strb	r0, [r4, #6]
 644:main.c        ****         DMA_ADC_1_TD[8] = CyDmaTdAllocate();
 1554              		.loc 1 644 0
 1555 004e FFF7FEFF 		bl	CyDmaTdAllocate
 1556              	.LVL217:
 1557 0052 E071     		strb	r0, [r4, #7]
 645:main.c        ****         DMA_ADC_1_TD[9] = CyDmaTdAllocate();
 1558              		.loc 1 645 0
 1559 0054 FFF7FEFF 		bl	CyDmaTdAllocate
 1560              	.LVL218:
 1561 0058 2072     		strb	r0, [r4, #8]
 646:main.c        ****         DMA_ADC_1_TD[10] = CyDmaTdAllocate();
 1562              		.loc 1 646 0
 1563 005a FFF7FEFF 		bl	CyDmaTdAllocate
 1564              	.LVL219:
 1565 005e 6072     		strb	r0, [r4, #9]
 647:main.c        ****         DMA_ADC_1_TD[11] = CyDmaTdAllocate();
 1566              		.loc 1 647 0
 1567 0060 FFF7FEFF 		bl	CyDmaTdAllocate
 1568              	.LVL220:
 1569 0064 A072     		strb	r0, [r4, #10]
 648:main.c        ****         DMA_ADC_1_TD[12] = CyDmaTdAllocate();
 1570              		.loc 1 648 0
 1571 0066 FFF7FEFF 		bl	CyDmaTdAllocate
 1572              	.LVL221:
 1573 006a E072     		strb	r0, [r4, #11]
 649:main.c        ****         DMA_ADC_1_TD[13] = CyDmaTdAllocate();
 1574              		.loc 1 649 0
 1575 006c FFF7FEFF 		bl	CyDmaTdAllocate
 1576              	.LVL222:
 1577 0070 2073     		strb	r0, [r4, #12]
 650:main.c        ****         DMA_ADC_1_TD[14] = CyDmaTdAllocate();
 1578              		.loc 1 650 0
 1579 0072 FFF7FEFF 		bl	CyDmaTdAllocate
 1580              	.LVL223:
 1581 0076 6073     		strb	r0, [r4, #13]
 651:main.c        ****         DMA_ADC_1_TD[15] = CyDmaTdAllocate();
 1582              		.loc 1 651 0
 1583 0078 FFF7FEFF 		bl	CyDmaTdAllocate
 1584              	.LVL224:
 1585 007c A073     		strb	r0, [r4, #14]
 652:main.c        ****         DMA_ADC_1_TD[16] = CyDmaTdAllocate();
 1586              		.loc 1 652 0
 1587 007e FFF7FEFF 		bl	CyDmaTdAllocate
 1588              	.LVL225:
 1589 0082 E073     		strb	r0, [r4, #15]
 653:main.c        ****         DMA_ADC_1_TD[17] = CyDmaTdAllocate();
 1590              		.loc 1 653 0
 1591 0084 FFF7FEFF 		bl	CyDmaTdAllocate
 1592              	.LVL226:
 1593 0088 2074     		strb	r0, [r4, #16]
 654:main.c        ****         DMA_ADC_1_TD[18] = CyDmaTdAllocate();
ARM GAS  C:\Users\User\AppData\Local\Temp\ccoMSFoX.s 			page 47


 1594              		.loc 1 654 0
 1595 008a FFF7FEFF 		bl	CyDmaTdAllocate
 1596              	.LVL227:
 1597 008e 6074     		strb	r0, [r4, #17]
 655:main.c        ****         DMA_ADC_1_TD[19] = CyDmaTdAllocate();
 1598              		.loc 1 655 0
 1599 0090 FFF7FEFF 		bl	CyDmaTdAllocate
 1600              	.LVL228:
 1601 0094 A074     		strb	r0, [r4, #18]
 656:main.c        ****     }
 1602              		.loc 1 656 0
 1603 0096 FFF7FEFF 		bl	CyDmaTdAllocate
 1604              	.LVL229:
 1605 009a E074     		strb	r0, [r4, #19]
 1606              	.L68:
 658:main.c        ****     CyDmaTdSetConfiguration(DMA_ADC_1_TD[1], NSAMPLES_ADC/(N_TDS_ADC/2) * DMA_ADC_1_BYTES_PER_BURST
 1607              		.loc 1 658 0
 1608 009c A14C     		ldr	r4, .L70+8
 1609 009e 0223     		movs	r3, #2
 1610 00a0 6278     		ldrb	r2, [r4, #1]	@ zero_extendqisi2
 1611 00a2 40F6B831 		movw	r1, #3000
 1612 00a6 2078     		ldrb	r0, [r4]	@ zero_extendqisi2
 1613 00a8 FFF7FEFF 		bl	CyDmaTdSetConfiguration
 1614              	.LVL230:
 659:main.c        ****     CyDmaTdSetConfiguration(DMA_ADC_1_TD[2], NSAMPLES_ADC/(N_TDS_ADC/2) * DMA_ADC_1_BYTES_PER_BURST
 1615              		.loc 1 659 0
 1616 00ac 0223     		movs	r3, #2
 1617 00ae A278     		ldrb	r2, [r4, #2]	@ zero_extendqisi2
 1618 00b0 40F6B831 		movw	r1, #3000
 1619 00b4 6078     		ldrb	r0, [r4, #1]	@ zero_extendqisi2
 1620 00b6 FFF7FEFF 		bl	CyDmaTdSetConfiguration
 1621              	.LVL231:
 660:main.c        ****     CyDmaTdSetConfiguration(DMA_ADC_1_TD[3], NSAMPLES_ADC/(N_TDS_ADC/2) * DMA_ADC_1_BYTES_PER_BURST
 1622              		.loc 1 660 0
 1623 00ba 0223     		movs	r3, #2
 1624 00bc E278     		ldrb	r2, [r4, #3]	@ zero_extendqisi2
 1625 00be 40F6B831 		movw	r1, #3000
 1626 00c2 A078     		ldrb	r0, [r4, #2]	@ zero_extendqisi2
 1627 00c4 FFF7FEFF 		bl	CyDmaTdSetConfiguration
 1628              	.LVL232:
 661:main.c        ****     CyDmaTdSetConfiguration(DMA_ADC_1_TD[4], NSAMPLES_ADC/(N_TDS_ADC/2) * DMA_ADC_1_BYTES_PER_BURST
 1629              		.loc 1 661 0
 1630 00c8 0223     		movs	r3, #2
 1631 00ca 2279     		ldrb	r2, [r4, #4]	@ zero_extendqisi2
 1632 00cc 40F6B831 		movw	r1, #3000
 1633 00d0 E078     		ldrb	r0, [r4, #3]	@ zero_extendqisi2
 1634 00d2 FFF7FEFF 		bl	CyDmaTdSetConfiguration
 1635              	.LVL233:
 662:main.c        ****     CyDmaTdSetConfiguration(DMA_ADC_1_TD[5], NSAMPLES_ADC/(N_TDS_ADC/2) * DMA_ADC_1_BYTES_PER_BURST
 1636              		.loc 1 662 0
 1637 00d6 0223     		movs	r3, #2
 1638 00d8 6279     		ldrb	r2, [r4, #5]	@ zero_extendqisi2
 1639 00da 40F6B831 		movw	r1, #3000
 1640 00de 2079     		ldrb	r0, [r4, #4]	@ zero_extendqisi2
 1641 00e0 FFF7FEFF 		bl	CyDmaTdSetConfiguration
 1642              	.LVL234:
 663:main.c        ****     CyDmaTdSetConfiguration(DMA_ADC_1_TD[6], NSAMPLES_ADC/(N_TDS_ADC/2) * DMA_ADC_1_BYTES_PER_BURST
ARM GAS  C:\Users\User\AppData\Local\Temp\ccoMSFoX.s 			page 48


 1643              		.loc 1 663 0
 1644 00e4 0223     		movs	r3, #2
 1645 00e6 A279     		ldrb	r2, [r4, #6]	@ zero_extendqisi2
 1646 00e8 40F6B831 		movw	r1, #3000
 1647 00ec 6079     		ldrb	r0, [r4, #5]	@ zero_extendqisi2
 1648 00ee FFF7FEFF 		bl	CyDmaTdSetConfiguration
 1649              	.LVL235:
 664:main.c        ****     CyDmaTdSetConfiguration(DMA_ADC_1_TD[7], NSAMPLES_ADC/(N_TDS_ADC/2) * DMA_ADC_1_BYTES_PER_BURST
 1650              		.loc 1 664 0
 1651 00f2 0223     		movs	r3, #2
 1652 00f4 E279     		ldrb	r2, [r4, #7]	@ zero_extendqisi2
 1653 00f6 40F6B831 		movw	r1, #3000
 1654 00fa A079     		ldrb	r0, [r4, #6]	@ zero_extendqisi2
 1655 00fc FFF7FEFF 		bl	CyDmaTdSetConfiguration
 1656              	.LVL236:
 665:main.c        ****     CyDmaTdSetConfiguration(DMA_ADC_1_TD[8], NSAMPLES_ADC/(N_TDS_ADC/2) * DMA_ADC_1_BYTES_PER_BURST
 1657              		.loc 1 665 0
 1658 0100 0223     		movs	r3, #2
 1659 0102 227A     		ldrb	r2, [r4, #8]	@ zero_extendqisi2
 1660 0104 40F6B831 		movw	r1, #3000
 1661 0108 E079     		ldrb	r0, [r4, #7]	@ zero_extendqisi2
 1662 010a FFF7FEFF 		bl	CyDmaTdSetConfiguration
 1663              	.LVL237:
 666:main.c        ****     CyDmaTdSetConfiguration(DMA_ADC_1_TD[9], NSAMPLES_ADC/(N_TDS_ADC/2) * DMA_ADC_1_BYTES_PER_BURST
 1664              		.loc 1 666 0
 1665 010e 0223     		movs	r3, #2
 1666 0110 627A     		ldrb	r2, [r4, #9]	@ zero_extendqisi2
 1667 0112 40F6B831 		movw	r1, #3000
 1668 0116 207A     		ldrb	r0, [r4, #8]	@ zero_extendqisi2
 1669 0118 FFF7FEFF 		bl	CyDmaTdSetConfiguration
 1670              	.LVL238:
 667:main.c        ****     CyDmaTdSetConfiguration(DMA_ADC_1_TD[10], NSAMPLES_ADC/(N_TDS_ADC/2) * DMA_ADC_1_BYTES_PER_BURS
 1671              		.loc 1 667 0
 1672 011c 0223     		movs	r3, #2
 1673 011e A27A     		ldrb	r2, [r4, #10]	@ zero_extendqisi2
 1674 0120 40F6B831 		movw	r1, #3000
 1675 0124 607A     		ldrb	r0, [r4, #9]	@ zero_extendqisi2
 1676 0126 FFF7FEFF 		bl	CyDmaTdSetConfiguration
 1677              	.LVL239:
 668:main.c        ****     CyDmaTdSetConfiguration(DMA_ADC_1_TD[11], NSAMPLES_ADC/(N_TDS_ADC/2) * DMA_ADC_1_BYTES_PER_BURS
 1678              		.loc 1 668 0
 1679 012a 0223     		movs	r3, #2
 1680 012c E27A     		ldrb	r2, [r4, #11]	@ zero_extendqisi2
 1681 012e 40F6B831 		movw	r1, #3000
 1682 0132 A07A     		ldrb	r0, [r4, #10]	@ zero_extendqisi2
 1683 0134 FFF7FEFF 		bl	CyDmaTdSetConfiguration
 1684              	.LVL240:
 669:main.c        ****     CyDmaTdSetConfiguration(DMA_ADC_1_TD[12], NSAMPLES_ADC/(N_TDS_ADC/2) * DMA_ADC_1_BYTES_PER_BURS
 1685              		.loc 1 669 0
 1686 0138 0223     		movs	r3, #2
 1687 013a 227B     		ldrb	r2, [r4, #12]	@ zero_extendqisi2
 1688 013c 40F6B831 		movw	r1, #3000
 1689 0140 E07A     		ldrb	r0, [r4, #11]	@ zero_extendqisi2
 1690 0142 FFF7FEFF 		bl	CyDmaTdSetConfiguration
 1691              	.LVL241:
 670:main.c        ****     CyDmaTdSetConfiguration(DMA_ADC_1_TD[13], NSAMPLES_ADC/(N_TDS_ADC/2) * DMA_ADC_1_BYTES_PER_BURS
 1692              		.loc 1 670 0
ARM GAS  C:\Users\User\AppData\Local\Temp\ccoMSFoX.s 			page 49


 1693 0146 0223     		movs	r3, #2
 1694 0148 627B     		ldrb	r2, [r4, #13]	@ zero_extendqisi2
 1695 014a 40F6B831 		movw	r1, #3000
 1696 014e 207B     		ldrb	r0, [r4, #12]	@ zero_extendqisi2
 1697 0150 FFF7FEFF 		bl	CyDmaTdSetConfiguration
 1698              	.LVL242:
 671:main.c        ****     CyDmaTdSetConfiguration(DMA_ADC_1_TD[14], NSAMPLES_ADC/(N_TDS_ADC/2) * DMA_ADC_1_BYTES_PER_BURS
 1699              		.loc 1 671 0
 1700 0154 0223     		movs	r3, #2
 1701 0156 A27B     		ldrb	r2, [r4, #14]	@ zero_extendqisi2
 1702 0158 40F6B831 		movw	r1, #3000
 1703 015c 607B     		ldrb	r0, [r4, #13]	@ zero_extendqisi2
 1704 015e FFF7FEFF 		bl	CyDmaTdSetConfiguration
 1705              	.LVL243:
 672:main.c        ****     CyDmaTdSetConfiguration(DMA_ADC_1_TD[15], NSAMPLES_ADC/(N_TDS_ADC/2) * DMA_ADC_1_BYTES_PER_BURS
 1706              		.loc 1 672 0
 1707 0162 0223     		movs	r3, #2
 1708 0164 E27B     		ldrb	r2, [r4, #15]	@ zero_extendqisi2
 1709 0166 40F6B831 		movw	r1, #3000
 1710 016a A07B     		ldrb	r0, [r4, #14]	@ zero_extendqisi2
 1711 016c FFF7FEFF 		bl	CyDmaTdSetConfiguration
 1712              	.LVL244:
 673:main.c        ****     CyDmaTdSetConfiguration(DMA_ADC_1_TD[16], NSAMPLES_ADC/(N_TDS_ADC/2) * DMA_ADC_1_BYTES_PER_BURS
 1713              		.loc 1 673 0
 1714 0170 0223     		movs	r3, #2
 1715 0172 227C     		ldrb	r2, [r4, #16]	@ zero_extendqisi2
 1716 0174 40F6B831 		movw	r1, #3000
 1717 0178 E07B     		ldrb	r0, [r4, #15]	@ zero_extendqisi2
 1718 017a FFF7FEFF 		bl	CyDmaTdSetConfiguration
 1719              	.LVL245:
 674:main.c        ****     CyDmaTdSetConfiguration(DMA_ADC_1_TD[17], NSAMPLES_ADC/(N_TDS_ADC/2) * DMA_ADC_1_BYTES_PER_BURS
 1720              		.loc 1 674 0
 1721 017e 0223     		movs	r3, #2
 1722 0180 627C     		ldrb	r2, [r4, #17]	@ zero_extendqisi2
 1723 0182 40F6B831 		movw	r1, #3000
 1724 0186 207C     		ldrb	r0, [r4, #16]	@ zero_extendqisi2
 1725 0188 FFF7FEFF 		bl	CyDmaTdSetConfiguration
 1726              	.LVL246:
 675:main.c        ****     CyDmaTdSetConfiguration(DMA_ADC_1_TD[18], NSAMPLES_ADC/(N_TDS_ADC/2) * DMA_ADC_1_BYTES_PER_BURS
 1727              		.loc 1 675 0
 1728 018c 0223     		movs	r3, #2
 1729 018e A27C     		ldrb	r2, [r4, #18]	@ zero_extendqisi2
 1730 0190 40F6B831 		movw	r1, #3000
 1731 0194 607C     		ldrb	r0, [r4, #17]	@ zero_extendqisi2
 1732 0196 FFF7FEFF 		bl	CyDmaTdSetConfiguration
 1733              	.LVL247:
 676:main.c        ****     CyDmaTdSetConfiguration(DMA_ADC_1_TD[19], NSAMPLES_ADC/(N_TDS_ADC/2) * DMA_ADC_1_BYTES_PER_BURS
 1734              		.loc 1 676 0
 1735 019a 0223     		movs	r3, #2
 1736 019c E27C     		ldrb	r2, [r4, #19]	@ zero_extendqisi2
 1737 019e 40F6B831 		movw	r1, #3000
 1738 01a2 A07C     		ldrb	r0, [r4, #18]	@ zero_extendqisi2
 1739 01a4 FFF7FEFF 		bl	CyDmaTdSetConfiguration
 1740              	.LVL248:
 677:main.c        ****     CyDmaTdSetAddress(DMA_ADC_1_TD[0], LO16((uint32)ADC_SAR_1_SAR_WRK0_PTR), LO16((uint32)signal_ad
 1741              		.loc 1 677 0
 1742 01a8 0623     		movs	r3, #6
ARM GAS  C:\Users\User\AppData\Local\Temp\ccoMSFoX.s 			page 50


 1743 01aa FE22     		movs	r2, #254
 1744 01ac 40F6B831 		movw	r1, #3000
 1745 01b0 E07C     		ldrb	r0, [r4, #19]	@ zero_extendqisi2
 1746 01b2 FFF7FEFF 		bl	CyDmaTdSetConfiguration
 1747              	.LVL249:
 678:main.c        ****     CyDmaTdSetAddress(DMA_ADC_1_TD[1], LO16((uint32)ADC_SAR_1_SAR_WRK0_PTR), LO16((uint32)signal_ad
 1748              		.loc 1 678 0
 1749 01b6 5C4D     		ldr	r5, .L70+12
 1750 01b8 ADB2     		uxth	r5, r5
 1751 01ba 2A46     		mov	r2, r5
 1752 01bc 45F6A031 		movw	r1, #23456
 1753 01c0 2078     		ldrb	r0, [r4]	@ zero_extendqisi2
 1754 01c2 FFF7FEFF 		bl	CyDmaTdSetAddress
 1755              	.LVL250:
 679:main.c        ****     CyDmaTdSetAddress(DMA_ADC_1_TD[2], LO16((uint32)ADC_SAR_1_SAR_WRK0_PTR), LO16((uint32)signal_ad
 1756              		.loc 1 679 0
 1757 01c6 05F6B83B 		addw	fp, r5, #3000
 1758 01ca 1FFA8BFB 		uxth	fp, fp
 1759 01ce 5A46     		mov	r2, fp
 1760 01d0 45F6A031 		movw	r1, #23456
 1761 01d4 6078     		ldrb	r0, [r4, #1]	@ zero_extendqisi2
 1762 01d6 FFF7FEFF 		bl	CyDmaTdSetAddress
 1763              	.LVL251:
 680:main.c        ****     CyDmaTdSetAddress(DMA_ADC_1_TD[3], LO16((uint32)ADC_SAR_1_SAR_WRK0_PTR), LO16((uint32)signal_ad
 1764              		.loc 1 680 0
 1765 01da 05F5BB5A 		add	r10, r5, #5984
 1766 01de 0AF1100A 		add	r10, r10, #16
 1767 01e2 1FFA8AFA 		uxth	r10, r10
 1768 01e6 5246     		mov	r2, r10
 1769 01e8 45F6A031 		movw	r1, #23456
 1770 01ec A078     		ldrb	r0, [r4, #2]	@ zero_extendqisi2
 1771 01ee FFF7FEFF 		bl	CyDmaTdSetAddress
 1772              	.LVL252:
 681:main.c        ****     CyDmaTdSetAddress(DMA_ADC_1_TD[4], LO16((uint32)ADC_SAR_1_SAR_WRK0_PTR), LO16((uint32)signal_ad
 1773              		.loc 1 681 0
 1774 01f2 05F50C59 		add	r9, r5, #8960
 1775 01f6 09F12809 		add	r9, r9, #40
 1776 01fa 1FFA89F9 		uxth	r9, r9
 1777 01fe 4A46     		mov	r2, r9
 1778 0200 45F6A031 		movw	r1, #23456
 1779 0204 E078     		ldrb	r0, [r4, #3]	@ zero_extendqisi2
 1780 0206 FFF7FEFF 		bl	CyDmaTdSetAddress
 1781              	.LVL253:
 682:main.c        ****     CyDmaTdSetAddress(DMA_ADC_1_TD[5], LO16((uint32)ADC_SAR_1_SAR_WRK0_PTR), LO16((uint32)signal_ad
 1782              		.loc 1 682 0
 1783 020a 05F53B58 		add	r8, r5, #11968
 1784 020e 08F12008 		add	r8, r8, #32
 1785 0212 1FFA88F8 		uxth	r8, r8
 1786 0216 4246     		mov	r2, r8
 1787 0218 45F6A031 		movw	r1, #23456
 1788 021c 2079     		ldrb	r0, [r4, #4]	@ zero_extendqisi2
 1789 021e FFF7FEFF 		bl	CyDmaTdSetAddress
 1790              	.LVL254:
 683:main.c        ****     CyDmaTdSetAddress(DMA_ADC_1_TD[6], LO16((uint32)ADC_SAR_1_SAR_WRK0_PTR), LO16((uint32)signal_ad
 1791              		.loc 1 683 0
 1792 0222 05F56A57 		add	r7, r5, #14976
 1793 0226 1837     		adds	r7, r7, #24
ARM GAS  C:\Users\User\AppData\Local\Temp\ccoMSFoX.s 			page 51


 1794 0228 BFB2     		uxth	r7, r7
 1795 022a 3A46     		mov	r2, r7
 1796 022c 45F6A031 		movw	r1, #23456
 1797 0230 6079     		ldrb	r0, [r4, #5]	@ zero_extendqisi2
 1798 0232 FFF7FEFF 		bl	CyDmaTdSetAddress
 1799              	.LVL255:
 684:main.c        ****     CyDmaTdSetAddress(DMA_ADC_1_TD[7], LO16((uint32)ADC_SAR_1_SAR_WRK0_PTR), LO16((uint32)signal_ad
 1800              		.loc 1 684 0
 1801 0236 05F58C43 		add	r3, r5, #17920
 1802 023a 5033     		adds	r3, r3, #80
 1803 023c 9BB2     		uxth	r3, r3
 1804 023e 0193     		str	r3, [sp, #4]
 1805 0240 1A46     		mov	r2, r3
 1806 0242 45F6A031 		movw	r1, #23456
 1807 0246 A079     		ldrb	r0, [r4, #6]	@ zero_extendqisi2
 1808 0248 FFF7FEFF 		bl	CyDmaTdSetAddress
 1809              	.LVL256:
 685:main.c        ****     CyDmaTdSetAddress(DMA_ADC_1_TD[8], LO16((uint32)ADC_SAR_1_SAR_WRK0_PTR), LO16((uint32)signal_ad
 1810              		.loc 1 685 0
 1811 024c 05F5A443 		add	r3, r5, #20992
 1812 0250 0833     		adds	r3, r3, #8
 1813 0252 99B2     		uxth	r1, r3
 1814 0254 0291     		str	r1, [sp, #8]
 1815 0256 0A46     		mov	r2, r1
 1816 0258 45F6A031 		movw	r1, #23456
 1817 025c E079     		ldrb	r0, [r4, #7]	@ zero_extendqisi2
 1818 025e FFF7FEFF 		bl	CyDmaTdSetAddress
 1819              	.LVL257:
 686:main.c        ****     CyDmaTdSetAddress(DMA_ADC_1_TD[9], LO16((uint32)ADC_SAR_1_SAR_WRK0_PTR), LO16((uint32)signal_ad
 1820              		.loc 1 686 0
 1821 0262 05F5BB43 		add	r3, r5, #23936
 1822 0266 4033     		adds	r3, r3, #64
 1823 0268 98B2     		uxth	r0, r3
 1824 026a 0390     		str	r0, [sp, #12]
 1825 026c 0246     		mov	r2, r0
 1826 026e 45F6A031 		movw	r1, #23456
 1827 0272 207A     		ldrb	r0, [r4, #8]	@ zero_extendqisi2
 1828 0274 FFF7FEFF 		bl	CyDmaTdSetAddress
 1829              	.LVL258:
 687:main.c        ****     CyDmaTdSetAddress(DMA_ADC_1_TD[10], LO16((uint32)ADC_SAR_1_SAR_WRK0_PTR), LO16((uint32)signal_a
 1830              		.loc 1 687 0
 1831 0278 05F5D246 		add	r6, r5, #26880
 1832 027c 7836     		adds	r6, r6, #120
 1833 027e B6B2     		uxth	r6, r6
 1834 0280 3246     		mov	r2, r6
 1835 0282 45F6A031 		movw	r1, #23456
 1836 0286 607A     		ldrb	r0, [r4, #9]	@ zero_extendqisi2
 1837 0288 FFF7FEFF 		bl	CyDmaTdSetAddress
 1838              	.LVL259:
 688:main.c        ****     CyDmaTdSetAddress(DMA_ADC_1_TD[11], LO16((uint32)ADC_SAR_1_SAR_WRK0_PTR), LO16((uint32)signal_a
 1839              		.loc 1 688 0
 1840 028c 2A46     		mov	r2, r5
 1841 028e 45F6A031 		movw	r1, #23456
 1842 0292 A07A     		ldrb	r0, [r4, #10]	@ zero_extendqisi2
 1843 0294 FFF7FEFF 		bl	CyDmaTdSetAddress
 1844              	.LVL260:
 689:main.c        ****     CyDmaTdSetAddress(DMA_ADC_1_TD[12], LO16((uint32)ADC_SAR_1_SAR_WRK0_PTR), LO16((uint32)signal_a
ARM GAS  C:\Users\User\AppData\Local\Temp\ccoMSFoX.s 			page 52


 1845              		.loc 1 689 0
 1846 0298 5A46     		mov	r2, fp
 1847 029a 45F6A031 		movw	r1, #23456
 1848 029e E07A     		ldrb	r0, [r4, #11]	@ zero_extendqisi2
 1849 02a0 FFF7FEFF 		bl	CyDmaTdSetAddress
 1850              	.LVL261:
 690:main.c        ****     CyDmaTdSetAddress(DMA_ADC_1_TD[13], LO16((uint32)ADC_SAR_1_SAR_WRK0_PTR), LO16((uint32)signal_a
 1851              		.loc 1 690 0
 1852 02a4 5246     		mov	r2, r10
 1853 02a6 45F6A031 		movw	r1, #23456
 1854 02aa 207B     		ldrb	r0, [r4, #12]	@ zero_extendqisi2
 1855 02ac FFF7FEFF 		bl	CyDmaTdSetAddress
 1856              	.LVL262:
 691:main.c        ****     CyDmaTdSetAddress(DMA_ADC_1_TD[14], LO16((uint32)ADC_SAR_1_SAR_WRK0_PTR), LO16((uint32)signal_a
 1857              		.loc 1 691 0
 1858 02b0 4A46     		mov	r2, r9
 1859 02b2 45F6A031 		movw	r1, #23456
 1860 02b6 607B     		ldrb	r0, [r4, #13]	@ zero_extendqisi2
 1861 02b8 FFF7FEFF 		bl	CyDmaTdSetAddress
 1862              	.LVL263:
 692:main.c        ****     CyDmaTdSetAddress(DMA_ADC_1_TD[15], LO16((uint32)ADC_SAR_1_SAR_WRK0_PTR), LO16((uint32)signal_a
 1863              		.loc 1 692 0
 1864 02bc 4246     		mov	r2, r8
 1865 02be 45F6A031 		movw	r1, #23456
 1866 02c2 A07B     		ldrb	r0, [r4, #14]	@ zero_extendqisi2
 1867 02c4 FFF7FEFF 		bl	CyDmaTdSetAddress
 1868              	.LVL264:
 693:main.c        ****     CyDmaTdSetAddress(DMA_ADC_1_TD[16], LO16((uint32)ADC_SAR_1_SAR_WRK0_PTR), LO16((uint32)signal_a
 1869              		.loc 1 693 0
 1870 02c8 3A46     		mov	r2, r7
 1871 02ca 45F6A031 		movw	r1, #23456
 1872 02ce E07B     		ldrb	r0, [r4, #15]	@ zero_extendqisi2
 1873 02d0 FFF7FEFF 		bl	CyDmaTdSetAddress
 1874              	.LVL265:
 694:main.c        ****     CyDmaTdSetAddress(DMA_ADC_1_TD[17], LO16((uint32)ADC_SAR_1_SAR_WRK0_PTR), LO16((uint32)signal_a
 1875              		.loc 1 694 0
 1876 02d4 019A     		ldr	r2, [sp, #4]
 1877 02d6 45F6A031 		movw	r1, #23456
 1878 02da 207C     		ldrb	r0, [r4, #16]	@ zero_extendqisi2
 1879 02dc FFF7FEFF 		bl	CyDmaTdSetAddress
 1880              	.LVL266:
 695:main.c        ****     CyDmaTdSetAddress(DMA_ADC_1_TD[18], LO16((uint32)ADC_SAR_1_SAR_WRK0_PTR), LO16((uint32)signal_a
 1881              		.loc 1 695 0
 1882 02e0 029A     		ldr	r2, [sp, #8]
 1883 02e2 45F6A031 		movw	r1, #23456
 1884 02e6 607C     		ldrb	r0, [r4, #17]	@ zero_extendqisi2
 1885 02e8 FFF7FEFF 		bl	CyDmaTdSetAddress
 1886              	.LVL267:
 696:main.c        ****     CyDmaTdSetAddress(DMA_ADC_1_TD[19], LO16((uint32)ADC_SAR_1_SAR_WRK0_PTR), LO16((uint32)signal_a
 1887              		.loc 1 696 0
 1888 02ec 039A     		ldr	r2, [sp, #12]
 1889 02ee 45F6A031 		movw	r1, #23456
 1890 02f2 A07C     		ldrb	r0, [r4, #18]	@ zero_extendqisi2
 1891 02f4 FFF7FEFF 		bl	CyDmaTdSetAddress
 1892              	.LVL268:
 697:main.c        ****     CyDmaChSetInitialTd(DMA_ADC_1_Chan, DMA_ADC_1_TD[0]);
 1893              		.loc 1 697 0
ARM GAS  C:\Users\User\AppData\Local\Temp\ccoMSFoX.s 			page 53


 1894 02f8 3246     		mov	r2, r6
 1895 02fa 45F6A031 		movw	r1, #23456
 1896 02fe E07C     		ldrb	r0, [r4, #19]	@ zero_extendqisi2
 1897 0300 FFF7FEFF 		bl	CyDmaTdSetAddress
 1898              	.LVL269:
 698:main.c        ****     CyDmaChEnable(DMA_ADC_1_Chan, 1);     
 1899              		.loc 1 698 0
 1900 0304 064D     		ldr	r5, .L70+4
 1901 0306 2178     		ldrb	r1, [r4]	@ zero_extendqisi2
 1902 0308 2878     		ldrb	r0, [r5]	@ zero_extendqisi2
 1903 030a FFF7FEFF 		bl	CyDmaChSetInitialTd
 1904              	.LVL270:
 699:main.c        **** }
 1905              		.loc 1 699 0
 1906 030e 0121     		movs	r1, #1
 1907 0310 2878     		ldrb	r0, [r5]	@ zero_extendqisi2
 1908 0312 FFF7FEFF 		bl	CyDmaChEnable
 1909              	.LVL271:
 700:main.c        **** 
 1910              		.loc 1 700 0
 1911 0316 05B0     		add	sp, sp, #20
 1912              		.cfi_def_cfa_offset 36
 1913              		@ sp needed
 1914 0318 BDE8F08F 		pop	{r4, r5, r6, r7, r8, r9, r10, fp, pc}
 1915              	.L71:
 1916              		.align	2
 1917              	.L70:
 1918 031c 00000000 		.word	.LANCHOR0
 1919 0320 00000000 		.word	DMA_ADC_1_Chan
 1920 0324 00000000 		.word	DMA_ADC_1_TD
 1921 0328 00000000 		.word	signal_adc_1
 1922              		.cfi_endproc
 1923              	.LFE77:
 1924              		.size	dma_adc_1_init, .-dma_adc_1_init
 1925              		.section	.text.dma_adc_2_init,"ax",%progbits
 1926              		.align	2
 1927              		.global	dma_adc_2_init
 1928              		.thumb
 1929              		.thumb_func
 1930              		.type	dma_adc_2_init, %function
 1931              	dma_adc_2_init:
 1932              	.LFB78:
 703:main.c        ****     /* DMA Configuration for DMA_ADC_2 */
 1933              		.loc 1 703 0
 1934              		.cfi_startproc
 1935              		@ args = 0, pretend = 0, frame = 16
 1936              		@ frame_needed = 0, uses_anonymous_args = 0
 1937 0000 2DE9F04F 		push	{r4, r5, r6, r7, r8, r9, r10, fp, lr}
 1938              		.cfi_def_cfa_offset 36
 1939              		.cfi_offset 4, -36
 1940              		.cfi_offset 5, -32
 1941              		.cfi_offset 6, -28
 1942              		.cfi_offset 7, -24
 1943              		.cfi_offset 8, -20
 1944              		.cfi_offset 9, -16
 1945              		.cfi_offset 10, -12
 1946              		.cfi_offset 11, -8
ARM GAS  C:\Users\User\AppData\Local\Temp\ccoMSFoX.s 			page 54


 1947              		.cfi_offset 14, -4
 1948 0004 85B0     		sub	sp, sp, #20
 1949              		.cfi_def_cfa_offset 56
 705:main.c        ****     {
 1950              		.loc 1 705 0
 1951 0006 C54B     		ldr	r3, .L75
 1952 0008 5B78     		ldrb	r3, [r3, #1]	@ zero_extendqisi2
 1953 000a 002B     		cmp	r3, #0
 1954 000c 46D1     		bne	.L73
 707:main.c        ****             HI16(DMA_ADC_2_SRC_BASE), HI16(DMA_ADC_2_DST_BASE));
 1955              		.loc 1 707 0
 1956 000e 41F6FF73 		movw	r3, #8191
 1957 0012 4FF48042 		mov	r2, #16384
 1958 0016 0121     		movs	r1, #1
 1959 0018 0220     		movs	r0, #2
 1960 001a FFF7FEFF 		bl	DMA_ADC_2_DmaInitialize
 1961              	.LVL272:
 1962 001e C04B     		ldr	r3, .L75+4
 1963 0020 1870     		strb	r0, [r3]
 709:main.c        ****         DMA_ADC_2_TD[1] = CyDmaTdAllocate();
 1964              		.loc 1 709 0
 1965 0022 FFF7FEFF 		bl	CyDmaTdAllocate
 1966              	.LVL273:
 1967 0026 BF4C     		ldr	r4, .L75+8
 1968 0028 2070     		strb	r0, [r4]
 710:main.c        ****         DMA_ADC_2_TD[2] = CyDmaTdAllocate();
 1969              		.loc 1 710 0
 1970 002a FFF7FEFF 		bl	CyDmaTdAllocate
 1971              	.LVL274:
 1972 002e 6070     		strb	r0, [r4, #1]
 711:main.c        ****         DMA_ADC_2_TD[3] = CyDmaTdAllocate();
 1973              		.loc 1 711 0
 1974 0030 FFF7FEFF 		bl	CyDmaTdAllocate
 1975              	.LVL275:
 1976 0034 A070     		strb	r0, [r4, #2]
 712:main.c        ****         DMA_ADC_2_TD[4] = CyDmaTdAllocate();
 1977              		.loc 1 712 0
 1978 0036 FFF7FEFF 		bl	CyDmaTdAllocate
 1979              	.LVL276:
 1980 003a E070     		strb	r0, [r4, #3]
 713:main.c        ****         DMA_ADC_2_TD[5] = CyDmaTdAllocate();
 1981              		.loc 1 713 0
 1982 003c FFF7FEFF 		bl	CyDmaTdAllocate
 1983              	.LVL277:
 1984 0040 2071     		strb	r0, [r4, #4]
 714:main.c        ****         DMA_ADC_2_TD[6] = CyDmaTdAllocate();
 1985              		.loc 1 714 0
 1986 0042 FFF7FEFF 		bl	CyDmaTdAllocate
 1987              	.LVL278:
 1988 0046 6071     		strb	r0, [r4, #5]
 715:main.c        ****         DMA_ADC_2_TD[7] = CyDmaTdAllocate();
 1989              		.loc 1 715 0
 1990 0048 FFF7FEFF 		bl	CyDmaTdAllocate
 1991              	.LVL279:
 1992 004c A071     		strb	r0, [r4, #6]
 716:main.c        ****         DMA_ADC_2_TD[8] = CyDmaTdAllocate();
 1993              		.loc 1 716 0
ARM GAS  C:\Users\User\AppData\Local\Temp\ccoMSFoX.s 			page 55


 1994 004e FFF7FEFF 		bl	CyDmaTdAllocate
 1995              	.LVL280:
 1996 0052 E071     		strb	r0, [r4, #7]
 717:main.c        ****         DMA_ADC_2_TD[9] = CyDmaTdAllocate();
 1997              		.loc 1 717 0
 1998 0054 FFF7FEFF 		bl	CyDmaTdAllocate
 1999              	.LVL281:
 2000 0058 2072     		strb	r0, [r4, #8]
 718:main.c        ****         DMA_ADC_2_TD[10] = CyDmaTdAllocate();
 2001              		.loc 1 718 0
 2002 005a FFF7FEFF 		bl	CyDmaTdAllocate
 2003              	.LVL282:
 2004 005e 6072     		strb	r0, [r4, #9]
 719:main.c        ****         DMA_ADC_2_TD[11] = CyDmaTdAllocate();
 2005              		.loc 1 719 0
 2006 0060 FFF7FEFF 		bl	CyDmaTdAllocate
 2007              	.LVL283:
 2008 0064 A072     		strb	r0, [r4, #10]
 720:main.c        ****         DMA_ADC_2_TD[12] = CyDmaTdAllocate();
 2009              		.loc 1 720 0
 2010 0066 FFF7FEFF 		bl	CyDmaTdAllocate
 2011              	.LVL284:
 2012 006a E072     		strb	r0, [r4, #11]
 721:main.c        ****         DMA_ADC_2_TD[13] = CyDmaTdAllocate();
 2013              		.loc 1 721 0
 2014 006c FFF7FEFF 		bl	CyDmaTdAllocate
 2015              	.LVL285:
 2016 0070 2073     		strb	r0, [r4, #12]
 722:main.c        ****         DMA_ADC_2_TD[14] = CyDmaTdAllocate();
 2017              		.loc 1 722 0
 2018 0072 FFF7FEFF 		bl	CyDmaTdAllocate
 2019              	.LVL286:
 2020 0076 6073     		strb	r0, [r4, #13]
 723:main.c        ****         DMA_ADC_2_TD[15] = CyDmaTdAllocate();
 2021              		.loc 1 723 0
 2022 0078 FFF7FEFF 		bl	CyDmaTdAllocate
 2023              	.LVL287:
 2024 007c A073     		strb	r0, [r4, #14]
 724:main.c        ****         DMA_ADC_2_TD[16] = CyDmaTdAllocate();
 2025              		.loc 1 724 0
 2026 007e FFF7FEFF 		bl	CyDmaTdAllocate
 2027              	.LVL288:
 2028 0082 E073     		strb	r0, [r4, #15]
 725:main.c        ****         DMA_ADC_2_TD[17] = CyDmaTdAllocate();
 2029              		.loc 1 725 0
 2030 0084 FFF7FEFF 		bl	CyDmaTdAllocate
 2031              	.LVL289:
 2032 0088 2074     		strb	r0, [r4, #16]
 726:main.c        ****         DMA_ADC_2_TD[18] = CyDmaTdAllocate();
 2033              		.loc 1 726 0
 2034 008a FFF7FEFF 		bl	CyDmaTdAllocate
 2035              	.LVL290:
 2036 008e 6074     		strb	r0, [r4, #17]
 727:main.c        ****         DMA_ADC_2_TD[19] = CyDmaTdAllocate();
 2037              		.loc 1 727 0
 2038 0090 FFF7FEFF 		bl	CyDmaTdAllocate
 2039              	.LVL291:
ARM GAS  C:\Users\User\AppData\Local\Temp\ccoMSFoX.s 			page 56


 2040 0094 A074     		strb	r0, [r4, #18]
 728:main.c        ****     }
 2041              		.loc 1 728 0
 2042 0096 FFF7FEFF 		bl	CyDmaTdAllocate
 2043              	.LVL292:
 2044 009a E074     		strb	r0, [r4, #19]
 2045              	.L73:
 730:main.c        ****     CyDmaTdSetConfiguration(DMA_ADC_2_TD[1], NSAMPLES_ADC/(N_TDS_ADC/2) * DMA_ADC_2_BYTES_PER_BURST
 2046              		.loc 1 730 0
 2047 009c A14C     		ldr	r4, .L75+8
 2048 009e 0223     		movs	r3, #2
 2049 00a0 6278     		ldrb	r2, [r4, #1]	@ zero_extendqisi2
 2050 00a2 40F6B831 		movw	r1, #3000
 2051 00a6 2078     		ldrb	r0, [r4]	@ zero_extendqisi2
 2052 00a8 FFF7FEFF 		bl	CyDmaTdSetConfiguration
 2053              	.LVL293:
 731:main.c        ****     CyDmaTdSetConfiguration(DMA_ADC_2_TD[2], NSAMPLES_ADC/(N_TDS_ADC/2) * DMA_ADC_2_BYTES_PER_BURST
 2054              		.loc 1 731 0
 2055 00ac 0223     		movs	r3, #2
 2056 00ae A278     		ldrb	r2, [r4, #2]	@ zero_extendqisi2
 2057 00b0 40F6B831 		movw	r1, #3000
 2058 00b4 6078     		ldrb	r0, [r4, #1]	@ zero_extendqisi2
 2059 00b6 FFF7FEFF 		bl	CyDmaTdSetConfiguration
 2060              	.LVL294:
 732:main.c        ****     CyDmaTdSetConfiguration(DMA_ADC_2_TD[3], NSAMPLES_ADC/(N_TDS_ADC/2) * DMA_ADC_2_BYTES_PER_BURST
 2061              		.loc 1 732 0
 2062 00ba 0223     		movs	r3, #2
 2063 00bc E278     		ldrb	r2, [r4, #3]	@ zero_extendqisi2
 2064 00be 40F6B831 		movw	r1, #3000
 2065 00c2 A078     		ldrb	r0, [r4, #2]	@ zero_extendqisi2
 2066 00c4 FFF7FEFF 		bl	CyDmaTdSetConfiguration
 2067              	.LVL295:
 733:main.c        ****     CyDmaTdSetConfiguration(DMA_ADC_2_TD[4], NSAMPLES_ADC/(N_TDS_ADC/2) * DMA_ADC_2_BYTES_PER_BURST
 2068              		.loc 1 733 0
 2069 00c8 0223     		movs	r3, #2
 2070 00ca 2279     		ldrb	r2, [r4, #4]	@ zero_extendqisi2
 2071 00cc 40F6B831 		movw	r1, #3000
 2072 00d0 E078     		ldrb	r0, [r4, #3]	@ zero_extendqisi2
 2073 00d2 FFF7FEFF 		bl	CyDmaTdSetConfiguration
 2074              	.LVL296:
 734:main.c        ****     CyDmaTdSetConfiguration(DMA_ADC_2_TD[5], NSAMPLES_ADC/(N_TDS_ADC/2) * DMA_ADC_2_BYTES_PER_BURST
 2075              		.loc 1 734 0
 2076 00d6 0223     		movs	r3, #2
 2077 00d8 6279     		ldrb	r2, [r4, #5]	@ zero_extendqisi2
 2078 00da 40F6B831 		movw	r1, #3000
 2079 00de 2079     		ldrb	r0, [r4, #4]	@ zero_extendqisi2
 2080 00e0 FFF7FEFF 		bl	CyDmaTdSetConfiguration
 2081              	.LVL297:
 735:main.c        ****     CyDmaTdSetConfiguration(DMA_ADC_2_TD[6], NSAMPLES_ADC/(N_TDS_ADC/2) * DMA_ADC_2_BYTES_PER_BURST
 2082              		.loc 1 735 0
 2083 00e4 0223     		movs	r3, #2
 2084 00e6 A279     		ldrb	r2, [r4, #6]	@ zero_extendqisi2
 2085 00e8 40F6B831 		movw	r1, #3000
 2086 00ec 6079     		ldrb	r0, [r4, #5]	@ zero_extendqisi2
 2087 00ee FFF7FEFF 		bl	CyDmaTdSetConfiguration
 2088              	.LVL298:
 736:main.c        ****     CyDmaTdSetConfiguration(DMA_ADC_2_TD[7], NSAMPLES_ADC/(N_TDS_ADC/2) * DMA_ADC_2_BYTES_PER_BURST
ARM GAS  C:\Users\User\AppData\Local\Temp\ccoMSFoX.s 			page 57


 2089              		.loc 1 736 0
 2090 00f2 0223     		movs	r3, #2
 2091 00f4 E279     		ldrb	r2, [r4, #7]	@ zero_extendqisi2
 2092 00f6 40F6B831 		movw	r1, #3000
 2093 00fa A079     		ldrb	r0, [r4, #6]	@ zero_extendqisi2
 2094 00fc FFF7FEFF 		bl	CyDmaTdSetConfiguration
 2095              	.LVL299:
 737:main.c        ****     CyDmaTdSetConfiguration(DMA_ADC_2_TD[8], NSAMPLES_ADC/(N_TDS_ADC/2) * DMA_ADC_2_BYTES_PER_BURST
 2096              		.loc 1 737 0
 2097 0100 0223     		movs	r3, #2
 2098 0102 227A     		ldrb	r2, [r4, #8]	@ zero_extendqisi2
 2099 0104 40F6B831 		movw	r1, #3000
 2100 0108 E079     		ldrb	r0, [r4, #7]	@ zero_extendqisi2
 2101 010a FFF7FEFF 		bl	CyDmaTdSetConfiguration
 2102              	.LVL300:
 738:main.c        ****     CyDmaTdSetConfiguration(DMA_ADC_2_TD[9], NSAMPLES_ADC/(N_TDS_ADC/2) * DMA_ADC_2_BYTES_PER_BURST
 2103              		.loc 1 738 0
 2104 010e 0223     		movs	r3, #2
 2105 0110 627A     		ldrb	r2, [r4, #9]	@ zero_extendqisi2
 2106 0112 40F6B831 		movw	r1, #3000
 2107 0116 207A     		ldrb	r0, [r4, #8]	@ zero_extendqisi2
 2108 0118 FFF7FEFF 		bl	CyDmaTdSetConfiguration
 2109              	.LVL301:
 739:main.c        ****     CyDmaTdSetConfiguration(DMA_ADC_2_TD[10], NSAMPLES_ADC/(N_TDS_ADC/2) * DMA_ADC_2_BYTES_PER_BURS
 2110              		.loc 1 739 0
 2111 011c 0223     		movs	r3, #2
 2112 011e A27A     		ldrb	r2, [r4, #10]	@ zero_extendqisi2
 2113 0120 40F6B831 		movw	r1, #3000
 2114 0124 607A     		ldrb	r0, [r4, #9]	@ zero_extendqisi2
 2115 0126 FFF7FEFF 		bl	CyDmaTdSetConfiguration
 2116              	.LVL302:
 740:main.c        ****     CyDmaTdSetConfiguration(DMA_ADC_2_TD[11], NSAMPLES_ADC/(N_TDS_ADC/2) * DMA_ADC_2_BYTES_PER_BURS
 2117              		.loc 1 740 0
 2118 012a 0223     		movs	r3, #2
 2119 012c E27A     		ldrb	r2, [r4, #11]	@ zero_extendqisi2
 2120 012e 40F6B831 		movw	r1, #3000
 2121 0132 A07A     		ldrb	r0, [r4, #10]	@ zero_extendqisi2
 2122 0134 FFF7FEFF 		bl	CyDmaTdSetConfiguration
 2123              	.LVL303:
 741:main.c        ****     CyDmaTdSetConfiguration(DMA_ADC_2_TD[12], NSAMPLES_ADC/(N_TDS_ADC/2) * DMA_ADC_2_BYTES_PER_BURS
 2124              		.loc 1 741 0
 2125 0138 0223     		movs	r3, #2
 2126 013a 227B     		ldrb	r2, [r4, #12]	@ zero_extendqisi2
 2127 013c 40F6B831 		movw	r1, #3000
 2128 0140 E07A     		ldrb	r0, [r4, #11]	@ zero_extendqisi2
 2129 0142 FFF7FEFF 		bl	CyDmaTdSetConfiguration
 2130              	.LVL304:
 742:main.c        ****     CyDmaTdSetConfiguration(DMA_ADC_2_TD[13], NSAMPLES_ADC/(N_TDS_ADC/2) * DMA_ADC_2_BYTES_PER_BURS
 2131              		.loc 1 742 0
 2132 0146 0223     		movs	r3, #2
 2133 0148 627B     		ldrb	r2, [r4, #13]	@ zero_extendqisi2
 2134 014a 40F6B831 		movw	r1, #3000
 2135 014e 207B     		ldrb	r0, [r4, #12]	@ zero_extendqisi2
 2136 0150 FFF7FEFF 		bl	CyDmaTdSetConfiguration
 2137              	.LVL305:
 743:main.c        ****     CyDmaTdSetConfiguration(DMA_ADC_2_TD[14], NSAMPLES_ADC/(N_TDS_ADC/2) * DMA_ADC_2_BYTES_PER_BURS
 2138              		.loc 1 743 0
ARM GAS  C:\Users\User\AppData\Local\Temp\ccoMSFoX.s 			page 58


 2139 0154 0223     		movs	r3, #2
 2140 0156 A27B     		ldrb	r2, [r4, #14]	@ zero_extendqisi2
 2141 0158 40F6B831 		movw	r1, #3000
 2142 015c 607B     		ldrb	r0, [r4, #13]	@ zero_extendqisi2
 2143 015e FFF7FEFF 		bl	CyDmaTdSetConfiguration
 2144              	.LVL306:
 744:main.c        ****     CyDmaTdSetConfiguration(DMA_ADC_2_TD[15], NSAMPLES_ADC/(N_TDS_ADC/2) * DMA_ADC_2_BYTES_PER_BURS
 2145              		.loc 1 744 0
 2146 0162 0223     		movs	r3, #2
 2147 0164 E27B     		ldrb	r2, [r4, #15]	@ zero_extendqisi2
 2148 0166 40F6B831 		movw	r1, #3000
 2149 016a A07B     		ldrb	r0, [r4, #14]	@ zero_extendqisi2
 2150 016c FFF7FEFF 		bl	CyDmaTdSetConfiguration
 2151              	.LVL307:
 745:main.c        ****     CyDmaTdSetConfiguration(DMA_ADC_2_TD[16], NSAMPLES_ADC/(N_TDS_ADC/2) * DMA_ADC_2_BYTES_PER_BURS
 2152              		.loc 1 745 0
 2153 0170 0223     		movs	r3, #2
 2154 0172 227C     		ldrb	r2, [r4, #16]	@ zero_extendqisi2
 2155 0174 40F6B831 		movw	r1, #3000
 2156 0178 E07B     		ldrb	r0, [r4, #15]	@ zero_extendqisi2
 2157 017a FFF7FEFF 		bl	CyDmaTdSetConfiguration
 2158              	.LVL308:
 746:main.c        ****     CyDmaTdSetConfiguration(DMA_ADC_2_TD[17], NSAMPLES_ADC/(N_TDS_ADC/2) * DMA_ADC_2_BYTES_PER_BURS
 2159              		.loc 1 746 0
 2160 017e 0223     		movs	r3, #2
 2161 0180 627C     		ldrb	r2, [r4, #17]	@ zero_extendqisi2
 2162 0182 40F6B831 		movw	r1, #3000
 2163 0186 207C     		ldrb	r0, [r4, #16]	@ zero_extendqisi2
 2164 0188 FFF7FEFF 		bl	CyDmaTdSetConfiguration
 2165              	.LVL309:
 747:main.c        ****     CyDmaTdSetConfiguration(DMA_ADC_2_TD[18], NSAMPLES_ADC/(N_TDS_ADC/2) * DMA_ADC_2_BYTES_PER_BURS
 2166              		.loc 1 747 0
 2167 018c 0223     		movs	r3, #2
 2168 018e A27C     		ldrb	r2, [r4, #18]	@ zero_extendqisi2
 2169 0190 40F6B831 		movw	r1, #3000
 2170 0194 607C     		ldrb	r0, [r4, #17]	@ zero_extendqisi2
 2171 0196 FFF7FEFF 		bl	CyDmaTdSetConfiguration
 2172              	.LVL310:
 748:main.c        ****     CyDmaTdSetConfiguration(DMA_ADC_2_TD[19], NSAMPLES_ADC/(N_TDS_ADC/2) * DMA_ADC_2_BYTES_PER_BURS
 2173              		.loc 1 748 0
 2174 019a 0223     		movs	r3, #2
 2175 019c E27C     		ldrb	r2, [r4, #19]	@ zero_extendqisi2
 2176 019e 40F6B831 		movw	r1, #3000
 2177 01a2 A07C     		ldrb	r0, [r4, #18]	@ zero_extendqisi2
 2178 01a4 FFF7FEFF 		bl	CyDmaTdSetConfiguration
 2179              	.LVL311:
 749:main.c        ****     CyDmaTdSetAddress(DMA_ADC_2_TD[0], LO16((uint32)ADC_SAR_2_SAR_WRK0_PTR), LO16((uint32)signal_ad
 2180              		.loc 1 749 0
 2181 01a8 0623     		movs	r3, #6
 2182 01aa FE22     		movs	r2, #254
 2183 01ac 40F6B831 		movw	r1, #3000
 2184 01b0 E07C     		ldrb	r0, [r4, #19]	@ zero_extendqisi2
 2185 01b2 FFF7FEFF 		bl	CyDmaTdSetConfiguration
 2186              	.LVL312:
 750:main.c        ****     CyDmaTdSetAddress(DMA_ADC_2_TD[1], LO16((uint32)ADC_SAR_2_SAR_WRK0_PTR), LO16((uint32)signal_ad
 2187              		.loc 1 750 0
 2188 01b6 5C4D     		ldr	r5, .L75+12
ARM GAS  C:\Users\User\AppData\Local\Temp\ccoMSFoX.s 			page 59


 2189 01b8 ADB2     		uxth	r5, r5
 2190 01ba 2A46     		mov	r2, r5
 2191 01bc 45F6A231 		movw	r1, #23458
 2192 01c0 2078     		ldrb	r0, [r4]	@ zero_extendqisi2
 2193 01c2 FFF7FEFF 		bl	CyDmaTdSetAddress
 2194              	.LVL313:
 751:main.c        ****     CyDmaTdSetAddress(DMA_ADC_2_TD[2], LO16((uint32)ADC_SAR_2_SAR_WRK0_PTR), LO16((uint32)signal_ad
 2195              		.loc 1 751 0
 2196 01c6 05F6B83B 		addw	fp, r5, #3000
 2197 01ca 1FFA8BFB 		uxth	fp, fp
 2198 01ce 5A46     		mov	r2, fp
 2199 01d0 45F6A231 		movw	r1, #23458
 2200 01d4 6078     		ldrb	r0, [r4, #1]	@ zero_extendqisi2
 2201 01d6 FFF7FEFF 		bl	CyDmaTdSetAddress
 2202              	.LVL314:
 752:main.c        ****     CyDmaTdSetAddress(DMA_ADC_2_TD[3], LO16((uint32)ADC_SAR_2_SAR_WRK0_PTR), LO16((uint32)signal_ad
 2203              		.loc 1 752 0
 2204 01da 05F5BB5A 		add	r10, r5, #5984
 2205 01de 0AF1100A 		add	r10, r10, #16
 2206 01e2 1FFA8AFA 		uxth	r10, r10
 2207 01e6 5246     		mov	r2, r10
 2208 01e8 45F6A231 		movw	r1, #23458
 2209 01ec A078     		ldrb	r0, [r4, #2]	@ zero_extendqisi2
 2210 01ee FFF7FEFF 		bl	CyDmaTdSetAddress
 2211              	.LVL315:
 753:main.c        ****     CyDmaTdSetAddress(DMA_ADC_2_TD[4], LO16((uint32)ADC_SAR_2_SAR_WRK0_PTR), LO16((uint32)signal_ad
 2212              		.loc 1 753 0
 2213 01f2 05F50C59 		add	r9, r5, #8960
 2214 01f6 09F12809 		add	r9, r9, #40
 2215 01fa 1FFA89F9 		uxth	r9, r9
 2216 01fe 4A46     		mov	r2, r9
 2217 0200 45F6A231 		movw	r1, #23458
 2218 0204 E078     		ldrb	r0, [r4, #3]	@ zero_extendqisi2
 2219 0206 FFF7FEFF 		bl	CyDmaTdSetAddress
 2220              	.LVL316:
 754:main.c        ****     CyDmaTdSetAddress(DMA_ADC_2_TD[5], LO16((uint32)ADC_SAR_2_SAR_WRK0_PTR), LO16((uint32)signal_ad
 2221              		.loc 1 754 0
 2222 020a 05F53B58 		add	r8, r5, #11968
 2223 020e 08F12008 		add	r8, r8, #32
 2224 0212 1FFA88F8 		uxth	r8, r8
 2225 0216 4246     		mov	r2, r8
 2226 0218 45F6A231 		movw	r1, #23458
 2227 021c 2079     		ldrb	r0, [r4, #4]	@ zero_extendqisi2
 2228 021e FFF7FEFF 		bl	CyDmaTdSetAddress
 2229              	.LVL317:
 755:main.c        ****     CyDmaTdSetAddress(DMA_ADC_2_TD[6], LO16((uint32)ADC_SAR_2_SAR_WRK0_PTR), LO16((uint32)signal_ad
 2230              		.loc 1 755 0
 2231 0222 05F56A57 		add	r7, r5, #14976
 2232 0226 1837     		adds	r7, r7, #24
 2233 0228 BFB2     		uxth	r7, r7
 2234 022a 3A46     		mov	r2, r7
 2235 022c 45F6A231 		movw	r1, #23458
 2236 0230 6079     		ldrb	r0, [r4, #5]	@ zero_extendqisi2
 2237 0232 FFF7FEFF 		bl	CyDmaTdSetAddress
 2238              	.LVL318:
 756:main.c        ****     CyDmaTdSetAddress(DMA_ADC_2_TD[7], LO16((uint32)ADC_SAR_2_SAR_WRK0_PTR), LO16((uint32)signal_ad
 2239              		.loc 1 756 0
ARM GAS  C:\Users\User\AppData\Local\Temp\ccoMSFoX.s 			page 60


 2240 0236 05F58C43 		add	r3, r5, #17920
 2241 023a 5033     		adds	r3, r3, #80
 2242 023c 9BB2     		uxth	r3, r3
 2243 023e 0193     		str	r3, [sp, #4]
 2244 0240 1A46     		mov	r2, r3
 2245 0242 45F6A231 		movw	r1, #23458
 2246 0246 A079     		ldrb	r0, [r4, #6]	@ zero_extendqisi2
 2247 0248 FFF7FEFF 		bl	CyDmaTdSetAddress
 2248              	.LVL319:
 757:main.c        ****     CyDmaTdSetAddress(DMA_ADC_2_TD[8], LO16((uint32)ADC_SAR_2_SAR_WRK0_PTR), LO16((uint32)signal_ad
 2249              		.loc 1 757 0
 2250 024c 05F5A443 		add	r3, r5, #20992
 2251 0250 0833     		adds	r3, r3, #8
 2252 0252 99B2     		uxth	r1, r3
 2253 0254 0291     		str	r1, [sp, #8]
 2254 0256 0A46     		mov	r2, r1
 2255 0258 45F6A231 		movw	r1, #23458
 2256 025c E079     		ldrb	r0, [r4, #7]	@ zero_extendqisi2
 2257 025e FFF7FEFF 		bl	CyDmaTdSetAddress
 2258              	.LVL320:
 758:main.c        ****     CyDmaTdSetAddress(DMA_ADC_2_TD[9], LO16((uint32)ADC_SAR_2_SAR_WRK0_PTR), LO16((uint32)signal_ad
 2259              		.loc 1 758 0
 2260 0262 05F5BB43 		add	r3, r5, #23936
 2261 0266 4033     		adds	r3, r3, #64
 2262 0268 98B2     		uxth	r0, r3
 2263 026a 0390     		str	r0, [sp, #12]
 2264 026c 0246     		mov	r2, r0
 2265 026e 45F6A231 		movw	r1, #23458
 2266 0272 207A     		ldrb	r0, [r4, #8]	@ zero_extendqisi2
 2267 0274 FFF7FEFF 		bl	CyDmaTdSetAddress
 2268              	.LVL321:
 759:main.c        ****     CyDmaTdSetAddress(DMA_ADC_2_TD[10], LO16((uint32)ADC_SAR_2_SAR_WRK0_PTR), LO16((uint32)signal_a
 2269              		.loc 1 759 0
 2270 0278 05F5D246 		add	r6, r5, #26880
 2271 027c 7836     		adds	r6, r6, #120
 2272 027e B6B2     		uxth	r6, r6
 2273 0280 3246     		mov	r2, r6
 2274 0282 45F6A231 		movw	r1, #23458
 2275 0286 607A     		ldrb	r0, [r4, #9]	@ zero_extendqisi2
 2276 0288 FFF7FEFF 		bl	CyDmaTdSetAddress
 2277              	.LVL322:
 760:main.c        ****     CyDmaTdSetAddress(DMA_ADC_2_TD[11], LO16((uint32)ADC_SAR_2_SAR_WRK0_PTR), LO16((uint32)signal_a
 2278              		.loc 1 760 0
 2279 028c 2A46     		mov	r2, r5
 2280 028e 45F6A231 		movw	r1, #23458
 2281 0292 A07A     		ldrb	r0, [r4, #10]	@ zero_extendqisi2
 2282 0294 FFF7FEFF 		bl	CyDmaTdSetAddress
 2283              	.LVL323:
 761:main.c        ****     CyDmaTdSetAddress(DMA_ADC_2_TD[12], LO16((uint32)ADC_SAR_2_SAR_WRK0_PTR), LO16((uint32)signal_a
 2284              		.loc 1 761 0
 2285 0298 5A46     		mov	r2, fp
 2286 029a 45F6A231 		movw	r1, #23458
 2287 029e E07A     		ldrb	r0, [r4, #11]	@ zero_extendqisi2
 2288 02a0 FFF7FEFF 		bl	CyDmaTdSetAddress
 2289              	.LVL324:
 762:main.c        ****     CyDmaTdSetAddress(DMA_ADC_2_TD[13], LO16((uint32)ADC_SAR_2_SAR_WRK0_PTR), LO16((uint32)signal_a
 2290              		.loc 1 762 0
ARM GAS  C:\Users\User\AppData\Local\Temp\ccoMSFoX.s 			page 61


 2291 02a4 5246     		mov	r2, r10
 2292 02a6 45F6A231 		movw	r1, #23458
 2293 02aa 207B     		ldrb	r0, [r4, #12]	@ zero_extendqisi2
 2294 02ac FFF7FEFF 		bl	CyDmaTdSetAddress
 2295              	.LVL325:
 763:main.c        ****     CyDmaTdSetAddress(DMA_ADC_2_TD[14], LO16((uint32)ADC_SAR_2_SAR_WRK0_PTR), LO16((uint32)signal_a
 2296              		.loc 1 763 0
 2297 02b0 4A46     		mov	r2, r9
 2298 02b2 45F6A231 		movw	r1, #23458
 2299 02b6 607B     		ldrb	r0, [r4, #13]	@ zero_extendqisi2
 2300 02b8 FFF7FEFF 		bl	CyDmaTdSetAddress
 2301              	.LVL326:
 764:main.c        ****     CyDmaTdSetAddress(DMA_ADC_2_TD[15], LO16((uint32)ADC_SAR_2_SAR_WRK0_PTR), LO16((uint32)signal_a
 2302              		.loc 1 764 0
 2303 02bc 4246     		mov	r2, r8
 2304 02be 45F6A231 		movw	r1, #23458
 2305 02c2 A07B     		ldrb	r0, [r4, #14]	@ zero_extendqisi2
 2306 02c4 FFF7FEFF 		bl	CyDmaTdSetAddress
 2307              	.LVL327:
 765:main.c        ****     CyDmaTdSetAddress(DMA_ADC_2_TD[16], LO16((uint32)ADC_SAR_2_SAR_WRK0_PTR), LO16((uint32)signal_a
 2308              		.loc 1 765 0
 2309 02c8 3A46     		mov	r2, r7
 2310 02ca 45F6A231 		movw	r1, #23458
 2311 02ce E07B     		ldrb	r0, [r4, #15]	@ zero_extendqisi2
 2312 02d0 FFF7FEFF 		bl	CyDmaTdSetAddress
 2313              	.LVL328:
 766:main.c        ****     CyDmaTdSetAddress(DMA_ADC_2_TD[17], LO16((uint32)ADC_SAR_2_SAR_WRK0_PTR), LO16((uint32)signal_a
 2314              		.loc 1 766 0
 2315 02d4 019A     		ldr	r2, [sp, #4]
 2316 02d6 45F6A231 		movw	r1, #23458
 2317 02da 207C     		ldrb	r0, [r4, #16]	@ zero_extendqisi2
 2318 02dc FFF7FEFF 		bl	CyDmaTdSetAddress
 2319              	.LVL329:
 767:main.c        ****     CyDmaTdSetAddress(DMA_ADC_2_TD[18], LO16((uint32)ADC_SAR_2_SAR_WRK0_PTR), LO16((uint32)signal_a
 2320              		.loc 1 767 0
 2321 02e0 029A     		ldr	r2, [sp, #8]
 2322 02e2 45F6A231 		movw	r1, #23458
 2323 02e6 607C     		ldrb	r0, [r4, #17]	@ zero_extendqisi2
 2324 02e8 FFF7FEFF 		bl	CyDmaTdSetAddress
 2325              	.LVL330:
 768:main.c        ****     CyDmaTdSetAddress(DMA_ADC_2_TD[19], LO16((uint32)ADC_SAR_2_SAR_WRK0_PTR), LO16((uint32)signal_a
 2326              		.loc 1 768 0
 2327 02ec 039A     		ldr	r2, [sp, #12]
 2328 02ee 45F6A231 		movw	r1, #23458
 2329 02f2 A07C     		ldrb	r0, [r4, #18]	@ zero_extendqisi2
 2330 02f4 FFF7FEFF 		bl	CyDmaTdSetAddress
 2331              	.LVL331:
 769:main.c        ****     CyDmaChSetInitialTd(DMA_ADC_2_Chan, DMA_ADC_2_TD[0]);
 2332              		.loc 1 769 0
 2333 02f8 3246     		mov	r2, r6
 2334 02fa 45F6A231 		movw	r1, #23458
 2335 02fe E07C     		ldrb	r0, [r4, #19]	@ zero_extendqisi2
 2336 0300 FFF7FEFF 		bl	CyDmaTdSetAddress
 2337              	.LVL332:
 770:main.c        ****     CyDmaChEnable(DMA_ADC_2_Chan, 1);     
 2338              		.loc 1 770 0
 2339 0304 064D     		ldr	r5, .L75+4
ARM GAS  C:\Users\User\AppData\Local\Temp\ccoMSFoX.s 			page 62


 2340 0306 2178     		ldrb	r1, [r4]	@ zero_extendqisi2
 2341 0308 2878     		ldrb	r0, [r5]	@ zero_extendqisi2
 2342 030a FFF7FEFF 		bl	CyDmaChSetInitialTd
 2343              	.LVL333:
 771:main.c        **** }
 2344              		.loc 1 771 0
 2345 030e 0121     		movs	r1, #1
 2346 0310 2878     		ldrb	r0, [r5]	@ zero_extendqisi2
 2347 0312 FFF7FEFF 		bl	CyDmaChEnable
 2348              	.LVL334:
 772:main.c        **** 
 2349              		.loc 1 772 0
 2350 0316 05B0     		add	sp, sp, #20
 2351              		.cfi_def_cfa_offset 36
 2352              		@ sp needed
 2353 0318 BDE8F08F 		pop	{r4, r5, r6, r7, r8, r9, r10, fp, pc}
 2354              	.L76:
 2355              		.align	2
 2356              	.L75:
 2357 031c 00000000 		.word	.LANCHOR0
 2358 0320 00000000 		.word	DMA_ADC_2_Chan
 2359 0324 00000000 		.word	DMA_ADC_2_TD
 2360 0328 00000000 		.word	signal_adc_2
 2361              		.cfi_endproc
 2362              	.LFE78:
 2363              		.size	dma_adc_2_init, .-dma_adc_2_init
 2364              		.section	.text.run_sequence,"ax",%progbits
 2365              		.align	2
 2366              		.global	run_sequence
 2367              		.thumb
 2368              		.thumb_func
 2369              		.type	run_sequence, %function
 2370              	run_sequence:
 2371              	.LFB71:
 411:main.c        ****     internTrigger_Write(STOP_CLOCK);
 2372              		.loc 1 411 0
 2373              		.cfi_startproc
 2374              		@ args = 0, pretend = 0, frame = 0
 2375              		@ frame_needed = 0, uses_anonymous_args = 0
 2376              	.LVL335:
 2377 0000 10B5     		push	{r4, lr}
 2378              		.cfi_def_cfa_offset 8
 2379              		.cfi_offset 4, -8
 2380              		.cfi_offset 14, -4
 2381 0002 0446     		mov	r4, r0
 412:main.c        ****     
 2382              		.loc 1 412 0
 2383 0004 0120     		movs	r0, #1
 2384              	.LVL336:
 2385 0006 FFF7FEFF 		bl	internTrigger_Write
 2386              	.LVL337:
 414:main.c        ****         ShiftReg_2_Stop(); ShiftReg_2_WriteRegValue(CLOCK_SHIFT_CH2); ShiftReg_2_Start();
 2387              		.loc 1 414 0
 2388 000a FFF7FEFF 		bl	ShiftReg_1_Stop
 2389              	.LVL338:
 2390 000e 0C20     		movs	r0, #12
 2391 0010 FFF7FEFF 		bl	ShiftReg_1_WriteRegValue
ARM GAS  C:\Users\User\AppData\Local\Temp\ccoMSFoX.s 			page 63


 2392              	.LVL339:
 2393 0014 FFF7FEFF 		bl	ShiftReg_1_Start
 2394              	.LVL340:
 415:main.c        ****         ShiftReg_3_Stop(); ShiftReg_3_WriteRegValue(CLOCK_SHIFT_CH3); ShiftReg_3_Start();
 2395              		.loc 1 415 0
 2396 0018 FFF7FEFF 		bl	ShiftReg_2_Stop
 2397              	.LVL341:
 2398 001c 0620     		movs	r0, #6
 2399 001e FFF7FEFF 		bl	ShiftReg_2_WriteRegValue
 2400              	.LVL342:
 2401 0022 FFF7FEFF 		bl	ShiftReg_2_Start
 2402              	.LVL343:
 416:main.c        ****         ShiftReg_4_Stop(); ShiftReg_4_WriteRegValue(CLOCK_SHIFT_CH4); ShiftReg_4_Start();
 2403              		.loc 1 416 0
 2404 0026 FFF7FEFF 		bl	ShiftReg_3_Stop
 2405              	.LVL344:
 2406 002a 0320     		movs	r0, #3
 2407 002c FFF7FEFF 		bl	ShiftReg_3_WriteRegValue
 2408              	.LVL345:
 2409 0030 FFF7FEFF 		bl	ShiftReg_3_Start
 2410              	.LVL346:
 417:main.c        **** 
 2411              		.loc 1 417 0
 2412 0034 FFF7FEFF 		bl	ShiftReg_4_Stop
 2413              	.LVL347:
 2414 0038 0920     		movs	r0, #9
 2415 003a FFF7FEFF 		bl	ShiftReg_4_WriteRegValue
 2416              	.LVL348:
 2417 003e FFF7FEFF 		bl	ShiftReg_4_Start
 2418              	.LVL349:
 419:main.c        ****         dma_dac_2_init();
 2419              		.loc 1 419 0
 2420 0042 FFF7FEFF 		bl	dma_dac_1_init
 2421              	.LVL350:
 420:main.c        ****         if( selSequ == KEY_RUN_ALT)
 2422              		.loc 1 420 0
 2423 0046 FFF7FEFF 		bl	dma_dac_2_init
 2424              	.LVL351:
 421:main.c        ****         {
 2425              		.loc 1 421 0
 2426 004a 762C     		cmp	r4, #118
 2427 004c 0AD1     		bne	.L78
 423:main.c        ****             else                         dma_dac_4_init(); // count_of_runs = ODD
 2428              		.loc 1 423 0
 2429 004e 0D4B     		ldr	r3, .L82
 2430 0050 5B78     		ldrb	r3, [r3, #1]	@ zero_extendqisi2
 2431 0052 13F0010F 		tst	r3, #1
 2432 0056 02D1     		bne	.L79
 423:main.c        ****             else                         dma_dac_4_init(); // count_of_runs = ODD
 2433              		.loc 1 423 0 is_stmt 0 discriminator 1
 2434 0058 FFF7FEFF 		bl	dma_dac_3_init
 2435              	.LVL352:
 2436 005c 06E0     		b	.L80
 2437              	.L79:
 424:main.c        ****         }
 2438              		.loc 1 424 0 is_stmt 1
 2439 005e FFF7FEFF 		bl	dma_dac_4_init
ARM GAS  C:\Users\User\AppData\Local\Temp\ccoMSFoX.s 			page 64


 2440              	.LVL353:
 2441 0062 03E0     		b	.L80
 2442              	.L78:
 428:main.c        ****             dma_dac_4_init();
 2443              		.loc 1 428 0
 2444 0064 FFF7FEFF 		bl	dma_dac_3_init
 2445              	.LVL354:
 429:main.c        ****         }
 2446              		.loc 1 429 0
 2447 0068 FFF7FEFF 		bl	dma_dac_4_init
 2448              	.LVL355:
 2449              	.L80:
 431:main.c        ****         dma_adc_2_init();
 2450              		.loc 1 431 0
 2451 006c FFF7FEFF 		bl	dma_adc_1_init
 2452              	.LVL356:
 432:main.c        ****         
 2453              		.loc 1 432 0
 2454 0070 FFF7FEFF 		bl	dma_adc_2_init
 2455              	.LVL357:
 434:main.c        ****     
 2456              		.loc 1 434 0
 2457 0074 0020     		movs	r0, #0
 2458 0076 FFF7FEFF 		bl	internTrigger_Write
 2459              	.LVL358:
 436:main.c        **** }
 2460              		.loc 1 436 0
 2461 007a 024A     		ldr	r2, .L82
 2462 007c 5378     		ldrb	r3, [r2, #1]	@ zero_extendqisi2
 2463 007e 0133     		adds	r3, r3, #1
 2464 0080 5370     		strb	r3, [r2, #1]
 2465 0082 10BD     		pop	{r4, pc}
 2466              	.L83:
 2467              		.align	2
 2468              	.L82:
 2469 0084 00000000 		.word	.LANCHOR0
 2470              		.cfi_endproc
 2471              	.LFE71:
 2472              		.size	run_sequence, .-run_sequence
 2473              		.section	.text.uart_interface,"ax",%progbits
 2474              		.align	2
 2475              		.global	uart_interface
 2476              		.thumb
 2477              		.thumb_func
 2478              		.type	uart_interface, %function
 2479              	uart_interface:
 2480              	.LFB72:
 441:main.c        ****     nextRun = TRUE; // used to avoid extern trigger from blocking the userinterface
 2481              		.loc 1 441 0
 2482              		.cfi_startproc
 2483              		@ args = 0, pretend = 0, frame = 0
 2484              		@ frame_needed = 0, uses_anonymous_args = 0
 2485 0000 38B5     		push	{r3, r4, r5, lr}
 2486              		.cfi_def_cfa_offset 16
 2487              		.cfi_offset 3, -16
 2488              		.cfi_offset 4, -12
 2489              		.cfi_offset 5, -8
ARM GAS  C:\Users\User\AppData\Local\Temp\ccoMSFoX.s 			page 65


 2490              		.cfi_offset 14, -4
 442:main.c        ****     // Control interface via UART for Putty or Matlab/Octave
 2491              		.loc 1 442 0
 2492 0002 0122     		movs	r2, #1
 2493 0004 654B     		ldr	r3, .L107
 2494 0006 9A70     		strb	r2, [r3, #2]
 444:main.c        ****     {
 2495              		.loc 1 444 0
 2496 0008 FFF7FEFF 		bl	UART_1_GetRxBufferSize
 2497              	.LVL359:
 2498 000c 644B     		ldr	r3, .L107+4
 2499 000e 1860     		str	r0, [r3]
 2500 0010 90B9     		cbnz	r0, .L105
 2501 0012 38BD     		pop	{r3, r4, r5, pc}
 2502              	.LVL360:
 2503              	.L87:
 2504              	.LBB10:
 449:main.c        ****             
 2505              		.loc 1 449 0 discriminator 3
 2506 0014 FFF7FEFF 		bl	UART_1_GetChar
 2507              	.LVL361:
 2508 0018 624B     		ldr	r3, .L107+8
 2509 001a 1855     		strb	r0, [r3, r4]
 451:main.c        ****             CyDelay(50);
 2510              		.loc 1 451 0 discriminator 3
 2511 001c 0120     		movs	r0, #1
 2512 001e FFF7FEFF 		bl	LED_Write
 2513              	.LVL362:
 452:main.c        ****             LED_Write( 0u );
 2514              		.loc 1 452 0 discriminator 3
 2515 0022 3220     		movs	r0, #50
 2516 0024 FFF7FEFF 		bl	CyDelay
 2517              	.LVL363:
 453:main.c        ****             CyDelay(50);
 2518              		.loc 1 453 0 discriminator 3
 2519 0028 0020     		movs	r0, #0
 2520 002a FFF7FEFF 		bl	LED_Write
 2521              	.LVL364:
 454:main.c        ****         }
 2522              		.loc 1 454 0 discriminator 3
 2523 002e 3220     		movs	r0, #50
 2524 0030 FFF7FEFF 		bl	CyDelay
 2525              	.LVL365:
 447:main.c        ****         {
 2526              		.loc 1 447 0 discriminator 3
 2527 0034 0134     		adds	r4, r4, #1
 2528              	.LVL366:
 2529 0036 00E0     		b	.L85
 2530              	.LVL367:
 2531              	.L105:
 2532              	.LBE10:
 2533 0038 0024     		movs	r4, #0
 2534              	.L85:
 2535              	.LVL368:
 2536              	.LBB11:
 447:main.c        ****         {
 2537              		.loc 1 447 0 is_stmt 0 discriminator 1
ARM GAS  C:\Users\User\AppData\Local\Temp\ccoMSFoX.s 			page 66


 2538 003a FFF7FEFF 		bl	UART_1_GetRxBufferSize
 2539              	.LVL369:
 2540 003e 0028     		cmp	r0, #0
 2541 0040 E8D1     		bne	.L87
 2542              	.LBE11:
 458:main.c        ****         {
 2543              		.loc 1 458 0 is_stmt 1
 2544 0042 584B     		ldr	r3, .L107+8
 2545 0044 1B78     		ldrb	r3, [r3]	@ zero_extendqisi2
 2546 0046 742B     		cmp	r3, #116
 2547 0048 09D1     		bne	.L88
 458:main.c        ****         {
 2548              		.loc 1 458 0 is_stmt 0 discriminator 1
 2549 004a 564B     		ldr	r3, .L107+8
 2550 004c 5B78     		ldrb	r3, [r3, #1]	@ zero_extendqisi2
 2551 004e 742B     		cmp	r3, #116
 2552 0050 05D1     		bne	.L88
 458:main.c        ****         {
 2553              		.loc 1 458 0 discriminator 2
 2554 0052 544B     		ldr	r3, .L107+8
 2555 0054 9B78     		ldrb	r3, [r3, #2]	@ zero_extendqisi2
 2556 0056 742B     		cmp	r3, #116
 2557 0058 01D1     		bne	.L88
 460:main.c        ****         }   
 2558              		.loc 1 460 0 is_stmt 1
 2559 005a FFF7FEFF 		bl	set_sequence_params
 2560              	.LVL370:
 2561              	.L88:
 464:main.c        ****         {
 2562              		.loc 1 464 0
 2563 005e 514B     		ldr	r3, .L107+8
 2564 0060 1878     		ldrb	r0, [r3]	@ zero_extendqisi2
 2565 0062 A0F13103 		sub	r3, r0, #49
 2566 0066 452B     		cmp	r3, #69
 2567 0068 00F29680 		bhi	.L84
 2568 006c DFE803F0 		tbb	[pc, r3]
 2569              	.L90:
 2570 0070 67       		.byte	(.L89-.L90)/2
 2571 0071 6F       		.byte	(.L91-.L90)/2
 2572 0072 77       		.byte	(.L92-.L90)/2
 2573 0073 7F       		.byte	(.L93-.L90)/2
 2574 0074 87       		.byte	(.L94-.L90)/2
 2575 0075 94       		.byte	(.L84-.L90)/2
 2576 0076 94       		.byte	(.L84-.L90)/2
 2577 0077 94       		.byte	(.L84-.L90)/2
 2578 0078 94       		.byte	(.L84-.L90)/2
 2579 0079 94       		.byte	(.L84-.L90)/2
 2580 007a 94       		.byte	(.L84-.L90)/2
 2581 007b 94       		.byte	(.L84-.L90)/2
 2582 007c 94       		.byte	(.L84-.L90)/2
 2583 007d 94       		.byte	(.L84-.L90)/2
 2584 007e 94       		.byte	(.L84-.L90)/2
 2585 007f 94       		.byte	(.L84-.L90)/2
 2586 0080 94       		.byte	(.L84-.L90)/2
 2587 0081 94       		.byte	(.L84-.L90)/2
 2588 0082 94       		.byte	(.L84-.L90)/2
 2589 0083 94       		.byte	(.L84-.L90)/2
ARM GAS  C:\Users\User\AppData\Local\Temp\ccoMSFoX.s 			page 67


 2590 0084 94       		.byte	(.L84-.L90)/2
 2591 0085 94       		.byte	(.L84-.L90)/2
 2592 0086 94       		.byte	(.L84-.L90)/2
 2593 0087 94       		.byte	(.L84-.L90)/2
 2594 0088 94       		.byte	(.L84-.L90)/2
 2595 0089 94       		.byte	(.L84-.L90)/2
 2596 008a 94       		.byte	(.L84-.L90)/2
 2597 008b 94       		.byte	(.L84-.L90)/2
 2598 008c 94       		.byte	(.L84-.L90)/2
 2599 008d 94       		.byte	(.L84-.L90)/2
 2600 008e 94       		.byte	(.L84-.L90)/2
 2601 008f 94       		.byte	(.L84-.L90)/2
 2602 0090 94       		.byte	(.L84-.L90)/2
 2603 0091 94       		.byte	(.L84-.L90)/2
 2604 0092 94       		.byte	(.L84-.L90)/2
 2605 0093 94       		.byte	(.L84-.L90)/2
 2606 0094 94       		.byte	(.L84-.L90)/2
 2607 0095 94       		.byte	(.L84-.L90)/2
 2608 0096 94       		.byte	(.L84-.L90)/2
 2609 0097 94       		.byte	(.L84-.L90)/2
 2610 0098 94       		.byte	(.L84-.L90)/2
 2611 0099 94       		.byte	(.L84-.L90)/2
 2612 009a 94       		.byte	(.L84-.L90)/2
 2613 009b 94       		.byte	(.L84-.L90)/2
 2614 009c 94       		.byte	(.L84-.L90)/2
 2615 009d 94       		.byte	(.L84-.L90)/2
 2616 009e 94       		.byte	(.L84-.L90)/2
 2617 009f 94       		.byte	(.L84-.L90)/2
 2618 00a0 52       		.byte	(.L95-.L90)/2
 2619 00a1 94       		.byte	(.L84-.L90)/2
 2620 00a2 94       		.byte	(.L84-.L90)/2
 2621 00a3 8F       		.byte	(.L96-.L90)/2
 2622 00a4 92       		.byte	(.L97-.L90)/2
 2623 00a5 94       		.byte	(.L84-.L90)/2
 2624 00a6 94       		.byte	(.L84-.L90)/2
 2625 00a7 94       		.byte	(.L84-.L90)/2
 2626 00a8 94       		.byte	(.L84-.L90)/2
 2627 00a9 94       		.byte	(.L84-.L90)/2
 2628 00aa 94       		.byte	(.L84-.L90)/2
 2629 00ab 94       		.byte	(.L84-.L90)/2
 2630 00ac 94       		.byte	(.L84-.L90)/2
 2631 00ad 94       		.byte	(.L84-.L90)/2
 2632 00ae 30       		.byte	(.L98-.L90)/2
 2633 00af 94       		.byte	(.L84-.L90)/2
 2634 00b0 94       		.byte	(.L84-.L90)/2
 2635 00b1 2A       		.byte	(.L99-.L90)/2
 2636 00b2 23       		.byte	(.L100-.L90)/2
 2637 00b3 94       		.byte	(.L84-.L90)/2
 2638 00b4 94       		.byte	(.L84-.L90)/2
 2639 00b5 2D       		.byte	(.L101-.L90)/2
 2640              		.p2align 1
 2641              	.L100:
 467:main.c        ****                 display_results();
 2642              		.loc 1 467 0
 2643 00b6 FFF7FEFF 		bl	run_sequence
 2644              	.LVL371:
 468:main.c        ****                 show_channel_num();
ARM GAS  C:\Users\User\AppData\Local\Temp\ccoMSFoX.s 			page 68


 2645              		.loc 1 468 0
 2646 00ba FFF7FEFF 		bl	display_results
 2647              	.LVL372:
 469:main.c        ****             break;
 2648              		.loc 1 469 0
 2649 00be FFF7FEFF 		bl	show_channel_num
 2650              	.LVL373:
 470:main.c        ****                 
 2651              		.loc 1 470 0
 2652 00c2 38BD     		pop	{r3, r4, r5, pc}
 2653              	.LVL374:
 2654              	.L99:
 473:main.c        ****             break;
 2655              		.loc 1 473 0
 2656 00c4 FFF7FEFF 		bl	run_sequence
 2657              	.LVL375:
 474:main.c        ****                 
 2658              		.loc 1 474 0
 2659 00c8 38BD     		pop	{r3, r4, r5, pc}
 2660              	.LVL376:
 2661              	.L101:
 477:main.c        ****             break;
 2662              		.loc 1 477 0
 2663 00ca FFF7FEFF 		bl	run_sequence
 2664              	.LVL377:
 478:main.c        ****             // 'o' : trigger streaming ADC data in binary form
 2665              		.loc 1 478 0
 2666 00ce 38BD     		pop	{r3, r4, r5, pc}
 2667              	.LVL378:
 2668              	.L98:
 482:main.c        ****                 for(int j=0;j<NSAMPLES_ADC;j++)
 2669              		.loc 1 482 0
 2670 00d0 0120     		movs	r0, #1
 2671 00d2 FFF7FEFF 		bl	LED_Write
 2672              	.LVL379:
 2673              	.LBB12:
 483:main.c        ****                 {
 2674              		.loc 1 483 0
 2675 00d6 0024     		movs	r4, #0
 2676              	.LVL380:
 2677 00d8 14E0     		b	.L102
 2678              	.LVL381:
 2679              	.L103:
 486:main.c        ****                     UART_1_PutChar(signal_adc_1[j] &0xFF ); 
 2680              		.loc 1 486 0 discriminator 3
 2681 00da 334D     		ldr	r5, .L107+12
 2682 00dc 35F81400 		ldrh	r0, [r5, r4, lsl #1]
 2683 00e0 000A     		lsrs	r0, r0, #8
 2684 00e2 FFF7FEFF 		bl	UART_1_PutChar
 2685              	.LVL382:
 487:main.c        ****                     UART_1_PutChar(signal_adc_2[j] >>8   );
 2686              		.loc 1 487 0 discriminator 3
 2687 00e6 15F81400 		ldrb	r0, [r5, r4, lsl #1]	@ zero_extendqisi2
 2688 00ea FFF7FEFF 		bl	UART_1_PutChar
 2689              	.LVL383:
 488:main.c        ****                     UART_1_PutChar(signal_adc_2[j] &0xFF ); 
 2690              		.loc 1 488 0 discriminator 3
ARM GAS  C:\Users\User\AppData\Local\Temp\ccoMSFoX.s 			page 69


 2691 00ee 2F4D     		ldr	r5, .L107+16
 2692 00f0 35F81400 		ldrh	r0, [r5, r4, lsl #1]
 2693 00f4 000A     		lsrs	r0, r0, #8
 2694 00f6 FFF7FEFF 		bl	UART_1_PutChar
 2695              	.LVL384:
 489:main.c        ****                 }
 2696              		.loc 1 489 0 discriminator 3
 2697 00fa 15F81400 		ldrb	r0, [r5, r4, lsl #1]	@ zero_extendqisi2
 2698 00fe FFF7FEFF 		bl	UART_1_PutChar
 2699              	.LVL385:
 483:main.c        ****                 {
 2700              		.loc 1 483 0 discriminator 3
 2701 0102 0134     		adds	r4, r4, #1
 2702              	.LVL386:
 2703              	.L102:
 483:main.c        ****                 {
 2704              		.loc 1 483 0 is_stmt 0 discriminator 1
 2705 0104 43F69723 		movw	r3, #14999
 2706 0108 9C42     		cmp	r4, r3
 2707 010a E6DD     		ble	.L103
 2708              	.LBE12:
 491:main.c        ****             break;
 2709              		.loc 1 491 0 is_stmt 1
 2710 010c 0020     		movs	r0, #0
 2711 010e FFF7FEFF 		bl	LED_Write
 2712              	.LVL387:
 492:main.c        ****                 
 2713              		.loc 1 492 0
 2714 0112 38BD     		pop	{r3, r4, r5, pc}
 2715              	.LVL388:
 2716              	.L95:
 495:main.c        ****                 if(current_chan>4) current_chan=0;
 2717              		.loc 1 495 0
 2718 0114 214A     		ldr	r2, .L107
 2719 0116 1378     		ldrb	r3, [r2]	@ zero_extendqisi2
 2720 0118 0133     		adds	r3, r3, #1
 2721 011a DBB2     		uxtb	r3, r3
 2722 011c 1370     		strb	r3, [r2]
 496:main.c        ****                 ChannelSel_Select(current_chan);
 2723              		.loc 1 496 0
 2724 011e 042B     		cmp	r3, #4
 2725 0120 02D9     		bls	.L104
 496:main.c        ****                 ChannelSel_Select(current_chan);
 2726              		.loc 1 496 0 is_stmt 0 discriminator 1
 2727 0122 0022     		movs	r2, #0
 2728 0124 1D4B     		ldr	r3, .L107
 2729 0126 1A70     		strb	r2, [r3]
 2730              	.L104:
 497:main.c        ****                 run_sequence(puttyIn[0]);
 2731              		.loc 1 497 0 is_stmt 1
 2732 0128 1C4B     		ldr	r3, .L107
 2733 012a 1878     		ldrb	r0, [r3]	@ zero_extendqisi2
 2734 012c FFF7FEFF 		bl	ChannelSel_Select
 2735              	.LVL389:
 498:main.c        ****                 show_channel_num();
 2736              		.loc 1 498 0
 2737 0130 1C4B     		ldr	r3, .L107+8
ARM GAS  C:\Users\User\AppData\Local\Temp\ccoMSFoX.s 			page 70


 2738 0132 1878     		ldrb	r0, [r3]	@ zero_extendqisi2
 2739 0134 FFF7FEFF 		bl	run_sequence
 2740              	.LVL390:
 499:main.c        ****             break;
 2741              		.loc 1 499 0
 2742 0138 FFF7FEFF 		bl	show_channel_num
 2743              	.LVL391:
 500:main.c        ****             
 2744              		.loc 1 500 0
 2745 013c 38BD     		pop	{r3, r4, r5, pc}
 2746              	.LVL392:
 2747              	.L89:
 503:main.c        ****                 ChannelSel_Select(current_chan);
 2748              		.loc 1 503 0
 2749 013e 0020     		movs	r0, #0
 2750 0140 164B     		ldr	r3, .L107
 2751 0142 1870     		strb	r0, [r3]
 504:main.c        ****                 show_channel_num();
 2752              		.loc 1 504 0
 2753 0144 FFF7FEFF 		bl	ChannelSel_Select
 2754              	.LVL393:
 505:main.c        ****             break;
 2755              		.loc 1 505 0
 2756 0148 FFF7FEFF 		bl	show_channel_num
 2757              	.LVL394:
 506:main.c        ****                 
 2758              		.loc 1 506 0
 2759 014c 38BD     		pop	{r3, r4, r5, pc}
 2760              	.LVL395:
 2761              	.L91:
 509:main.c        ****                 ChannelSel_Select(current_chan);
 2762              		.loc 1 509 0
 2763 014e 0120     		movs	r0, #1
 2764 0150 124B     		ldr	r3, .L107
 2765 0152 1870     		strb	r0, [r3]
 510:main.c        ****                 show_channel_num();
 2766              		.loc 1 510 0
 2767 0154 FFF7FEFF 		bl	ChannelSel_Select
 2768              	.LVL396:
 511:main.c        ****             break;
 2769              		.loc 1 511 0
 2770 0158 FFF7FEFF 		bl	show_channel_num
 2771              	.LVL397:
 512:main.c        ****                 
 2772              		.loc 1 512 0
 2773 015c 38BD     		pop	{r3, r4, r5, pc}
 2774              	.LVL398:
 2775              	.L92:
 515:main.c        ****                 ChannelSel_Select(current_chan);
 2776              		.loc 1 515 0
 2777 015e 0220     		movs	r0, #2
 2778 0160 0E4B     		ldr	r3, .L107
 2779 0162 1870     		strb	r0, [r3]
 516:main.c        ****                 show_channel_num();
 2780              		.loc 1 516 0
 2781 0164 FFF7FEFF 		bl	ChannelSel_Select
 2782              	.LVL399:
ARM GAS  C:\Users\User\AppData\Local\Temp\ccoMSFoX.s 			page 71


 517:main.c        ****             break;
 2783              		.loc 1 517 0
 2784 0168 FFF7FEFF 		bl	show_channel_num
 2785              	.LVL400:
 518:main.c        ****                 
 2786              		.loc 1 518 0
 2787 016c 38BD     		pop	{r3, r4, r5, pc}
 2788              	.LVL401:
 2789              	.L93:
 521:main.c        ****                 ChannelSel_Select(current_chan);
 2790              		.loc 1 521 0
 2791 016e 0320     		movs	r0, #3
 2792 0170 0A4B     		ldr	r3, .L107
 2793 0172 1870     		strb	r0, [r3]
 522:main.c        ****                 show_channel_num();
 2794              		.loc 1 522 0
 2795 0174 FFF7FEFF 		bl	ChannelSel_Select
 2796              	.LVL402:
 523:main.c        ****             break;
 2797              		.loc 1 523 0
 2798 0178 FFF7FEFF 		bl	show_channel_num
 2799              	.LVL403:
 524:main.c        ****                 
 2800              		.loc 1 524 0
 2801 017c 38BD     		pop	{r3, r4, r5, pc}
 2802              	.LVL404:
 2803              	.L94:
 527:main.c        ****                 ChannelSel_Select(current_chan);
 2804              		.loc 1 527 0
 2805 017e 0420     		movs	r0, #4
 2806 0180 064B     		ldr	r3, .L107
 2807 0182 1870     		strb	r0, [r3]
 528:main.c        ****                 show_channel_num();
 2808              		.loc 1 528 0
 2809 0184 FFF7FEFF 		bl	ChannelSel_Select
 2810              	.LVL405:
 529:main.c        ****             break;
 2811              		.loc 1 529 0
 2812 0188 FFF7FEFF 		bl	show_channel_num
 2813              	.LVL406:
 530:main.c        **** 
 2814              		.loc 1 530 0
 2815 018c 38BD     		pop	{r3, r4, r5, pc}
 2816              	.LVL407:
 2817              	.L96:
 533:main.c        ****             break;
 2818              		.loc 1 533 0
 2819 018e FFF7FEFF 		bl	display_results
 2820              	.LVL408:
 534:main.c        ****                 
 2821              		.loc 1 534 0
 2822 0192 38BD     		pop	{r3, r4, r5, pc}
 2823              	.LVL409:
 2824              	.L97:
 537:main.c        ****             break;
 2825              		.loc 1 537 0
 2826 0194 FFF7FEFF 		bl	CySoftwareReset
ARM GAS  C:\Users\User\AppData\Local\Temp\ccoMSFoX.s 			page 72


 2827              	.LVL410:
 2828              	.L84:
 2829 0198 38BD     		pop	{r3, r4, r5, pc}
 2830              	.LVL411:
 2831              	.L108:
 2832 019a 00BF     		.align	2
 2833              	.L107:
 2834 019c 00000000 		.word	.LANCHOR0
 2835 01a0 00000000 		.word	rxBuf
 2836 01a4 00000000 		.word	puttyIn
 2837 01a8 00000000 		.word	signal_adc_1
 2838 01ac 00000000 		.word	signal_adc_2
 2839              		.cfi_endproc
 2840              	.LFE72:
 2841              		.size	uart_interface, .-uart_interface
 2842              		.section	.text.main,"ax",%progbits
 2843              		.align	2
 2844              		.global	main
 2845              		.thumb
 2846              		.thumb_func
 2847              		.type	main, %function
 2848              	main:
 2849              	.LFB64:
 210:main.c        ****     CyGlobalIntEnable; /* Enable global interrupts. */
 2850              		.loc 1 210 0
 2851              		.cfi_startproc
 2852              		@ Volatile: function does not return.
 2853              		@ args = 0, pretend = 0, frame = 0
 2854              		@ frame_needed = 0, uses_anonymous_args = 0
 2855 0000 08B5     		push	{r3, lr}
 2856              		.cfi_def_cfa_offset 8
 2857              		.cfi_offset 3, -8
 2858              		.cfi_offset 14, -4
 211:main.c        **** 
 2859              		.loc 1 211 0
 2860              		.syntax unified
 2861              	@ 211 "main.c" 1
 2862 0002 62B6     		CPSIE   i
 2863              	@ 0 "" 2
 214:main.c        ****     if( *(FLASH_CH1 ) == 0 ) // Skip sequence generation if non-empty
 2864              		.loc 1 214 0
 2865              		.thumb
 2866              		.syntax unified
 2867 0004 FFF7FEFF 		bl	init_components
 2868              	.LVL412:
 215:main.c        ****         generate_sequence();
 2869              		.loc 1 215 0
 2870 0008 4FF40043 		mov	r3, #32768
 2871 000c 1B78     		ldrb	r3, [r3]	@ zero_extendqisi2
 2872 000e 0BB9     		cbnz	r3, .L110
 216:main.c        ****     show_default_message();
 2873              		.loc 1 216 0
 2874 0010 FFF7FEFF 		bl	generate_sequence
 2875              	.LVL413:
 2876              	.L110:
 217:main.c        ****    
 2877              		.loc 1 217 0
ARM GAS  C:\Users\User\AppData\Local\Temp\ccoMSFoX.s 			page 73


 2878 0014 FFF7FEFF 		bl	show_default_message
 2879              	.LVL414:
 2880              	.L111:
 222:main.c        ****     }
 2881              		.loc 1 222 0 discriminator 1
 2882 0018 FFF7FEFF 		bl	uart_interface
 2883              	.LVL415:
 2884 001c FCE7     		b	.L111
 2885              		.cfi_endproc
 2886              	.LFE64:
 2887              		.size	main, .-main
 2888 001e 00BF     		.section	.text.isr_triggerIn,"ax",%progbits
 2889              		.align	2
 2890              		.global	isr_triggerIn
 2891              		.thumb
 2892              		.thumb_func
 2893              		.type	isr_triggerIn, %function
 2894              	isr_triggerIn:
 2895              	.LFB79:
 775:main.c        ****     if( nextRun == TRUE )
 2896              		.loc 1 775 0
 2897              		.cfi_startproc
 2898              		@ args = 0, pretend = 0, frame = 0
 2899              		@ frame_needed = 0, uses_anonymous_args = 0
 2900 0000 08B5     		push	{r3, lr}
 2901              		.cfi_def_cfa_offset 8
 2902              		.cfi_offset 3, -8
 2903              		.cfi_offset 14, -4
 776:main.c        ****     {
 2904              		.loc 1 776 0
 2905 0002 0A4B     		ldr	r3, .L116
 2906 0004 9B78     		ldrb	r3, [r3, #2]	@ zero_extendqisi2
 2907 0006 012B     		cmp	r3, #1
 2908 0008 0FD1     		bne	.L113
 778:main.c        ****         LED_Write( ~LED_Read()); // indicate trigger
 2909              		.loc 1 778 0
 2910 000a 0022     		movs	r2, #0
 2911 000c 074B     		ldr	r3, .L116
 2912 000e 9A70     		strb	r2, [r3, #2]
 779:main.c        ****         run_sequence(KEY_RUN); 
 2913              		.loc 1 779 0
 2914 0010 FFF7FEFF 		bl	LED_Read
 2915              	.LVL416:
 2916 0014 C043     		mvns	r0, r0
 2917 0016 C0B2     		uxtb	r0, r0
 2918 0018 FFF7FEFF 		bl	LED_Write
 2919              	.LVL417:
 780:main.c        ****         CyDelayUs(SEQU_DURATION_US); // Block CPU while sequence is running to avoid interference
 2920              		.loc 1 780 0
 2921 001c 7220     		movs	r0, #114
 2922 001e FFF7FEFF 		bl	run_sequence
 2923              	.LVL418:
 781:main.c        ****     }
 2924              		.loc 1 781 0
 2925 0022 4AF6C870 		movw	r0, #45000
 2926 0026 FFF7FEFF 		bl	CyDelayUs
 2927              	.LVL419:
ARM GAS  C:\Users\User\AppData\Local\Temp\ccoMSFoX.s 			page 74


 2928              	.L113:
 2929 002a 08BD     		pop	{r3, pc}
 2930              	.L117:
 2931              		.align	2
 2932              	.L116:
 2933 002c 00000000 		.word	.LANCHOR0
 2934              		.cfi_endproc
 2935              	.LFE79:
 2936              		.size	isr_triggerIn, .-isr_triggerIn
 2937              		.global	count_of_runs
 2938              		.global	current_chan
 2939              		.comm	signal_adc_2,30000,4
 2940              		.comm	signal_adc_1,30000,4
 2941              		.global	nextRun
 2942              		.global	run_count_DAC_1
 2943              		.comm	rxBuf,4,4
 2944              		.comm	puttyIn,100,4
 2945              		.comm	sms,80,4
 2946              		.comm	DMA_ADC_2_TD,20,4
 2947              		.comm	DMA_ADC_2_Chan,1,1
 2948              		.comm	DMA_ADC_1_TD,20,4
 2949              		.comm	DMA_ADC_1_Chan,1,1
 2950              		.comm	DMA_DAC_4_TD,3,4
 2951              		.comm	DMA_DAC_4_Chan,1,1
 2952              		.comm	DMA_DAC_3_TD,3,4
 2953              		.comm	DMA_DAC_3_Chan,1,1
 2954              		.comm	DMA_DAC_2_TD,3,4
 2955              		.comm	DMA_DAC_2_Chan,1,1
 2956              		.comm	DMA_DAC_1_TD,3,4
 2957              		.comm	DMA_DAC_1_Chan,1,1
 2958              		.global	twMPI
 2959              		.global	twMPI_params
 2960              		.data
 2961              		.align	2
 2962              		.set	.LANCHOR1,. + 0
 2963              		.type	twMPI, %object
 2964              		.size	twMPI, 4
 2965              	twMPI:
 2966 0000 00000000 		.word	twMPI_params
 2967              		.type	twMPI_params, %object
 2968              		.size	twMPI_params, 112
 2969              	twMPI_params:
 2970 0004 55F9943C 		.word	1016396117
 2971 0008 55F9943C 		.word	1016396117
 2972 000c 4E7AD83E 		.word	1054374478
 2973 0010 4E7AD83E 		.word	1054374478
 2974 0014 00000000 		.word	0
 2975 0018 00000000 		.word	0
 2976 001c 00000000 		.word	0
 2977 0020 00000000 		.word	0
 2978 0024 00000000 		.word	0
 2979 0028 DB0FC93F 		.word	1070141403
 2980 002c 00000000 		.word	0
 2981 0030 00000000 		.word	0
 2982 0034 DB0FC93F 		.word	1070141403
 2983 0038 DB0FC93F 		.word	1070141403
 2984 003c DB0FC93F 		.word	1070141403
ARM GAS  C:\Users\User\AppData\Local\Temp\ccoMSFoX.s 			page 75


 2985 0040 DB0FC93F 		.word	1070141403
 2986 0044 3333A942 		.word	1118384947
 2987 0048 3333A942 		.word	1118384947
 2988 004c 3333A942 		.word	1118384947
 2989 0050 3333A942 		.word	1118384947
 2990 0054 0000B442 		.word	1119092736
 2991 0058 0000B442 		.word	1119092736
 2992 005c 0000B442 		.word	1119092736
 2993 0060 0000B442 		.word	1119092736
 2994 0064 00800000 		.word	32768
 2995 0068 00000100 		.word	65536
 2996 006c 00000200 		.word	131072
 2997 0070 00000300 		.word	196608
 2998              		.section	.rodata.str1.4,"aMS",%progbits,1
 2999              		.align	2
 3000              	.LC0:
 3001 0000 50726573 		.ascii	"Press '%c' to run the sequence and show the results"
 3001      73202725 
 3001      63272074 
 3001      6F207275 
 3001      6E207468 
 3002 0033 20284153 		.ascii	" (ASCII table)\000"
 3002      43494920 
 3002      7461626C 
 3002      652900
 3003 0042 0000     		.space	2
 3004              	.LC1:
 3005 0044 50726573 		.ascii	"Press '%c' to only run the sequence (No ASCII table"
 3005      73202725 
 3005      63272074 
 3005      6F206F6E 
 3005      6C792072 
 3006 0077 2C206375 		.ascii	", currently measured: Channel %d)\000"
 3006      7272656E 
 3006      746C7920 
 3006      6D656173 
 3006      75726564 
 3007 0099 000000   		.space	3
 3008              	.LC2:
 3009 009c 50726573 		.ascii	"Press '%c' to only run the alternating sequence (od"
 3009      73202725 
 3009      63272074 
 3009      6F206F6E 
 3009      6C792072 
 3010 00cf 643A2043 		.ascii	"d: CH3 is off, even: CH4 is off)\000"
 3010      48332069 
 3010      73206F66 
 3010      662C2065 
 3010      76656E3A 
 3011              	.LC3:
 3012 00f0 50726573 		.ascii	"Press '%c' to show last results (ASCII table)\000"
 3012      73202725 
 3012      63272074 
 3012      6F207368 
 3012      6F77206C 
 3013 011e 0000     		.space	2
 3014              	.LC4:
ARM GAS  C:\Users\User\AppData\Local\Temp\ccoMSFoX.s 			page 76


 3015 0120 50726573 		.ascii	"Press '%c' to switch to next channel and run the se"
 3015      73202725 
 3015      63272074 
 3015      6F207377 
 3015      69746368 
 3016 0153 7175656E 		.ascii	"quence)\000"
 3016      63652900 
 3017 015b 00       		.space	1
 3018              	.LC5:
 3019 015c 50726573 		.ascii	"Press '%c', '%c', '%c' or '%c' for measuring DAC 1."
 3019      73202725 
 3019      63272C20 
 3019      27256327 
 3019      2C202725 
 3020 018f 2E34206F 		.ascii	".4 or '%c' for measuring GPIO P0.7\000"
 3020      72202725 
 3020      63272066 
 3020      6F72206D 
 3020      65617375 
 3021 01b2 0000     		.space	2
 3022              	.LC6:
 3023 01b4 50726573 		.ascii	"Press '%c' to reset the device (Software reset)\000"
 3023      73202725 
 3023      63272074 
 3023      6F207265 
 3023      73657420 
 3024              	.LC7:
 3025 01e4 43757272 		.ascii	"Currently selected channel for data monitoring: %d\000"
 3025      656E746C 
 3025      79207365 
 3025      6C656374 
 3025      65642063 
 3026 0217 00       		.space	1
 3027              	.LC8:
 3028 0218 436F756E 		.ascii	"Count of sequence runs after reset: %d\000"
 3028      74206F66 
 3028      20736571 
 3028      75656E63 
 3028      65207275 
 3029 023f 00       		.space	1
 3030              	.LC9:
 3031 0240 4144435F 		.ascii	"ADC_1 Value %d,0 us:\011  %d\000"
 3031      31205661 
 3031      6C756520 
 3031      25642C30 
 3031      2075733A 
 3032 025a 0000     		.space	2
 3033              	.LC10:
 3034 025c 4144435F 		.ascii	"ADC_2 Value %d,5 us:\011  %d\000"
 3034      32205661 
 3034      6C756520 
 3034      25642C35 
 3034      2075733A 
 3035 0276 0000     		.space	2
 3036              	.LC11:
 3037 0278 44617461 		.ascii	"Data listing aborted...\012\012\000"
 3037      206C6973 
ARM GAS  C:\Users\User\AppData\Local\Temp\ccoMSFoX.s 			page 77


 3037      74696E67 
 3037      2061626F 
 3037      72746564 
 3038 0292 0000     		.space	2
 3039              	.LC12:
 3040 0294 2A204765 		.ascii	"* Generate sequence...\000"
 3040      6E657261 
 3040      74652073 
 3040      65717565 
 3040      6E63652E 
 3041 02ab 00       		.space	1
 3042              	.LC13:
 3043 02ac 2A205365 		.ascii	"* Sequence ready.\000"
 3043      7175656E 
 3043      63652072 
 3043      65616479 
 3043      2E00
 3044              		.bss
 3045              		.set	.LANCHOR0,. + 0
 3046              		.type	current_chan, %object
 3047              		.size	current_chan, 1
 3048              	current_chan:
 3049 0000 00       		.space	1
 3050              		.type	count_of_runs, %object
 3051              		.size	count_of_runs, 1
 3052              	count_of_runs:
 3053 0001 00       		.space	1
 3054              		.type	nextRun, %object
 3055              		.size	nextRun, 1
 3056              	nextRun:
 3057 0002 00       		.space	1
 3058              		.type	run_count_DAC_1, %object
 3059              		.size	run_count_DAC_1, 1
 3060              	run_count_DAC_1:
 3061 0003 00       		.space	1
 3062              		.text
 3063              	.Letext0:
 3064              		.file 2 "d:\\program files (x86)\\cypress\\psoc creator\\4.1\\psoc creator\\import\\gnu\\arm\\5.4.
 3065              		.file 3 "d:\\program files (x86)\\cypress\\psoc creator\\4.1\\psoc creator\\import\\gnu\\arm\\5.4.
 3066              		.file 4 "Generated_Source\\PSoC5/cytypes.h"
 3067              		.file 5 "Generated_Source\\PSoC5/core_cm3.h"
 3068              		.file 6 "Generated_Source\\PSoC5/pwmSAMPLING.h"
 3069              		.file 7 "Generated_Source\\PSoC5/IDAC8_1.h"
 3070              		.file 8 "Generated_Source\\PSoC5/ShiftReg_1.h"
 3071              		.file 9 "Generated_Source\\PSoC5/IDAC8_2.h"
 3072              		.file 10 "Generated_Source\\PSoC5/ShiftReg_2.h"
 3073              		.file 11 "Generated_Source\\PSoC5/IDAC8_3.h"
 3074              		.file 12 "Generated_Source\\PSoC5/ShiftReg_3.h"
 3075              		.file 13 "Generated_Source\\PSoC5/IDAC8_4.h"
 3076              		.file 14 "Generated_Source\\PSoC5/ShiftReg_4.h"
 3077              		.file 15 "Generated_Source\\PSoC5/ADC_SAR_1.h"
 3078              		.file 16 "Generated_Source\\PSoC5/ADC_SAR_1_IRQ.h"
 3079              		.file 17 "Generated_Source\\PSoC5/ADC_SAR_2.h"
 3080              		.file 18 "Generated_Source\\PSoC5/ADC_SAR_2_IRQ.h"
 3081              		.file 19 "Generated_Source\\PSoC5/Track_Hold_1.h"
 3082              		.file 20 "Generated_Source\\PSoC5/Track_Hold_2.h"
 3083              		.file 21 "Generated_Source\\PSoC5/refOut.h"
ARM GAS  C:\Users\User\AppData\Local\Temp\ccoMSFoX.s 			page 78


 3084              		.file 22 "Generated_Source\\PSoC5/sigBuf.h"
 3085              		.file 23 "Generated_Source\\PSoC5/ChannelSel.h"
 3086              		.file 24 "Generated_Source\\PSoC5/UART_1.h"
 3087              		.file 25 "Generated_Source\\PSoC5/CompTrigger.h"
 3088              		.file 26 "Generated_Source\\PSoC5/isrTrigger.h"
 3089              		.file 27 "Generated_Source\\PSoC5/isr_DAC_1.h"
 3090              		.file 28 "Generated_Source\\PSoC5/isr_DAC_2.h"
 3091              		.file 29 "Generated_Source\\PSoC5/isr_DAC_3.h"
 3092              		.file 30 "Generated_Source\\PSoC5/isr_DAC_4.h"
 3093              		.file 31 "Generated_Source\\PSoC5/isr_ADC_1.h"
 3094              		.file 32 "Generated_Source\\PSoC5/isr_ADC_2.h"
 3095              		.file 33 "d:\\program files (x86)\\cypress\\psoc creator\\4.1\\psoc creator\\import\\gnu\\arm\\5.4
 3096              		.file 34 "Generated_Source\\PSoC5/CyLib.h"
 3097              		.file 35 "Generated_Source\\PSoC5/FLASH.h"
 3098              		.file 36 "Generated_Source\\PSoC5/LED.h"
 3099              		.file 37 "Generated_Source\\PSoC5/DMA_DAC_1_dma.h"
 3100              		.file 38 "Generated_Source\\PSoC5/CYDMAC.H"
 3101              		.file 39 "Generated_Source\\PSoC5/DMA_DAC_2_dma.h"
 3102              		.file 40 "Generated_Source\\PSoC5/DMA_DAC_3_dma.h"
 3103              		.file 41 "Generated_Source\\PSoC5/DMA_DAC_4_dma.h"
 3104              		.file 42 "Generated_Source\\PSoC5/DMA_ADC_1_dma.h"
 3105              		.file 43 "Generated_Source\\PSoC5/DMA_ADC_2_dma.h"
 3106              		.file 44 "Generated_Source\\PSoC5/internTrigger.h"
 3107              		.file 45 "d:\\program files (x86)\\cypress\\psoc creator\\4.1\\psoc creator\\import\\gnu\\arm\\5.4
 3108              		.section	.debug_info,"",%progbits
 3109              	.Ldebug_info0:
 3110 0000 C5200000 		.4byte	0x20c5
 3111 0004 0400     		.2byte	0x4
 3112 0006 00000000 		.4byte	.Ldebug_abbrev0
 3113 000a 04       		.byte	0x4
 3114 000b 01       		.uleb128 0x1
 3115 000c D8010000 		.4byte	.LASF133
 3116 0010 0C       		.byte	0xc
 3117 0011 69000000 		.4byte	.LASF134
 3118 0015 E8020000 		.4byte	.LASF135
 3119 0019 30000000 		.4byte	.Ldebug_ranges0+0x30
 3120 001d 00000000 		.4byte	0
 3121 0021 00000000 		.4byte	.Ldebug_line0
 3122 0025 02       		.uleb128 0x2
 3123 0026 01       		.byte	0x1
 3124 0027 06       		.byte	0x6
 3125 0028 E4070000 		.4byte	.LASF0
 3126 002c 02       		.uleb128 0x2
 3127 002d 01       		.byte	0x1
 3128 002e 08       		.byte	0x8
 3129 002f 41070000 		.4byte	.LASF1
 3130 0033 02       		.uleb128 0x2
 3131 0034 02       		.byte	0x2
 3132 0035 05       		.byte	0x5
 3133 0036 96050000 		.4byte	.LASF2
 3134 003a 02       		.uleb128 0x2
 3135 003b 02       		.byte	0x2
 3136 003c 07       		.byte	0x7
 3137 003d 04080000 		.4byte	.LASF3
 3138 0041 03       		.uleb128 0x3
 3139 0042 E1000000 		.4byte	.LASF9
 3140 0046 02       		.byte	0x2
ARM GAS  C:\Users\User\AppData\Local\Temp\ccoMSFoX.s 			page 79


 3141 0047 3F       		.byte	0x3f
 3142 0048 4C000000 		.4byte	0x4c
 3143 004c 02       		.uleb128 0x2
 3144 004d 04       		.byte	0x4
 3145 004e 05       		.byte	0x5
 3146 004f C2050000 		.4byte	.LASF4
 3147 0053 02       		.uleb128 0x2
 3148 0054 04       		.byte	0x4
 3149 0055 07       		.byte	0x7
 3150 0056 CD060000 		.4byte	.LASF5
 3151 005a 02       		.uleb128 0x2
 3152 005b 08       		.byte	0x8
 3153 005c 05       		.byte	0x5
 3154 005d 0A040000 		.4byte	.LASF6
 3155 0061 02       		.uleb128 0x2
 3156 0062 08       		.byte	0x8
 3157 0063 07       		.byte	0x7
 3158 0064 82010000 		.4byte	.LASF7
 3159 0068 04       		.uleb128 0x4
 3160 0069 04       		.byte	0x4
 3161 006a 05       		.byte	0x5
 3162 006b 696E7400 		.ascii	"int\000"
 3163 006f 02       		.uleb128 0x2
 3164 0070 04       		.byte	0x4
 3165 0071 07       		.byte	0x7
 3166 0072 A3000000 		.4byte	.LASF8
 3167 0076 03       		.uleb128 0x3
 3168 0077 02070000 		.4byte	.LASF10
 3169 007b 03       		.byte	0x3
 3170 007c 2C       		.byte	0x2c
 3171 007d 41000000 		.4byte	0x41
 3172 0081 05       		.uleb128 0x5
 3173 0082 5B080000 		.4byte	.LASF11
 3174 0086 04       		.byte	0x4
 3175 0087 9201     		.2byte	0x192
 3176 0089 2C000000 		.4byte	0x2c
 3177 008d 05       		.uleb128 0x5
 3178 008e 9C030000 		.4byte	.LASF12
 3179 0092 04       		.byte	0x4
 3180 0093 9301     		.2byte	0x193
 3181 0095 3A000000 		.4byte	0x3a
 3182 0099 05       		.uleb128 0x5
 3183 009a A4040000 		.4byte	.LASF13
 3184 009e 04       		.byte	0x4
 3185 009f 9401     		.2byte	0x194
 3186 00a1 53000000 		.4byte	0x53
 3187 00a5 02       		.uleb128 0x2
 3188 00a6 04       		.byte	0x4
 3189 00a7 04       		.byte	0x4
 3190 00a8 72010000 		.4byte	.LASF14
 3191 00ac 02       		.uleb128 0x2
 3192 00ad 08       		.byte	0x8
 3193 00ae 04       		.byte	0x4
 3194 00af 61080000 		.4byte	.LASF15
 3195 00b3 02       		.uleb128 0x2
 3196 00b4 01       		.byte	0x1
 3197 00b5 08       		.byte	0x8
ARM GAS  C:\Users\User\AppData\Local\Temp\ccoMSFoX.s 			page 80


 3198 00b6 60030000 		.4byte	.LASF16
 3199 00ba 05       		.uleb128 0x5
 3200 00bb EB000000 		.4byte	.LASF17
 3201 00bf 04       		.byte	0x4
 3202 00c0 3C02     		.2byte	0x23c
 3203 00c2 C6000000 		.4byte	0xc6
 3204 00c6 06       		.uleb128 0x6
 3205 00c7 81000000 		.4byte	0x81
 3206 00cb 02       		.uleb128 0x2
 3207 00cc 08       		.byte	0x8
 3208 00cd 04       		.byte	0x4
 3209 00ce 4F050000 		.4byte	.LASF18
 3210 00d2 02       		.uleb128 0x2
 3211 00d3 04       		.byte	0x4
 3212 00d4 07       		.byte	0x7
 3213 00d5 C4060000 		.4byte	.LASF19
 3214 00d9 07       		.uleb128 0x7
 3215 00da 6B040000 		.4byte	.LASF136
 3216 00de 70       		.byte	0x70
 3217 00df 01       		.byte	0x1
 3218 00e0 53       		.byte	0x53
 3219 00e1 39010000 		.4byte	0x139
 3220 00e5 08       		.uleb128 0x8
 3221 00e6 6F6D00   		.ascii	"om\000"
 3222 00e9 01       		.byte	0x1
 3223 00ea 54       		.byte	0x54
 3224 00eb 39010000 		.4byte	0x139
 3225 00ef 00       		.byte	0
 3226 00f0 09       		.uleb128 0x9
 3227 00f1 F0000000 		.4byte	.LASF20
 3228 00f5 01       		.byte	0x1
 3229 00f6 55       		.byte	0x55
 3230 00f7 39010000 		.4byte	0x139
 3231 00fb 10       		.byte	0x10
 3232 00fc 08       		.uleb128 0x8
 3233 00fd 70686900 		.ascii	"phi\000"
 3234 0101 01       		.byte	0x1
 3235 0102 56       		.byte	0x56
 3236 0103 39010000 		.4byte	0x139
 3237 0107 20       		.byte	0x20
 3238 0108 09       		.uleb128 0x9
 3239 0109 BA050000 		.4byte	.LASF21
 3240 010d 01       		.byte	0x1
 3241 010e 57       		.byte	0x57
 3242 010f 39010000 		.4byte	0x139
 3243 0113 30       		.byte	0x30
 3244 0114 08       		.uleb128 0x8
 3245 0115 616D7000 		.ascii	"amp\000"
 3246 0119 01       		.byte	0x1
 3247 011a 58       		.byte	0x58
 3248 011b 39010000 		.4byte	0x139
 3249 011f 40       		.byte	0x40
 3250 0120 08       		.uleb128 0x8
 3251 0121 6F666600 		.ascii	"off\000"
 3252 0125 01       		.byte	0x1
 3253 0126 59       		.byte	0x59
 3254 0127 39010000 		.4byte	0x139
ARM GAS  C:\Users\User\AppData\Local\Temp\ccoMSFoX.s 			page 81


 3255 012b 50       		.byte	0x50
 3256 012c 09       		.uleb128 0x9
 3257 012d 94070000 		.4byte	.LASF22
 3258 0131 01       		.byte	0x1
 3259 0132 5A       		.byte	0x5a
 3260 0133 49010000 		.4byte	0x149
 3261 0137 60       		.byte	0x60
 3262 0138 00       		.byte	0
 3263 0139 0A       		.uleb128 0xa
 3264 013a A5000000 		.4byte	0xa5
 3265 013e 49010000 		.4byte	0x149
 3266 0142 0B       		.uleb128 0xb
 3267 0143 D2000000 		.4byte	0xd2
 3268 0147 03       		.byte	0x3
 3269 0148 00       		.byte	0
 3270 0149 0A       		.uleb128 0xa
 3271 014a 59010000 		.4byte	0x159
 3272 014e 59010000 		.4byte	0x159
 3273 0152 0B       		.uleb128 0xb
 3274 0153 D2000000 		.4byte	0xd2
 3275 0157 03       		.byte	0x3
 3276 0158 00       		.byte	0
 3277 0159 0C       		.uleb128 0xc
 3278 015a 04       		.byte	0x4
 3279 015b 5F010000 		.4byte	0x15f
 3280 015f 0D       		.uleb128 0xd
 3281 0160 81000000 		.4byte	0x81
 3282 0164 0E       		.uleb128 0xe
 3283 0165 D3040000 		.4byte	.LASF23
 3284 0169 01       		.byte	0x1
 3285 016a 1203     		.2byte	0x312
 3286 016c 00000000 		.4byte	.LFB80
 3287 0170 02000000 		.4byte	.LFE80-.LFB80
 3288 0174 01       		.uleb128 0x1
 3289 0175 9C       		.byte	0x9c
 3290 0176 0E       		.uleb128 0xe
 3291 0177 63010000 		.4byte	.LASF24
 3292 017b 01       		.byte	0x1
 3293 017c 1C03     		.2byte	0x31c
 3294 017e 00000000 		.4byte	.LFB81
 3295 0182 02000000 		.4byte	.LFE81-.LFB81
 3296 0186 01       		.uleb128 0x1
 3297 0187 9C       		.byte	0x9c
 3298 0188 0E       		.uleb128 0xe
 3299 0189 3E060000 		.4byte	.LASF25
 3300 018d 01       		.byte	0x1
 3301 018e 2303     		.2byte	0x323
 3302 0190 00000000 		.4byte	.LFB82
 3303 0194 02000000 		.4byte	.LFE82-.LFB82
 3304 0198 01       		.uleb128 0x1
 3305 0199 9C       		.byte	0x9c
 3306 019a 0E       		.uleb128 0xe
 3307 019b 43030000 		.4byte	.LASF26
 3308 019f 01       		.byte	0x1
 3309 01a0 2A03     		.2byte	0x32a
 3310 01a2 00000000 		.4byte	.LFB83
 3311 01a6 02000000 		.4byte	.LFE83-.LFB83
ARM GAS  C:\Users\User\AppData\Local\Temp\ccoMSFoX.s 			page 82


 3312 01aa 01       		.uleb128 0x1
 3313 01ab 9C       		.byte	0x9c
 3314 01ac 0E       		.uleb128 0xe
 3315 01ad 5F060000 		.4byte	.LASF27
 3316 01b1 01       		.byte	0x1
 3317 01b2 3103     		.2byte	0x331
 3318 01b4 00000000 		.4byte	.LFB84
 3319 01b8 02000000 		.4byte	.LFE84-.LFB84
 3320 01bc 01       		.uleb128 0x1
 3321 01bd 9C       		.byte	0x9c
 3322 01be 0E       		.uleb128 0xe
 3323 01bf C3010000 		.4byte	.LASF28
 3324 01c3 01       		.byte	0x1
 3325 01c4 3803     		.2byte	0x338
 3326 01c6 00000000 		.4byte	.LFB85
 3327 01ca 02000000 		.4byte	.LFE85-.LFB85
 3328 01ce 01       		.uleb128 0x1
 3329 01cf 9C       		.byte	0x9c
 3330 01d0 0F       		.uleb128 0xf
 3331 01d1 0A070000 		.4byte	.LASF29
 3332 01d5 01       		.byte	0x1
 3333 01d6 E3       		.byte	0xe3
 3334 01d7 00000000 		.4byte	.LFB65
 3335 01db D8000000 		.4byte	.LFE65-.LFB65
 3336 01df 01       		.uleb128 0x1
 3337 01e0 9C       		.byte	0x9c
 3338 01e1 E6030000 		.4byte	0x3e6
 3339 01e5 10       		.uleb128 0x10
 3340 01e6 06000000 		.4byte	.LVL0
 3341 01ea 131E0000 		.4byte	0x1e13
 3342 01ee 10       		.uleb128 0x10
 3343 01ef 0A000000 		.4byte	.LVL1
 3344 01f3 1E1E0000 		.4byte	0x1e1e
 3345 01f7 11       		.uleb128 0x11
 3346 01f8 10000000 		.4byte	.LVL2
 3347 01fc 291E0000 		.4byte	0x1e29
 3348 0200 0B020000 		.4byte	0x20b
 3349 0204 12       		.uleb128 0x12
 3350 0205 01       		.uleb128 0x1
 3351 0206 50       		.byte	0x50
 3352 0207 02       		.uleb128 0x2
 3353 0208 08       		.byte	0x8
 3354 0209 5A       		.byte	0x5a
 3355 020a 00       		.byte	0
 3356 020b 11       		.uleb128 0x11
 3357 020c 16000000 		.4byte	.LVL3
 3358 0210 341E0000 		.4byte	0x1e34
 3359 0214 1E020000 		.4byte	0x21e
 3360 0218 12       		.uleb128 0x12
 3361 0219 01       		.uleb128 0x1
 3362 021a 50       		.byte	0x50
 3363 021b 01       		.uleb128 0x1
 3364 021c 3C       		.byte	0x3c
 3365 021d 00       		.byte	0
 3366 021e 10       		.uleb128 0x10
 3367 021f 1A000000 		.4byte	.LVL4
 3368 0223 3F1E0000 		.4byte	0x1e3f
ARM GAS  C:\Users\User\AppData\Local\Temp\ccoMSFoX.s 			page 83


 3369 0227 10       		.uleb128 0x10
 3370 0228 1E000000 		.4byte	.LVL5
 3371 022c 4A1E0000 		.4byte	0x1e4a
 3372 0230 11       		.uleb128 0x11
 3373 0231 24000000 		.4byte	.LVL6
 3374 0235 291E0000 		.4byte	0x1e29
 3375 0239 44020000 		.4byte	0x244
 3376 023d 12       		.uleb128 0x12
 3377 023e 01       		.uleb128 0x1
 3378 023f 50       		.byte	0x50
 3379 0240 02       		.uleb128 0x2
 3380 0241 08       		.byte	0x8
 3381 0242 5A       		.byte	0x5a
 3382 0243 00       		.byte	0
 3383 0244 11       		.uleb128 0x11
 3384 0245 2A000000 		.4byte	.LVL7
 3385 0249 551E0000 		.4byte	0x1e55
 3386 024d 57020000 		.4byte	0x257
 3387 0251 12       		.uleb128 0x12
 3388 0252 01       		.uleb128 0x1
 3389 0253 50       		.byte	0x50
 3390 0254 01       		.uleb128 0x1
 3391 0255 36       		.byte	0x36
 3392 0256 00       		.byte	0
 3393 0257 10       		.uleb128 0x10
 3394 0258 2E000000 		.4byte	.LVL8
 3395 025c 601E0000 		.4byte	0x1e60
 3396 0260 10       		.uleb128 0x10
 3397 0261 32000000 		.4byte	.LVL9
 3398 0265 6B1E0000 		.4byte	0x1e6b
 3399 0269 11       		.uleb128 0x11
 3400 026a 38000000 		.4byte	.LVL10
 3401 026e 291E0000 		.4byte	0x1e29
 3402 0272 7D020000 		.4byte	0x27d
 3403 0276 12       		.uleb128 0x12
 3404 0277 01       		.uleb128 0x1
 3405 0278 50       		.byte	0x50
 3406 0279 02       		.uleb128 0x2
 3407 027a 08       		.byte	0x8
 3408 027b 5A       		.byte	0x5a
 3409 027c 00       		.byte	0
 3410 027d 11       		.uleb128 0x11
 3411 027e 3E000000 		.4byte	.LVL11
 3412 0282 761E0000 		.4byte	0x1e76
 3413 0286 90020000 		.4byte	0x290
 3414 028a 12       		.uleb128 0x12
 3415 028b 01       		.uleb128 0x1
 3416 028c 50       		.byte	0x50
 3417 028d 01       		.uleb128 0x1
 3418 028e 33       		.byte	0x33
 3419 028f 00       		.byte	0
 3420 0290 10       		.uleb128 0x10
 3421 0291 42000000 		.4byte	.LVL12
 3422 0295 811E0000 		.4byte	0x1e81
 3423 0299 10       		.uleb128 0x10
 3424 029a 46000000 		.4byte	.LVL13
 3425 029e 8C1E0000 		.4byte	0x1e8c
ARM GAS  C:\Users\User\AppData\Local\Temp\ccoMSFoX.s 			page 84


 3426 02a2 11       		.uleb128 0x11
 3427 02a3 4C000000 		.4byte	.LVL14
 3428 02a7 291E0000 		.4byte	0x1e29
 3429 02ab B6020000 		.4byte	0x2b6
 3430 02af 12       		.uleb128 0x12
 3431 02b0 01       		.uleb128 0x1
 3432 02b1 50       		.byte	0x50
 3433 02b2 02       		.uleb128 0x2
 3434 02b3 08       		.byte	0x8
 3435 02b4 5A       		.byte	0x5a
 3436 02b5 00       		.byte	0
 3437 02b6 11       		.uleb128 0x11
 3438 02b7 52000000 		.4byte	.LVL15
 3439 02bb 971E0000 		.4byte	0x1e97
 3440 02bf C9020000 		.4byte	0x2c9
 3441 02c3 12       		.uleb128 0x12
 3442 02c4 01       		.uleb128 0x1
 3443 02c5 50       		.byte	0x50
 3444 02c6 01       		.uleb128 0x1
 3445 02c7 39       		.byte	0x39
 3446 02c8 00       		.byte	0
 3447 02c9 10       		.uleb128 0x10
 3448 02ca 56000000 		.4byte	.LVL16
 3449 02ce A21E0000 		.4byte	0x1ea2
 3450 02d2 10       		.uleb128 0x10
 3451 02d3 5A000000 		.4byte	.LVL17
 3452 02d7 AD1E0000 		.4byte	0x1ead
 3453 02db 10       		.uleb128 0x10
 3454 02dc 5E000000 		.4byte	.LVL18
 3455 02e0 B81E0000 		.4byte	0x1eb8
 3456 02e4 10       		.uleb128 0x10
 3457 02e5 62000000 		.4byte	.LVL19
 3458 02e9 C31E0000 		.4byte	0x1ec3
 3459 02ed 10       		.uleb128 0x10
 3460 02ee 66000000 		.4byte	.LVL20
 3461 02f2 CE1E0000 		.4byte	0x1ece
 3462 02f6 10       		.uleb128 0x10
 3463 02f7 6A000000 		.4byte	.LVL21
 3464 02fb D91E0000 		.4byte	0x1ed9
 3465 02ff 10       		.uleb128 0x10
 3466 0300 6E000000 		.4byte	.LVL22
 3467 0304 E41E0000 		.4byte	0x1ee4
 3468 0308 10       		.uleb128 0x10
 3469 0309 72000000 		.4byte	.LVL23
 3470 030d EF1E0000 		.4byte	0x1eef
 3471 0311 10       		.uleb128 0x10
 3472 0312 76000000 		.4byte	.LVL24
 3473 0316 FA1E0000 		.4byte	0x1efa
 3474 031a 10       		.uleb128 0x10
 3475 031b 7A000000 		.4byte	.LVL25
 3476 031f 051F0000 		.4byte	0x1f05
 3477 0323 11       		.uleb128 0x11
 3478 0324 84000000 		.4byte	.LVL26
 3479 0328 101F0000 		.4byte	0x1f10
 3480 032c 36030000 		.4byte	0x336
 3481 0330 12       		.uleb128 0x12
 3482 0331 01       		.uleb128 0x1
ARM GAS  C:\Users\User\AppData\Local\Temp\ccoMSFoX.s 			page 85


 3483 0332 50       		.byte	0x50
 3484 0333 01       		.uleb128 0x1
 3485 0334 30       		.byte	0x30
 3486 0335 00       		.byte	0
 3487 0336 10       		.uleb128 0x10
 3488 0337 88000000 		.4byte	.LVL27
 3489 033b 1B1F0000 		.4byte	0x1f1b
 3490 033f 10       		.uleb128 0x10
 3491 0340 8C000000 		.4byte	.LVL28
 3492 0344 261F0000 		.4byte	0x1f26
 3493 0348 11       		.uleb128 0x11
 3494 0349 92000000 		.4byte	.LVL29
 3495 034d 311F0000 		.4byte	0x1f31
 3496 0351 5F030000 		.4byte	0x35f
 3497 0355 12       		.uleb128 0x12
 3498 0356 01       		.uleb128 0x1
 3499 0357 50       		.byte	0x50
 3500 0358 05       		.uleb128 0x5
 3501 0359 03       		.byte	0x3
 3502 035a 00000000 		.4byte	isr_triggerIn
 3503 035e 00       		.byte	0
 3504 035f 11       		.uleb128 0x11
 3505 0360 98000000 		.4byte	.LVL30
 3506 0364 3C1F0000 		.4byte	0x1f3c
 3507 0368 76030000 		.4byte	0x376
 3508 036c 12       		.uleb128 0x12
 3509 036d 01       		.uleb128 0x1
 3510 036e 50       		.byte	0x50
 3511 036f 05       		.uleb128 0x5
 3512 0370 03       		.byte	0x3
 3513 0371 00000000 		.4byte	isr_DAC_1_done
 3514 0375 00       		.byte	0
 3515 0376 11       		.uleb128 0x11
 3516 0377 9E000000 		.4byte	.LVL31
 3517 037b 471F0000 		.4byte	0x1f47
 3518 037f 8D030000 		.4byte	0x38d
 3519 0383 12       		.uleb128 0x12
 3520 0384 01       		.uleb128 0x1
 3521 0385 50       		.byte	0x50
 3522 0386 05       		.uleb128 0x5
 3523 0387 03       		.byte	0x3
 3524 0388 00000000 		.4byte	isr_DAC_2_done
 3525 038c 00       		.byte	0
 3526 038d 11       		.uleb128 0x11
 3527 038e A4000000 		.4byte	.LVL32
 3528 0392 521F0000 		.4byte	0x1f52
 3529 0396 A4030000 		.4byte	0x3a4
 3530 039a 12       		.uleb128 0x12
 3531 039b 01       		.uleb128 0x1
 3532 039c 50       		.byte	0x50
 3533 039d 05       		.uleb128 0x5
 3534 039e 03       		.byte	0x3
 3535 039f 00000000 		.4byte	isr_DAC_3_done
 3536 03a3 00       		.byte	0
 3537 03a4 11       		.uleb128 0x11
 3538 03a5 AA000000 		.4byte	.LVL33
 3539 03a9 5D1F0000 		.4byte	0x1f5d
ARM GAS  C:\Users\User\AppData\Local\Temp\ccoMSFoX.s 			page 86


 3540 03ad BB030000 		.4byte	0x3bb
 3541 03b1 12       		.uleb128 0x12
 3542 03b2 01       		.uleb128 0x1
 3543 03b3 50       		.byte	0x50
 3544 03b4 05       		.uleb128 0x5
 3545 03b5 03       		.byte	0x3
 3546 03b6 00000000 		.4byte	isr_DAC_4_done
 3547 03ba 00       		.byte	0
 3548 03bb 11       		.uleb128 0x11
 3549 03bc B0000000 		.4byte	.LVL34
 3550 03c0 681F0000 		.4byte	0x1f68
 3551 03c4 D2030000 		.4byte	0x3d2
 3552 03c8 12       		.uleb128 0x12
 3553 03c9 01       		.uleb128 0x1
 3554 03ca 50       		.byte	0x50
 3555 03cb 05       		.uleb128 0x5
 3556 03cc 03       		.byte	0x3
 3557 03cd 00000000 		.4byte	isr_ADC_1_done
 3558 03d1 00       		.byte	0
 3559 03d2 13       		.uleb128 0x13
 3560 03d3 B6000000 		.4byte	.LVL35
 3561 03d7 731F0000 		.4byte	0x1f73
 3562 03db 12       		.uleb128 0x12
 3563 03dc 01       		.uleb128 0x1
 3564 03dd 50       		.byte	0x50
 3565 03de 05       		.uleb128 0x5
 3566 03df 03       		.byte	0x3
 3567 03e0 00000000 		.4byte	isr_ADC_2_done
 3568 03e4 00       		.byte	0
 3569 03e5 00       		.byte	0
 3570 03e6 14       		.uleb128 0x14
 3571 03e7 6F070000 		.4byte	.LASF30
 3572 03eb 01       		.byte	0x1
 3573 03ec 1401     		.2byte	0x114
 3574 03ee 00000000 		.4byte	.LFB66
 3575 03f2 E8000000 		.4byte	.LFE66-.LFB66
 3576 03f6 01       		.uleb128 0x1
 3577 03f7 9C       		.byte	0x9c
 3578 03f8 40060000 		.4byte	0x640
 3579 03fc 11       		.uleb128 0x11
 3580 03fd 0A000000 		.4byte	.LVL36
 3581 0401 7E1F0000 		.4byte	0x1f7e
 3582 0405 0F040000 		.4byte	0x40f
 3583 0409 12       		.uleb128 0x12
 3584 040a 01       		.uleb128 0x1
 3585 040b 50       		.byte	0x50
 3586 040c 01       		.uleb128 0x1
 3587 040d 32       		.byte	0x32
 3588 040e 00       		.byte	0
 3589 040f 11       		.uleb128 0x11
 3590 0410 16000000 		.4byte	.LVL37
 3591 0414 891F0000 		.4byte	0x1f89
 3592 0418 32040000 		.4byte	0x432
 3593 041c 12       		.uleb128 0x12
 3594 041d 01       		.uleb128 0x1
 3595 041e 50       		.byte	0x50
 3596 041f 02       		.uleb128 0x2
ARM GAS  C:\Users\User\AppData\Local\Temp\ccoMSFoX.s 			page 87


 3597 0420 74       		.byte	0x74
 3598 0421 00       		.sleb128 0
 3599 0422 12       		.uleb128 0x12
 3600 0423 01       		.uleb128 0x1
 3601 0424 51       		.byte	0x51
 3602 0425 05       		.uleb128 0x5
 3603 0426 03       		.byte	0x3
 3604 0427 00000000 		.4byte	.LC0
 3605 042b 12       		.uleb128 0x12
 3606 042c 01       		.uleb128 0x1
 3607 042d 52       		.byte	0x52
 3608 042e 02       		.uleb128 0x2
 3609 042f 08       		.byte	0x8
 3610 0430 73       		.byte	0x73
 3611 0431 00       		.byte	0
 3612 0432 11       		.uleb128 0x11
 3613 0433 1C000000 		.4byte	.LVL38
 3614 0437 941F0000 		.4byte	0x1f94
 3615 043b 46040000 		.4byte	0x446
 3616 043f 12       		.uleb128 0x12
 3617 0440 01       		.uleb128 0x1
 3618 0441 50       		.byte	0x50
 3619 0442 02       		.uleb128 0x2
 3620 0443 74       		.byte	0x74
 3621 0444 00       		.sleb128 0
 3622 0445 00       		.byte	0
 3623 0446 11       		.uleb128 0x11
 3624 0447 22000000 		.4byte	.LVL39
 3625 044b 7E1F0000 		.4byte	0x1f7e
 3626 044f 59040000 		.4byte	0x459
 3627 0453 12       		.uleb128 0x12
 3628 0454 01       		.uleb128 0x1
 3629 0455 50       		.byte	0x50
 3630 0456 01       		.uleb128 0x1
 3631 0457 31       		.byte	0x31
 3632 0458 00       		.byte	0
 3633 0459 11       		.uleb128 0x11
 3634 045a 32000000 		.4byte	.LVL40
 3635 045e 891F0000 		.4byte	0x1f89
 3636 0462 7C040000 		.4byte	0x47c
 3637 0466 12       		.uleb128 0x12
 3638 0467 01       		.uleb128 0x1
 3639 0468 50       		.byte	0x50
 3640 0469 02       		.uleb128 0x2
 3641 046a 74       		.byte	0x74
 3642 046b 00       		.sleb128 0
 3643 046c 12       		.uleb128 0x12
 3644 046d 01       		.uleb128 0x1
 3645 046e 51       		.byte	0x51
 3646 046f 05       		.uleb128 0x5
 3647 0470 03       		.byte	0x3
 3648 0471 44000000 		.4byte	.LC1
 3649 0475 12       		.uleb128 0x12
 3650 0476 01       		.uleb128 0x1
 3651 0477 52       		.byte	0x52
 3652 0478 02       		.uleb128 0x2
 3653 0479 08       		.byte	0x8
ARM GAS  C:\Users\User\AppData\Local\Temp\ccoMSFoX.s 			page 88


 3654 047a 72       		.byte	0x72
 3655 047b 00       		.byte	0
 3656 047c 11       		.uleb128 0x11
 3657 047d 38000000 		.4byte	.LVL41
 3658 0481 941F0000 		.4byte	0x1f94
 3659 0485 90040000 		.4byte	0x490
 3660 0489 12       		.uleb128 0x12
 3661 048a 01       		.uleb128 0x1
 3662 048b 50       		.byte	0x50
 3663 048c 02       		.uleb128 0x2
 3664 048d 74       		.byte	0x74
 3665 048e 00       		.sleb128 0
 3666 048f 00       		.byte	0
 3667 0490 11       		.uleb128 0x11
 3668 0491 3E000000 		.4byte	.LVL42
 3669 0495 7E1F0000 		.4byte	0x1f7e
 3670 0499 A3040000 		.4byte	0x4a3
 3671 049d 12       		.uleb128 0x12
 3672 049e 01       		.uleb128 0x1
 3673 049f 50       		.byte	0x50
 3674 04a0 01       		.uleb128 0x1
 3675 04a1 31       		.byte	0x31
 3676 04a2 00       		.byte	0
 3677 04a3 11       		.uleb128 0x11
 3678 04a4 48000000 		.4byte	.LVL43
 3679 04a8 891F0000 		.4byte	0x1f89
 3680 04ac C6040000 		.4byte	0x4c6
 3681 04b0 12       		.uleb128 0x12
 3682 04b1 01       		.uleb128 0x1
 3683 04b2 50       		.byte	0x50
 3684 04b3 02       		.uleb128 0x2
 3685 04b4 74       		.byte	0x74
 3686 04b5 00       		.sleb128 0
 3687 04b6 12       		.uleb128 0x12
 3688 04b7 01       		.uleb128 0x1
 3689 04b8 51       		.byte	0x51
 3690 04b9 05       		.uleb128 0x5
 3691 04ba 03       		.byte	0x3
 3692 04bb 9C000000 		.4byte	.LC2
 3693 04bf 12       		.uleb128 0x12
 3694 04c0 01       		.uleb128 0x1
 3695 04c1 52       		.byte	0x52
 3696 04c2 02       		.uleb128 0x2
 3697 04c3 08       		.byte	0x8
 3698 04c4 76       		.byte	0x76
 3699 04c5 00       		.byte	0
 3700 04c6 11       		.uleb128 0x11
 3701 04c7 4E000000 		.4byte	.LVL44
 3702 04cb 941F0000 		.4byte	0x1f94
 3703 04cf DA040000 		.4byte	0x4da
 3704 04d3 12       		.uleb128 0x12
 3705 04d4 01       		.uleb128 0x1
 3706 04d5 50       		.byte	0x50
 3707 04d6 02       		.uleb128 0x2
 3708 04d7 74       		.byte	0x74
 3709 04d8 00       		.sleb128 0
 3710 04d9 00       		.byte	0
ARM GAS  C:\Users\User\AppData\Local\Temp\ccoMSFoX.s 			page 89


 3711 04da 11       		.uleb128 0x11
 3712 04db 54000000 		.4byte	.LVL45
 3713 04df 7E1F0000 		.4byte	0x1f7e
 3714 04e3 ED040000 		.4byte	0x4ed
 3715 04e7 12       		.uleb128 0x12
 3716 04e8 01       		.uleb128 0x1
 3717 04e9 50       		.byte	0x50
 3718 04ea 01       		.uleb128 0x1
 3719 04eb 31       		.byte	0x31
 3720 04ec 00       		.byte	0
 3721 04ed 11       		.uleb128 0x11
 3722 04ee 5E000000 		.4byte	.LVL46
 3723 04f2 891F0000 		.4byte	0x1f89
 3724 04f6 10050000 		.4byte	0x510
 3725 04fa 12       		.uleb128 0x12
 3726 04fb 01       		.uleb128 0x1
 3727 04fc 50       		.byte	0x50
 3728 04fd 02       		.uleb128 0x2
 3729 04fe 74       		.byte	0x74
 3730 04ff 00       		.sleb128 0
 3731 0500 12       		.uleb128 0x12
 3732 0501 01       		.uleb128 0x1
 3733 0502 51       		.byte	0x51
 3734 0503 05       		.uleb128 0x5
 3735 0504 03       		.byte	0x3
 3736 0505 F0000000 		.4byte	.LC3
 3737 0509 12       		.uleb128 0x12
 3738 050a 01       		.uleb128 0x1
 3739 050b 52       		.byte	0x52
 3740 050c 02       		.uleb128 0x2
 3741 050d 08       		.byte	0x8
 3742 050e 64       		.byte	0x64
 3743 050f 00       		.byte	0
 3744 0510 11       		.uleb128 0x11
 3745 0511 64000000 		.4byte	.LVL47
 3746 0515 941F0000 		.4byte	0x1f94
 3747 0519 24050000 		.4byte	0x524
 3748 051d 12       		.uleb128 0x12
 3749 051e 01       		.uleb128 0x1
 3750 051f 50       		.byte	0x50
 3751 0520 02       		.uleb128 0x2
 3752 0521 74       		.byte	0x74
 3753 0522 00       		.sleb128 0
 3754 0523 00       		.byte	0
 3755 0524 11       		.uleb128 0x11
 3756 0525 6A000000 		.4byte	.LVL48
 3757 0529 7E1F0000 		.4byte	0x1f7e
 3758 052d 37050000 		.4byte	0x537
 3759 0531 12       		.uleb128 0x12
 3760 0532 01       		.uleb128 0x1
 3761 0533 50       		.byte	0x50
 3762 0534 01       		.uleb128 0x1
 3763 0535 31       		.byte	0x31
 3764 0536 00       		.byte	0
 3765 0537 11       		.uleb128 0x11
 3766 0538 74000000 		.4byte	.LVL49
 3767 053c 891F0000 		.4byte	0x1f89
ARM GAS  C:\Users\User\AppData\Local\Temp\ccoMSFoX.s 			page 90


 3768 0540 5A050000 		.4byte	0x55a
 3769 0544 12       		.uleb128 0x12
 3770 0545 01       		.uleb128 0x1
 3771 0546 50       		.byte	0x50
 3772 0547 02       		.uleb128 0x2
 3773 0548 74       		.byte	0x74
 3774 0549 00       		.sleb128 0
 3775 054a 12       		.uleb128 0x12
 3776 054b 01       		.uleb128 0x1
 3777 054c 51       		.byte	0x51
 3778 054d 05       		.uleb128 0x5
 3779 054e 03       		.byte	0x3
 3780 054f 20010000 		.4byte	.LC4
 3781 0553 12       		.uleb128 0x12
 3782 0554 01       		.uleb128 0x1
 3783 0555 52       		.byte	0x52
 3784 0556 02       		.uleb128 0x2
 3785 0557 08       		.byte	0x8
 3786 0558 61       		.byte	0x61
 3787 0559 00       		.byte	0
 3788 055a 11       		.uleb128 0x11
 3789 055b 7A000000 		.4byte	.LVL50
 3790 055f 941F0000 		.4byte	0x1f94
 3791 0563 6E050000 		.4byte	0x56e
 3792 0567 12       		.uleb128 0x12
 3793 0568 01       		.uleb128 0x1
 3794 0569 50       		.byte	0x50
 3795 056a 02       		.uleb128 0x2
 3796 056b 74       		.byte	0x74
 3797 056c 00       		.sleb128 0
 3798 056d 00       		.byte	0
 3799 056e 11       		.uleb128 0x11
 3800 056f 80000000 		.4byte	.LVL51
 3801 0573 7E1F0000 		.4byte	0x1f7e
 3802 0577 81050000 		.4byte	0x581
 3803 057b 12       		.uleb128 0x12
 3804 057c 01       		.uleb128 0x1
 3805 057d 50       		.byte	0x50
 3806 057e 01       		.uleb128 0x1
 3807 057f 31       		.byte	0x31
 3808 0580 00       		.byte	0
 3809 0581 11       		.uleb128 0x11
 3810 0582 98000000 		.4byte	.LVL52
 3811 0586 891F0000 		.4byte	0x1f89
 3812 058a BF050000 		.4byte	0x5bf
 3813 058e 12       		.uleb128 0x12
 3814 058f 01       		.uleb128 0x1
 3815 0590 50       		.byte	0x50
 3816 0591 02       		.uleb128 0x2
 3817 0592 74       		.byte	0x74
 3818 0593 00       		.sleb128 0
 3819 0594 12       		.uleb128 0x12
 3820 0595 01       		.uleb128 0x1
 3821 0596 51       		.byte	0x51
 3822 0597 05       		.uleb128 0x5
 3823 0598 03       		.byte	0x3
 3824 0599 5C010000 		.4byte	.LC5
ARM GAS  C:\Users\User\AppData\Local\Temp\ccoMSFoX.s 			page 91


 3825 059d 12       		.uleb128 0x12
 3826 059e 01       		.uleb128 0x1
 3827 059f 52       		.byte	0x52
 3828 05a0 02       		.uleb128 0x2
 3829 05a1 08       		.byte	0x8
 3830 05a2 31       		.byte	0x31
 3831 05a3 12       		.uleb128 0x12
 3832 05a4 01       		.uleb128 0x1
 3833 05a5 53       		.byte	0x53
 3834 05a6 02       		.uleb128 0x2
 3835 05a7 08       		.byte	0x8
 3836 05a8 32       		.byte	0x32
 3837 05a9 12       		.uleb128 0x12
 3838 05aa 02       		.uleb128 0x2
 3839 05ab 7D       		.byte	0x7d
 3840 05ac 00       		.sleb128 0
 3841 05ad 02       		.uleb128 0x2
 3842 05ae 08       		.byte	0x8
 3843 05af 33       		.byte	0x33
 3844 05b0 12       		.uleb128 0x12
 3845 05b1 02       		.uleb128 0x2
 3846 05b2 7D       		.byte	0x7d
 3847 05b3 04       		.sleb128 4
 3848 05b4 02       		.uleb128 0x2
 3849 05b5 08       		.byte	0x8
 3850 05b6 34       		.byte	0x34
 3851 05b7 12       		.uleb128 0x12
 3852 05b8 02       		.uleb128 0x2
 3853 05b9 7D       		.byte	0x7d
 3854 05ba 08       		.sleb128 8
 3855 05bb 02       		.uleb128 0x2
 3856 05bc 08       		.byte	0x8
 3857 05bd 35       		.byte	0x35
 3858 05be 00       		.byte	0
 3859 05bf 11       		.uleb128 0x11
 3860 05c0 9E000000 		.4byte	.LVL53
 3861 05c4 941F0000 		.4byte	0x1f94
 3862 05c8 D3050000 		.4byte	0x5d3
 3863 05cc 12       		.uleb128 0x12
 3864 05cd 01       		.uleb128 0x1
 3865 05ce 50       		.byte	0x50
 3866 05cf 02       		.uleb128 0x2
 3867 05d0 74       		.byte	0x74
 3868 05d1 00       		.sleb128 0
 3869 05d2 00       		.byte	0
 3870 05d3 11       		.uleb128 0x11
 3871 05d4 A4000000 		.4byte	.LVL54
 3872 05d8 7E1F0000 		.4byte	0x1f7e
 3873 05dc E6050000 		.4byte	0x5e6
 3874 05e0 12       		.uleb128 0x12
 3875 05e1 01       		.uleb128 0x1
 3876 05e2 50       		.byte	0x50
 3877 05e3 01       		.uleb128 0x1
 3878 05e4 31       		.byte	0x31
 3879 05e5 00       		.byte	0
 3880 05e6 11       		.uleb128 0x11
 3881 05e7 AE000000 		.4byte	.LVL55
ARM GAS  C:\Users\User\AppData\Local\Temp\ccoMSFoX.s 			page 92


 3882 05eb 891F0000 		.4byte	0x1f89
 3883 05ef 09060000 		.4byte	0x609
 3884 05f3 12       		.uleb128 0x12
 3885 05f4 01       		.uleb128 0x1
 3886 05f5 50       		.byte	0x50
 3887 05f6 02       		.uleb128 0x2
 3888 05f7 74       		.byte	0x74
 3889 05f8 00       		.sleb128 0
 3890 05f9 12       		.uleb128 0x12
 3891 05fa 01       		.uleb128 0x1
 3892 05fb 51       		.byte	0x51
 3893 05fc 05       		.uleb128 0x5
 3894 05fd 03       		.byte	0x3
 3895 05fe B4010000 		.4byte	.LC6
 3896 0602 12       		.uleb128 0x12
 3897 0603 01       		.uleb128 0x1
 3898 0604 52       		.byte	0x52
 3899 0605 02       		.uleb128 0x2
 3900 0606 08       		.byte	0x8
 3901 0607 65       		.byte	0x65
 3902 0608 00       		.byte	0
 3903 0609 11       		.uleb128 0x11
 3904 060a B4000000 		.4byte	.LVL56
 3905 060e 941F0000 		.4byte	0x1f94
 3906 0612 1D060000 		.4byte	0x61d
 3907 0616 12       		.uleb128 0x12
 3908 0617 01       		.uleb128 0x1
 3909 0618 50       		.byte	0x50
 3910 0619 02       		.uleb128 0x2
 3911 061a 74       		.byte	0x74
 3912 061b 00       		.sleb128 0
 3913 061c 00       		.byte	0
 3914 061d 11       		.uleb128 0x11
 3915 061e BA000000 		.4byte	.LVL57
 3916 0622 7E1F0000 		.4byte	0x1f7e
 3917 0626 30060000 		.4byte	0x630
 3918 062a 12       		.uleb128 0x12
 3919 062b 01       		.uleb128 0x1
 3920 062c 50       		.byte	0x50
 3921 062d 01       		.uleb128 0x1
 3922 062e 31       		.byte	0x31
 3923 062f 00       		.byte	0
 3924 0630 13       		.uleb128 0x13
 3925 0631 C0000000 		.4byte	.LVL58
 3926 0635 7E1F0000 		.4byte	0x1f7e
 3927 0639 12       		.uleb128 0x12
 3928 063a 01       		.uleb128 0x1
 3929 063b 50       		.byte	0x50
 3930 063c 01       		.uleb128 0x1
 3931 063d 32       		.byte	0x32
 3932 063e 00       		.byte	0
 3933 063f 00       		.byte	0
 3934 0640 14       		.uleb128 0x14
 3935 0641 5E070000 		.4byte	.LASF31
 3936 0645 01       		.byte	0x1
 3937 0646 2801     		.2byte	0x128
 3938 0648 00000000 		.4byte	.LFB67
ARM GAS  C:\Users\User\AppData\Local\Temp\ccoMSFoX.s 			page 93


 3939 064c 48000000 		.4byte	.LFE67-.LFB67
 3940 0650 01       		.uleb128 0x1
 3941 0651 9C       		.byte	0x9c
 3942 0652 DB060000 		.4byte	0x6db
 3943 0656 11       		.uleb128 0x11
 3944 0657 12000000 		.4byte	.LVL59
 3945 065b 891F0000 		.4byte	0x1f89
 3946 065f 73060000 		.4byte	0x673
 3947 0663 12       		.uleb128 0x12
 3948 0664 01       		.uleb128 0x1
 3949 0665 50       		.byte	0x50
 3950 0666 02       		.uleb128 0x2
 3951 0667 74       		.byte	0x74
 3952 0668 00       		.sleb128 0
 3953 0669 12       		.uleb128 0x12
 3954 066a 01       		.uleb128 0x1
 3955 066b 51       		.byte	0x51
 3956 066c 05       		.uleb128 0x5
 3957 066d 03       		.byte	0x3
 3958 066e E4010000 		.4byte	.LC7
 3959 0672 00       		.byte	0
 3960 0673 11       		.uleb128 0x11
 3961 0674 18000000 		.4byte	.LVL60
 3962 0678 941F0000 		.4byte	0x1f94
 3963 067c 87060000 		.4byte	0x687
 3964 0680 12       		.uleb128 0x12
 3965 0681 01       		.uleb128 0x1
 3966 0682 50       		.byte	0x50
 3967 0683 02       		.uleb128 0x2
 3968 0684 74       		.byte	0x74
 3969 0685 00       		.sleb128 0
 3970 0686 00       		.byte	0
 3971 0687 11       		.uleb128 0x11
 3972 0688 1E000000 		.4byte	.LVL61
 3973 068c 7E1F0000 		.4byte	0x1f7e
 3974 0690 9A060000 		.4byte	0x69a
 3975 0694 12       		.uleb128 0x12
 3976 0695 01       		.uleb128 0x1
 3977 0696 50       		.byte	0x50
 3978 0697 01       		.uleb128 0x1
 3979 0698 31       		.byte	0x31
 3980 0699 00       		.byte	0
 3981 069a 11       		.uleb128 0x11
 3982 069b 28000000 		.4byte	.LVL62
 3983 069f 891F0000 		.4byte	0x1f89
 3984 06a3 B7060000 		.4byte	0x6b7
 3985 06a7 12       		.uleb128 0x12
 3986 06a8 01       		.uleb128 0x1
 3987 06a9 50       		.byte	0x50
 3988 06aa 02       		.uleb128 0x2
 3989 06ab 74       		.byte	0x74
 3990 06ac 00       		.sleb128 0
 3991 06ad 12       		.uleb128 0x12
 3992 06ae 01       		.uleb128 0x1
 3993 06af 51       		.byte	0x51
 3994 06b0 05       		.uleb128 0x5
 3995 06b1 03       		.byte	0x3
ARM GAS  C:\Users\User\AppData\Local\Temp\ccoMSFoX.s 			page 94


 3996 06b2 18020000 		.4byte	.LC8
 3997 06b6 00       		.byte	0
 3998 06b7 11       		.uleb128 0x11
 3999 06b8 2E000000 		.4byte	.LVL63
 4000 06bc 941F0000 		.4byte	0x1f94
 4001 06c0 CB060000 		.4byte	0x6cb
 4002 06c4 12       		.uleb128 0x12
 4003 06c5 01       		.uleb128 0x1
 4004 06c6 50       		.byte	0x50
 4005 06c7 02       		.uleb128 0x2
 4006 06c8 74       		.byte	0x74
 4007 06c9 00       		.sleb128 0
 4008 06ca 00       		.byte	0
 4009 06cb 13       		.uleb128 0x13
 4010 06cc 34000000 		.4byte	.LVL64
 4011 06d0 7E1F0000 		.4byte	0x1f7e
 4012 06d4 12       		.uleb128 0x12
 4013 06d5 01       		.uleb128 0x1
 4014 06d6 50       		.byte	0x50
 4015 06d7 01       		.uleb128 0x1
 4016 06d8 31       		.byte	0x31
 4017 06d9 00       		.byte	0
 4018 06da 00       		.byte	0
 4019 06db 14       		.uleb128 0x14
 4020 06dc FA030000 		.4byte	.LASF32
 4021 06e0 01       		.byte	0x1
 4022 06e1 3001     		.2byte	0x130
 4023 06e3 00000000 		.4byte	.LFB68
 4024 06e7 90000000 		.4byte	.LFE68-.LFB68
 4025 06eb 01       		.uleb128 0x1
 4026 06ec 9C       		.byte	0x9c
 4027 06ed 12080000 		.4byte	0x812
 4028 06f1 15       		.uleb128 0x15
 4029 06f2 02000000 		.4byte	.LBB2
 4030 06f6 6C000000 		.4byte	.LBE2-.LBB2
 4031 06fa FF070000 		.4byte	0x7ff
 4032 06fe 16       		.uleb128 0x16
 4033 06ff 6900     		.ascii	"i\000"
 4034 0701 01       		.byte	0x1
 4035 0702 3201     		.2byte	0x132
 4036 0704 68000000 		.4byte	0x68
 4037 0708 00000000 		.4byte	.LLST0
 4038 070c 11       		.uleb128 0x11
 4039 070d 18000000 		.4byte	.LVL67
 4040 0711 891F0000 		.4byte	0x1f89
 4041 0715 2F070000 		.4byte	0x72f
 4042 0719 12       		.uleb128 0x12
 4043 071a 01       		.uleb128 0x1
 4044 071b 50       		.byte	0x50
 4045 071c 02       		.uleb128 0x2
 4046 071d 75       		.byte	0x75
 4047 071e 00       		.sleb128 0
 4048 071f 12       		.uleb128 0x12
 4049 0720 01       		.uleb128 0x1
 4050 0721 51       		.byte	0x51
 4051 0722 05       		.uleb128 0x5
 4052 0723 03       		.byte	0x3
ARM GAS  C:\Users\User\AppData\Local\Temp\ccoMSFoX.s 			page 95


 4053 0724 40020000 		.4byte	.LC9
 4054 0728 12       		.uleb128 0x12
 4055 0729 01       		.uleb128 0x1
 4056 072a 52       		.byte	0x52
 4057 072b 02       		.uleb128 0x2
 4058 072c 74       		.byte	0x74
 4059 072d 00       		.sleb128 0
 4060 072e 00       		.byte	0
 4061 072f 11       		.uleb128 0x11
 4062 0730 1E000000 		.4byte	.LVL68
 4063 0734 941F0000 		.4byte	0x1f94
 4064 0738 43070000 		.4byte	0x743
 4065 073c 12       		.uleb128 0x12
 4066 073d 01       		.uleb128 0x1
 4067 073e 50       		.byte	0x50
 4068 073f 02       		.uleb128 0x2
 4069 0740 75       		.byte	0x75
 4070 0741 00       		.sleb128 0
 4071 0742 00       		.byte	0
 4072 0743 11       		.uleb128 0x11
 4073 0744 24000000 		.4byte	.LVL69
 4074 0748 7E1F0000 		.4byte	0x1f7e
 4075 074c 56070000 		.4byte	0x756
 4076 0750 12       		.uleb128 0x12
 4077 0751 01       		.uleb128 0x1
 4078 0752 50       		.byte	0x50
 4079 0753 01       		.uleb128 0x1
 4080 0754 31       		.byte	0x31
 4081 0755 00       		.byte	0
 4082 0756 11       		.uleb128 0x11
 4083 0757 34000000 		.4byte	.LVL70
 4084 075b 891F0000 		.4byte	0x1f89
 4085 075f 79070000 		.4byte	0x779
 4086 0763 12       		.uleb128 0x12
 4087 0764 01       		.uleb128 0x1
 4088 0765 50       		.byte	0x50
 4089 0766 02       		.uleb128 0x2
 4090 0767 75       		.byte	0x75
 4091 0768 00       		.sleb128 0
 4092 0769 12       		.uleb128 0x12
 4093 076a 01       		.uleb128 0x1
 4094 076b 51       		.byte	0x51
 4095 076c 05       		.uleb128 0x5
 4096 076d 03       		.byte	0x3
 4097 076e 5C020000 		.4byte	.LC10
 4098 0772 12       		.uleb128 0x12
 4099 0773 01       		.uleb128 0x1
 4100 0774 52       		.byte	0x52
 4101 0775 02       		.uleb128 0x2
 4102 0776 74       		.byte	0x74
 4103 0777 00       		.sleb128 0
 4104 0778 00       		.byte	0
 4105 0779 11       		.uleb128 0x11
 4106 077a 3A000000 		.4byte	.LVL71
 4107 077e 941F0000 		.4byte	0x1f94
 4108 0782 8D070000 		.4byte	0x78d
 4109 0786 12       		.uleb128 0x12
ARM GAS  C:\Users\User\AppData\Local\Temp\ccoMSFoX.s 			page 96


 4110 0787 01       		.uleb128 0x1
 4111 0788 50       		.byte	0x50
 4112 0789 02       		.uleb128 0x2
 4113 078a 75       		.byte	0x75
 4114 078b 00       		.sleb128 0
 4115 078c 00       		.byte	0
 4116 078d 11       		.uleb128 0x11
 4117 078e 40000000 		.4byte	.LVL72
 4118 0792 7E1F0000 		.4byte	0x1f7e
 4119 0796 A0070000 		.4byte	0x7a0
 4120 079a 12       		.uleb128 0x12
 4121 079b 01       		.uleb128 0x1
 4122 079c 50       		.byte	0x50
 4123 079d 01       		.uleb128 0x1
 4124 079e 31       		.byte	0x31
 4125 079f 00       		.byte	0
 4126 07a0 10       		.uleb128 0x10
 4127 07a1 44000000 		.4byte	.LVL73
 4128 07a5 9F1F0000 		.4byte	0x1f9f
 4129 07a9 10       		.uleb128 0x10
 4130 07aa 4A000000 		.4byte	.LVL74
 4131 07ae AA1F0000 		.4byte	0x1faa
 4132 07b2 11       		.uleb128 0x11
 4133 07b3 50000000 		.4byte	.LVL75
 4134 07b7 7E1F0000 		.4byte	0x1f7e
 4135 07bb C5070000 		.4byte	0x7c5
 4136 07bf 12       		.uleb128 0x12
 4137 07c0 01       		.uleb128 0x1
 4138 07c1 50       		.byte	0x50
 4139 07c2 01       		.uleb128 0x1
 4140 07c3 32       		.byte	0x32
 4141 07c4 00       		.byte	0
 4142 07c5 11       		.uleb128 0x11
 4143 07c6 56000000 		.4byte	.LVL76
 4144 07ca 941F0000 		.4byte	0x1f94
 4145 07ce DC070000 		.4byte	0x7dc
 4146 07d2 12       		.uleb128 0x12
 4147 07d3 01       		.uleb128 0x1
 4148 07d4 50       		.byte	0x50
 4149 07d5 05       		.uleb128 0x5
 4150 07d6 03       		.byte	0x3
 4151 07d7 78020000 		.4byte	.LC11
 4152 07db 00       		.byte	0
 4153 07dc 11       		.uleb128 0x11
 4154 07dd 5C000000 		.4byte	.LVL77
 4155 07e1 7E1F0000 		.4byte	0x1f7e
 4156 07e5 EF070000 		.4byte	0x7ef
 4157 07e9 12       		.uleb128 0x12
 4158 07ea 01       		.uleb128 0x1
 4159 07eb 50       		.byte	0x50
 4160 07ec 01       		.uleb128 0x1
 4161 07ed 31       		.byte	0x31
 4162 07ee 00       		.byte	0
 4163 07ef 13       		.uleb128 0x13
 4164 07f0 62000000 		.4byte	.LVL78
 4165 07f4 B51F0000 		.4byte	0x1fb5
 4166 07f8 12       		.uleb128 0x12
ARM GAS  C:\Users\User\AppData\Local\Temp\ccoMSFoX.s 			page 97


 4167 07f9 01       		.uleb128 0x1
 4168 07fa 50       		.byte	0x50
 4169 07fb 01       		.uleb128 0x1
 4170 07fc 3A       		.byte	0x3a
 4171 07fd 00       		.byte	0
 4172 07fe 00       		.byte	0
 4173 07ff 10       		.uleb128 0x10
 4174 0800 72000000 		.4byte	.LVL80
 4175 0804 40060000 		.4byte	0x640
 4176 0808 10       		.uleb128 0x10
 4177 0809 76000000 		.4byte	.LVL81
 4178 080d E6030000 		.4byte	0x3e6
 4179 0811 00       		.byte	0
 4180 0812 17       		.uleb128 0x17
 4181 0813 77080000 		.4byte	.LASF33
 4182 0817 01       		.byte	0x1
 4183 0818 6201     		.2byte	0x162
 4184 081a 00000000 		.4byte	.LFB70
 4185 081e A8020000 		.4byte	.LFE70-.LFB70
 4186 0822 01       		.uleb128 0x1
 4187 0823 9C       		.byte	0x9c
 4188 0824 63090000 		.4byte	0x963
 4189 0828 18       		.uleb128 0x18
 4190 0829 A3030000 		.4byte	.LASF34
 4191 082d 01       		.byte	0x1
 4192 082e 6901     		.2byte	0x169
 4193 0830 68000000 		.4byte	0x68
 4194 0834 1F000000 		.4byte	.LLST1
 4195 0838 15       		.uleb128 0x15
 4196 0839 10000000 		.4byte	.LBB3
 4197 083d 56020000 		.4byte	.LBE3-.LBB3
 4198 0841 F6080000 		.4byte	0x8f6
 4199 0845 18       		.uleb128 0x18
 4200 0846 3C080000 		.4byte	.LASF35
 4201 084a 01       		.byte	0x1
 4202 084b 6A01     		.2byte	0x16a
 4203 084d 68000000 		.4byte	0x68
 4204 0851 3D000000 		.4byte	.LLST2
 4205 0855 19       		.uleb128 0x19
 4206 0856 00000000 		.4byte	.Ldebug_ranges0+0
 4207 085a 7F080000 		.4byte	0x87f
 4208 085e 16       		.uleb128 0x16
 4209 085f 6900     		.ascii	"i\000"
 4210 0861 01       		.byte	0x1
 4211 0862 6E01     		.2byte	0x16e
 4212 0864 68000000 		.4byte	0x68
 4213 0868 5C000000 		.4byte	.LLST3
 4214 086c 10       		.uleb128 0x10
 4215 086d 6A000000 		.4byte	.LVL95
 4216 0871 C01F0000 		.4byte	0x1fc0
 4217 0875 10       		.uleb128 0x10
 4218 0876 9A000000 		.4byte	.LVL100
 4219 087a C01F0000 		.4byte	0x1fc0
 4220 087e 00       		.byte	0
 4221 087f 15       		.uleb128 0x15
 4222 0880 DC000000 		.4byte	.LBB6
 4223 0884 A6000000 		.4byte	.LBE6-.LBB6
ARM GAS  C:\Users\User\AppData\Local\Temp\ccoMSFoX.s 			page 98


 4224 0888 AD080000 		.4byte	0x8ad
 4225 088c 16       		.uleb128 0x16
 4226 088d 6900     		.ascii	"i\000"
 4227 088f 01       		.byte	0x1
 4228 0890 7901     		.2byte	0x179
 4229 0892 68000000 		.4byte	0x68
 4230 0896 7A000000 		.4byte	.LLST4
 4231 089a 10       		.uleb128 0x10
 4232 089b 12010000 		.4byte	.LVL115
 4233 089f C01F0000 		.4byte	0x1fc0
 4234 08a3 10       		.uleb128 0x10
 4235 08a4 48010000 		.4byte	.LVL121
 4236 08a8 C01F0000 		.4byte	0x1fc0
 4237 08ac 00       		.byte	0
 4238 08ad 15       		.uleb128 0x15
 4239 08ae 82010000 		.4byte	.LBB7
 4240 08b2 BE000000 		.4byte	.LBE7-.LBB7
 4241 08b6 DB080000 		.4byte	0x8db
 4242 08ba 16       		.uleb128 0x16
 4243 08bb 6900     		.ascii	"i\000"
 4244 08bd 01       		.byte	0x1
 4245 08be 8401     		.2byte	0x184
 4246 08c0 68000000 		.4byte	0x68
 4247 08c4 8D000000 		.4byte	.LLST5
 4248 08c8 10       		.uleb128 0x10
 4249 08c9 D4010000 		.4byte	.LVL138
 4250 08cd C01F0000 		.4byte	0x1fc0
 4251 08d1 10       		.uleb128 0x10
 4252 08d2 0A020000 		.4byte	.LVL144
 4253 08d6 C01F0000 		.4byte	0x1fc0
 4254 08da 00       		.byte	0
 4255 08db 13       		.uleb128 0x13
 4256 08dc 5A020000 		.4byte	.LVL150
 4257 08e0 CB1F0000 		.4byte	0x1fcb
 4258 08e4 12       		.uleb128 0x12
 4259 08e5 01       		.uleb128 0x1
 4260 08e6 50       		.byte	0x50
 4261 08e7 05       		.uleb128 0x5
 4262 08e8 03       		.byte	0x3
 4263 08e9 00000000 		.4byte	signal_adc_1
 4264 08ed 12       		.uleb128 0x12
 4265 08ee 01       		.uleb128 0x1
 4266 08ef 52       		.byte	0x52
 4267 08f0 03       		.uleb128 0x3
 4268 08f1 0A       		.byte	0xa
 4269 08f2 F22B     		.2byte	0x2bf2
 4270 08f4 00       		.byte	0
 4271 08f5 00       		.byte	0
 4272 08f6 15       		.uleb128 0x15
 4273 08f7 66020000 		.4byte	.LBB8
 4274 08fb 10000000 		.4byte	.LBE8-.LBB8
 4275 08ff 12090000 		.4byte	0x912
 4276 0903 16       		.uleb128 0x16
 4277 0904 6900     		.ascii	"i\000"
 4278 0906 01       		.byte	0x1
 4279 0907 9101     		.2byte	0x191
 4280 0909 68000000 		.4byte	0x68
ARM GAS  C:\Users\User\AppData\Local\Temp\ccoMSFoX.s 			page 99


 4281 090d A0000000 		.4byte	.LLST6
 4282 0911 00       		.byte	0
 4283 0912 11       		.uleb128 0x11
 4284 0913 0A000000 		.4byte	.LVL83
 4285 0917 941F0000 		.4byte	0x1f94
 4286 091b 29090000 		.4byte	0x929
 4287 091f 12       		.uleb128 0x12
 4288 0920 01       		.uleb128 0x1
 4289 0921 50       		.byte	0x50
 4290 0922 05       		.uleb128 0x5
 4291 0923 03       		.byte	0x3
 4292 0924 94020000 		.4byte	.LC12
 4293 0928 00       		.byte	0
 4294 0929 11       		.uleb128 0x11
 4295 092a 10000000 		.4byte	.LVL84
 4296 092e 7E1F0000 		.4byte	0x1f7e
 4297 0932 3C090000 		.4byte	0x93c
 4298 0936 12       		.uleb128 0x12
 4299 0937 01       		.uleb128 0x1
 4300 0938 50       		.byte	0x50
 4301 0939 01       		.uleb128 0x1
 4302 093a 31       		.byte	0x31
 4303 093b 00       		.byte	0
 4304 093c 11       		.uleb128 0x11
 4305 093d 7C020000 		.4byte	.LVL154
 4306 0941 941F0000 		.4byte	0x1f94
 4307 0945 53090000 		.4byte	0x953
 4308 0949 12       		.uleb128 0x12
 4309 094a 01       		.uleb128 0x1
 4310 094b 50       		.byte	0x50
 4311 094c 05       		.uleb128 0x5
 4312 094d 03       		.byte	0x3
 4313 094e AC020000 		.4byte	.LC13
 4314 0952 00       		.byte	0
 4315 0953 13       		.uleb128 0x13
 4316 0954 82020000 		.4byte	.LVL155
 4317 0958 7E1F0000 		.4byte	0x1f7e
 4318 095c 12       		.uleb128 0x12
 4319 095d 01       		.uleb128 0x1
 4320 095e 50       		.byte	0x50
 4321 095f 01       		.uleb128 0x1
 4322 0960 31       		.byte	0x31
 4323 0961 00       		.byte	0
 4324 0962 00       		.byte	0
 4325 0963 14       		.uleb128 0x14
 4326 0964 9E070000 		.4byte	.LASF36
 4327 0968 01       		.byte	0x1
 4328 0969 4C01     		.2byte	0x14c
 4329 096b 00000000 		.4byte	.LFB69
 4330 096f 38000000 		.4byte	.LFE69-.LFB69
 4331 0973 01       		.uleb128 0x1
 4332 0974 9C       		.byte	0x9c
 4333 0975 B4090000 		.4byte	0x9b4
 4334 0979 15       		.uleb128 0x15
 4335 097a 12000000 		.4byte	.LBB9
 4336 097e 12000000 		.4byte	.LBE9-.LBB9
 4337 0982 97090000 		.4byte	0x997
ARM GAS  C:\Users\User\AppData\Local\Temp\ccoMSFoX.s 			page 100


 4338 0986 18       		.uleb128 0x18
 4339 0987 0E010000 		.4byte	.LASF37
 4340 098b 01       		.byte	0x1
 4341 098c 5501     		.2byte	0x155
 4342 098e 68000000 		.4byte	0x68
 4343 0992 B3000000 		.4byte	.LLST7
 4344 0996 00       		.byte	0
 4345 0997 11       		.uleb128 0x11
 4346 0998 12000000 		.4byte	.LVL157
 4347 099c D61F0000 		.4byte	0x1fd6
 4348 09a0 AA090000 		.4byte	0x9aa
 4349 09a4 12       		.uleb128 0x12
 4350 09a5 01       		.uleb128 0x1
 4351 09a6 50       		.byte	0x50
 4352 09a7 01       		.uleb128 0x1
 4353 09a8 31       		.byte	0x31
 4354 09a9 00       		.byte	0
 4355 09aa 10       		.uleb128 0x10
 4356 09ab 28000000 		.4byte	.LVL160
 4357 09af 12080000 		.4byte	0x812
 4358 09b3 00       		.byte	0
 4359 09b4 14       		.uleb128 0x14
 4360 09b5 43010000 		.4byte	.LASF38
 4361 09b9 01       		.byte	0x1
 4362 09ba 2202     		.2byte	0x222
 4363 09bc 00000000 		.4byte	.LFB73
 4364 09c0 A4000000 		.4byte	.LFE73-.LFB73
 4365 09c4 01       		.uleb128 0x1
 4366 09c5 9C       		.byte	0x9c
 4367 09c6 CA0A0000 		.4byte	0xaca
 4368 09ca 11       		.uleb128 0x11
 4369 09cb 16000000 		.4byte	.LVL161
 4370 09cf E11F0000 		.4byte	0x1fe1
 4371 09d3 EE090000 		.4byte	0x9ee
 4372 09d7 12       		.uleb128 0x12
 4373 09d8 01       		.uleb128 0x1
 4374 09d9 50       		.byte	0x50
 4375 09da 01       		.uleb128 0x1
 4376 09db 31       		.byte	0x31
 4377 09dc 12       		.uleb128 0x12
 4378 09dd 01       		.uleb128 0x1
 4379 09de 51       		.byte	0x51
 4380 09df 01       		.uleb128 0x1
 4381 09e0 31       		.byte	0x31
 4382 09e1 12       		.uleb128 0x12
 4383 09e2 01       		.uleb128 0x1
 4384 09e3 52       		.byte	0x52
 4385 09e4 01       		.uleb128 0x1
 4386 09e5 30       		.byte	0x30
 4387 09e6 12       		.uleb128 0x12
 4388 09e7 01       		.uleb128 0x1
 4389 09e8 53       		.byte	0x53
 4390 09e9 03       		.uleb128 0x3
 4391 09ea 0A       		.byte	0xa
 4392 09eb 0040     		.2byte	0x4000
 4393 09ed 00       		.byte	0
 4394 09ee 10       		.uleb128 0x10
ARM GAS  C:\Users\User\AppData\Local\Temp\ccoMSFoX.s 			page 101


 4395 09ef 1E000000 		.4byte	.LVL162
 4396 09f3 EC1F0000 		.4byte	0x1fec
 4397 09f7 10       		.uleb128 0x10
 4398 09f8 26000000 		.4byte	.LVL163
 4399 09fc EC1F0000 		.4byte	0x1fec
 4400 0a00 10       		.uleb128 0x10
 4401 0a01 2C000000 		.4byte	.LVL164
 4402 0a05 EC1F0000 		.4byte	0x1fec
 4403 0a09 11       		.uleb128 0x11
 4404 0a0a 3E000000 		.4byte	.LVL165
 4405 0a0e F71F0000 		.4byte	0x1ff7
 4406 0a12 230A0000 		.4byte	0xa23
 4407 0a16 12       		.uleb128 0x12
 4408 0a17 01       		.uleb128 0x1
 4409 0a18 51       		.byte	0x51
 4410 0a19 03       		.uleb128 0x3
 4411 0a1a 0A       		.byte	0xa
 4412 0a1b A60E     		.2byte	0xea6
 4413 0a1d 12       		.uleb128 0x12
 4414 0a1e 01       		.uleb128 0x1
 4415 0a1f 53       		.byte	0x53
 4416 0a20 01       		.uleb128 0x1
 4417 0a21 31       		.byte	0x31
 4418 0a22 00       		.byte	0
 4419 0a23 11       		.uleb128 0x11
 4420 0a24 4C000000 		.4byte	.LVL166
 4421 0a28 F71F0000 		.4byte	0x1ff7
 4422 0a2c 3D0A0000 		.4byte	0xa3d
 4423 0a30 12       		.uleb128 0x12
 4424 0a31 01       		.uleb128 0x1
 4425 0a32 51       		.byte	0x51
 4426 0a33 03       		.uleb128 0x3
 4427 0a34 0A       		.byte	0xa
 4428 0a35 A60E     		.2byte	0xea6
 4429 0a37 12       		.uleb128 0x12
 4430 0a38 01       		.uleb128 0x1
 4431 0a39 53       		.byte	0x53
 4432 0a3a 01       		.uleb128 0x1
 4433 0a3b 31       		.byte	0x31
 4434 0a3c 00       		.byte	0
 4435 0a3d 11       		.uleb128 0x11
 4436 0a3e 5A000000 		.4byte	.LVL167
 4437 0a42 F71F0000 		.4byte	0x1ff7
 4438 0a46 5D0A0000 		.4byte	0xa5d
 4439 0a4a 12       		.uleb128 0x12
 4440 0a4b 01       		.uleb128 0x1
 4441 0a4c 51       		.byte	0x51
 4442 0a4d 03       		.uleb128 0x3
 4443 0a4e 0A       		.byte	0xa
 4444 0a4f A60E     		.2byte	0xea6
 4445 0a51 12       		.uleb128 0x12
 4446 0a52 01       		.uleb128 0x1
 4447 0a53 52       		.byte	0x52
 4448 0a54 02       		.uleb128 0x2
 4449 0a55 09       		.byte	0x9
 4450 0a56 FE       		.byte	0xfe
 4451 0a57 12       		.uleb128 0x12
ARM GAS  C:\Users\User\AppData\Local\Temp\ccoMSFoX.s 			page 102


 4452 0a58 01       		.uleb128 0x1
 4453 0a59 53       		.byte	0x53
 4454 0a5a 01       		.uleb128 0x1
 4455 0a5b 35       		.byte	0x35
 4456 0a5c 00       		.byte	0
 4457 0a5d 11       		.uleb128 0x11
 4458 0a5e 68000000 		.4byte	.LVL168
 4459 0a62 02200000 		.4byte	0x2002
 4460 0a66 790A0000 		.4byte	0xa79
 4461 0a6a 12       		.uleb128 0x12
 4462 0a6b 01       		.uleb128 0x1
 4463 0a6c 51       		.byte	0x51
 4464 0a6d 03       		.uleb128 0x3
 4465 0a6e 0B       		.byte	0xb
 4466 0a6f 0080     		.2byte	0x8000
 4467 0a71 12       		.uleb128 0x12
 4468 0a72 01       		.uleb128 0x1
 4469 0a73 52       		.byte	0x52
 4470 0a74 03       		.uleb128 0x3
 4471 0a75 0A       		.byte	0xa
 4472 0a76 815B     		.2byte	0x5b81
 4473 0a78 00       		.byte	0
 4474 0a79 11       		.uleb128 0x11
 4475 0a7a 76000000 		.4byte	.LVL169
 4476 0a7e 02200000 		.4byte	0x2002
 4477 0a82 950A0000 		.4byte	0xa95
 4478 0a86 12       		.uleb128 0x12
 4479 0a87 01       		.uleb128 0x1
 4480 0a88 51       		.byte	0x51
 4481 0a89 03       		.uleb128 0x3
 4482 0a8a 0B       		.byte	0xb
 4483 0a8b A68E     		.2byte	0x8ea6
 4484 0a8d 12       		.uleb128 0x12
 4485 0a8e 01       		.uleb128 0x1
 4486 0a8f 52       		.byte	0x52
 4487 0a90 03       		.uleb128 0x3
 4488 0a91 0A       		.byte	0xa
 4489 0a92 815B     		.2byte	0x5b81
 4490 0a94 00       		.byte	0
 4491 0a95 11       		.uleb128 0x11
 4492 0a96 84000000 		.4byte	.LVL170
 4493 0a9a 02200000 		.4byte	0x2002
 4494 0a9e B10A0000 		.4byte	0xab1
 4495 0aa2 12       		.uleb128 0x12
 4496 0aa3 01       		.uleb128 0x1
 4497 0aa4 51       		.byte	0x51
 4498 0aa5 03       		.uleb128 0x3
 4499 0aa6 0B       		.byte	0xb
 4500 0aa7 4C9D     		.2byte	0x9d4c
 4501 0aa9 12       		.uleb128 0x12
 4502 0aaa 01       		.uleb128 0x1
 4503 0aab 52       		.byte	0x52
 4504 0aac 03       		.uleb128 0x3
 4505 0aad 0A       		.byte	0xa
 4506 0aae 815B     		.2byte	0x5b81
 4507 0ab0 00       		.byte	0
 4508 0ab1 10       		.uleb128 0x10
ARM GAS  C:\Users\User\AppData\Local\Temp\ccoMSFoX.s 			page 103


 4509 0ab2 8E000000 		.4byte	.LVL171
 4510 0ab6 0D200000 		.4byte	0x200d
 4511 0aba 13       		.uleb128 0x13
 4512 0abb 96000000 		.4byte	.LVL172
 4513 0abf 18200000 		.4byte	0x2018
 4514 0ac3 12       		.uleb128 0x12
 4515 0ac4 01       		.uleb128 0x1
 4516 0ac5 51       		.byte	0x51
 4517 0ac6 01       		.uleb128 0x1
 4518 0ac7 31       		.byte	0x31
 4519 0ac8 00       		.byte	0
 4520 0ac9 00       		.byte	0
 4521 0aca 14       		.uleb128 0x14
 4522 0acb 4F070000 		.4byte	.LASF39
 4523 0acf 01       		.byte	0x1
 4524 0ad0 3702     		.2byte	0x237
 4525 0ad2 00000000 		.4byte	.LFB74
 4526 0ad6 A4000000 		.4byte	.LFE74-.LFB74
 4527 0ada 01       		.uleb128 0x1
 4528 0adb 9C       		.byte	0x9c
 4529 0adc DE0B0000 		.4byte	0xbde
 4530 0ae0 11       		.uleb128 0x11
 4531 0ae1 16000000 		.4byte	.LVL173
 4532 0ae5 23200000 		.4byte	0x2023
 4533 0ae9 040B0000 		.4byte	0xb04
 4534 0aed 12       		.uleb128 0x12
 4535 0aee 01       		.uleb128 0x1
 4536 0aef 50       		.byte	0x50
 4537 0af0 01       		.uleb128 0x1
 4538 0af1 31       		.byte	0x31
 4539 0af2 12       		.uleb128 0x12
 4540 0af3 01       		.uleb128 0x1
 4541 0af4 51       		.byte	0x51
 4542 0af5 01       		.uleb128 0x1
 4543 0af6 31       		.byte	0x31
 4544 0af7 12       		.uleb128 0x12
 4545 0af8 01       		.uleb128 0x1
 4546 0af9 52       		.byte	0x52
 4547 0afa 01       		.uleb128 0x1
 4548 0afb 31       		.byte	0x31
 4549 0afc 12       		.uleb128 0x12
 4550 0afd 01       		.uleb128 0x1
 4551 0afe 53       		.byte	0x53
 4552 0aff 03       		.uleb128 0x3
 4553 0b00 0A       		.byte	0xa
 4554 0b01 0040     		.2byte	0x4000
 4555 0b03 00       		.byte	0
 4556 0b04 10       		.uleb128 0x10
 4557 0b05 1E000000 		.4byte	.LVL174
 4558 0b09 EC1F0000 		.4byte	0x1fec
 4559 0b0d 10       		.uleb128 0x10
 4560 0b0e 26000000 		.4byte	.LVL175
 4561 0b12 EC1F0000 		.4byte	0x1fec
 4562 0b16 10       		.uleb128 0x10
 4563 0b17 2C000000 		.4byte	.LVL176
 4564 0b1b EC1F0000 		.4byte	0x1fec
 4565 0b1f 11       		.uleb128 0x11
ARM GAS  C:\Users\User\AppData\Local\Temp\ccoMSFoX.s 			page 104


 4566 0b20 3E000000 		.4byte	.LVL177
 4567 0b24 F71F0000 		.4byte	0x1ff7
 4568 0b28 390B0000 		.4byte	0xb39
 4569 0b2c 12       		.uleb128 0x12
 4570 0b2d 01       		.uleb128 0x1
 4571 0b2e 51       		.byte	0x51
 4572 0b2f 03       		.uleb128 0x3
 4573 0b30 0A       		.byte	0xa
 4574 0b31 A60E     		.2byte	0xea6
 4575 0b33 12       		.uleb128 0x12
 4576 0b34 01       		.uleb128 0x1
 4577 0b35 53       		.byte	0x53
 4578 0b36 01       		.uleb128 0x1
 4579 0b37 31       		.byte	0x31
 4580 0b38 00       		.byte	0
 4581 0b39 11       		.uleb128 0x11
 4582 0b3a 4C000000 		.4byte	.LVL178
 4583 0b3e F71F0000 		.4byte	0x1ff7
 4584 0b42 530B0000 		.4byte	0xb53
 4585 0b46 12       		.uleb128 0x12
 4586 0b47 01       		.uleb128 0x1
 4587 0b48 51       		.byte	0x51
 4588 0b49 03       		.uleb128 0x3
 4589 0b4a 0A       		.byte	0xa
 4590 0b4b A60E     		.2byte	0xea6
 4591 0b4d 12       		.uleb128 0x12
 4592 0b4e 01       		.uleb128 0x1
 4593 0b4f 53       		.byte	0x53
 4594 0b50 01       		.uleb128 0x1
 4595 0b51 31       		.byte	0x31
 4596 0b52 00       		.byte	0
 4597 0b53 11       		.uleb128 0x11
 4598 0b54 5A000000 		.4byte	.LVL179
 4599 0b58 F71F0000 		.4byte	0x1ff7
 4600 0b5c 730B0000 		.4byte	0xb73
 4601 0b60 12       		.uleb128 0x12
 4602 0b61 01       		.uleb128 0x1
 4603 0b62 51       		.byte	0x51
 4604 0b63 03       		.uleb128 0x3
 4605 0b64 0A       		.byte	0xa
 4606 0b65 A60E     		.2byte	0xea6
 4607 0b67 12       		.uleb128 0x12
 4608 0b68 01       		.uleb128 0x1
 4609 0b69 52       		.byte	0x52
 4610 0b6a 02       		.uleb128 0x2
 4611 0b6b 09       		.byte	0x9
 4612 0b6c FE       		.byte	0xfe
 4613 0b6d 12       		.uleb128 0x12
 4614 0b6e 01       		.uleb128 0x1
 4615 0b6f 53       		.byte	0x53
 4616 0b70 01       		.uleb128 0x1
 4617 0b71 35       		.byte	0x35
 4618 0b72 00       		.byte	0
 4619 0b73 11       		.uleb128 0x11
 4620 0b74 66000000 		.4byte	.LVL180
 4621 0b78 02200000 		.4byte	0x2002
 4622 0b7c 8D0B0000 		.4byte	0xb8d
ARM GAS  C:\Users\User\AppData\Local\Temp\ccoMSFoX.s 			page 105


 4623 0b80 12       		.uleb128 0x12
 4624 0b81 01       		.uleb128 0x1
 4625 0b82 51       		.byte	0x51
 4626 0b83 01       		.uleb128 0x1
 4627 0b84 30       		.byte	0x30
 4628 0b85 12       		.uleb128 0x12
 4629 0b86 01       		.uleb128 0x1
 4630 0b87 52       		.byte	0x52
 4631 0b88 03       		.uleb128 0x3
 4632 0b89 0A       		.byte	0xa
 4633 0b8a 825B     		.2byte	0x5b82
 4634 0b8c 00       		.byte	0
 4635 0b8d 11       		.uleb128 0x11
 4636 0b8e 74000000 		.4byte	.LVL181
 4637 0b92 02200000 		.4byte	0x2002
 4638 0b96 A90B0000 		.4byte	0xba9
 4639 0b9a 12       		.uleb128 0x12
 4640 0b9b 01       		.uleb128 0x1
 4641 0b9c 51       		.byte	0x51
 4642 0b9d 03       		.uleb128 0x3
 4643 0b9e 0A       		.byte	0xa
 4644 0b9f A60E     		.2byte	0xea6
 4645 0ba1 12       		.uleb128 0x12
 4646 0ba2 01       		.uleb128 0x1
 4647 0ba3 52       		.byte	0x52
 4648 0ba4 03       		.uleb128 0x3
 4649 0ba5 0A       		.byte	0xa
 4650 0ba6 825B     		.2byte	0x5b82
 4651 0ba8 00       		.byte	0
 4652 0ba9 11       		.uleb128 0x11
 4653 0baa 82000000 		.4byte	.LVL182
 4654 0bae 02200000 		.4byte	0x2002
 4655 0bb2 C50B0000 		.4byte	0xbc5
 4656 0bb6 12       		.uleb128 0x12
 4657 0bb7 01       		.uleb128 0x1
 4658 0bb8 51       		.byte	0x51
 4659 0bb9 03       		.uleb128 0x3
 4660 0bba 0A       		.byte	0xa
 4661 0bbb 4C1D     		.2byte	0x1d4c
 4662 0bbd 12       		.uleb128 0x12
 4663 0bbe 01       		.uleb128 0x1
 4664 0bbf 52       		.byte	0x52
 4665 0bc0 03       		.uleb128 0x3
 4666 0bc1 0A       		.byte	0xa
 4667 0bc2 825B     		.2byte	0x5b82
 4668 0bc4 00       		.byte	0
 4669 0bc5 10       		.uleb128 0x10
 4670 0bc6 8C000000 		.4byte	.LVL183
 4671 0bca 0D200000 		.4byte	0x200d
 4672 0bce 13       		.uleb128 0x13
 4673 0bcf 94000000 		.4byte	.LVL184
 4674 0bd3 18200000 		.4byte	0x2018
 4675 0bd7 12       		.uleb128 0x12
 4676 0bd8 01       		.uleb128 0x1
 4677 0bd9 51       		.byte	0x51
 4678 0bda 01       		.uleb128 0x1
 4679 0bdb 31       		.byte	0x31
ARM GAS  C:\Users\User\AppData\Local\Temp\ccoMSFoX.s 			page 106


 4680 0bdc 00       		.byte	0
 4681 0bdd 00       		.byte	0
 4682 0bde 14       		.uleb128 0x14
 4683 0bdf CD030000 		.4byte	.LASF40
 4684 0be3 01       		.byte	0x1
 4685 0be4 4C02     		.2byte	0x24c
 4686 0be6 00000000 		.4byte	.LFB75
 4687 0bea A4000000 		.4byte	.LFE75-.LFB75
 4688 0bee 01       		.uleb128 0x1
 4689 0bef 9C       		.byte	0x9c
 4690 0bf0 F20C0000 		.4byte	0xcf2
 4691 0bf4 11       		.uleb128 0x11
 4692 0bf5 16000000 		.4byte	.LVL185
 4693 0bf9 2E200000 		.4byte	0x202e
 4694 0bfd 180C0000 		.4byte	0xc18
 4695 0c01 12       		.uleb128 0x12
 4696 0c02 01       		.uleb128 0x1
 4697 0c03 50       		.byte	0x50
 4698 0c04 01       		.uleb128 0x1
 4699 0c05 31       		.byte	0x31
 4700 0c06 12       		.uleb128 0x12
 4701 0c07 01       		.uleb128 0x1
 4702 0c08 51       		.byte	0x51
 4703 0c09 01       		.uleb128 0x1
 4704 0c0a 31       		.byte	0x31
 4705 0c0b 12       		.uleb128 0x12
 4706 0c0c 01       		.uleb128 0x1
 4707 0c0d 52       		.byte	0x52
 4708 0c0e 01       		.uleb128 0x1
 4709 0c0f 32       		.byte	0x32
 4710 0c10 12       		.uleb128 0x12
 4711 0c11 01       		.uleb128 0x1
 4712 0c12 53       		.byte	0x53
 4713 0c13 03       		.uleb128 0x3
 4714 0c14 0A       		.byte	0xa
 4715 0c15 0040     		.2byte	0x4000
 4716 0c17 00       		.byte	0
 4717 0c18 10       		.uleb128 0x10
 4718 0c19 1E000000 		.4byte	.LVL186
 4719 0c1d EC1F0000 		.4byte	0x1fec
 4720 0c21 10       		.uleb128 0x10
 4721 0c22 26000000 		.4byte	.LVL187
 4722 0c26 EC1F0000 		.4byte	0x1fec
 4723 0c2a 10       		.uleb128 0x10
 4724 0c2b 2C000000 		.4byte	.LVL188
 4725 0c2f EC1F0000 		.4byte	0x1fec
 4726 0c33 11       		.uleb128 0x11
 4727 0c34 3E000000 		.4byte	.LVL189
 4728 0c38 F71F0000 		.4byte	0x1ff7
 4729 0c3c 4D0C0000 		.4byte	0xc4d
 4730 0c40 12       		.uleb128 0x12
 4731 0c41 01       		.uleb128 0x1
 4732 0c42 51       		.byte	0x51
 4733 0c43 03       		.uleb128 0x3
 4734 0c44 0A       		.byte	0xa
 4735 0c45 A60E     		.2byte	0xea6
 4736 0c47 12       		.uleb128 0x12
ARM GAS  C:\Users\User\AppData\Local\Temp\ccoMSFoX.s 			page 107


 4737 0c48 01       		.uleb128 0x1
 4738 0c49 53       		.byte	0x53
 4739 0c4a 01       		.uleb128 0x1
 4740 0c4b 31       		.byte	0x31
 4741 0c4c 00       		.byte	0
 4742 0c4d 11       		.uleb128 0x11
 4743 0c4e 4C000000 		.4byte	.LVL190
 4744 0c52 F71F0000 		.4byte	0x1ff7
 4745 0c56 670C0000 		.4byte	0xc67
 4746 0c5a 12       		.uleb128 0x12
 4747 0c5b 01       		.uleb128 0x1
 4748 0c5c 51       		.byte	0x51
 4749 0c5d 03       		.uleb128 0x3
 4750 0c5e 0A       		.byte	0xa
 4751 0c5f A60E     		.2byte	0xea6
 4752 0c61 12       		.uleb128 0x12
 4753 0c62 01       		.uleb128 0x1
 4754 0c63 53       		.byte	0x53
 4755 0c64 01       		.uleb128 0x1
 4756 0c65 31       		.byte	0x31
 4757 0c66 00       		.byte	0
 4758 0c67 11       		.uleb128 0x11
 4759 0c68 5A000000 		.4byte	.LVL191
 4760 0c6c F71F0000 		.4byte	0x1ff7
 4761 0c70 870C0000 		.4byte	0xc87
 4762 0c74 12       		.uleb128 0x12
 4763 0c75 01       		.uleb128 0x1
 4764 0c76 51       		.byte	0x51
 4765 0c77 03       		.uleb128 0x3
 4766 0c78 0A       		.byte	0xa
 4767 0c79 A60E     		.2byte	0xea6
 4768 0c7b 12       		.uleb128 0x12
 4769 0c7c 01       		.uleb128 0x1
 4770 0c7d 52       		.byte	0x52
 4771 0c7e 02       		.uleb128 0x2
 4772 0c7f 09       		.byte	0x9
 4773 0c80 FE       		.byte	0xfe
 4774 0c81 12       		.uleb128 0x12
 4775 0c82 01       		.uleb128 0x1
 4776 0c83 53       		.byte	0x53
 4777 0c84 01       		.uleb128 0x1
 4778 0c85 35       		.byte	0x35
 4779 0c86 00       		.byte	0
 4780 0c87 11       		.uleb128 0x11
 4781 0c88 66000000 		.4byte	.LVL192
 4782 0c8c 02200000 		.4byte	0x2002
 4783 0c90 A10C0000 		.4byte	0xca1
 4784 0c94 12       		.uleb128 0x12
 4785 0c95 01       		.uleb128 0x1
 4786 0c96 51       		.byte	0x51
 4787 0c97 01       		.uleb128 0x1
 4788 0c98 30       		.byte	0x30
 4789 0c99 12       		.uleb128 0x12
 4790 0c9a 01       		.uleb128 0x1
 4791 0c9b 52       		.byte	0x52
 4792 0c9c 03       		.uleb128 0x3
 4793 0c9d 0A       		.byte	0xa
ARM GAS  C:\Users\User\AppData\Local\Temp\ccoMSFoX.s 			page 108


 4794 0c9e 805B     		.2byte	0x5b80
 4795 0ca0 00       		.byte	0
 4796 0ca1 11       		.uleb128 0x11
 4797 0ca2 74000000 		.4byte	.LVL193
 4798 0ca6 02200000 		.4byte	0x2002
 4799 0caa BD0C0000 		.4byte	0xcbd
 4800 0cae 12       		.uleb128 0x12
 4801 0caf 01       		.uleb128 0x1
 4802 0cb0 51       		.byte	0x51
 4803 0cb1 03       		.uleb128 0x3
 4804 0cb2 0A       		.byte	0xa
 4805 0cb3 A60E     		.2byte	0xea6
 4806 0cb5 12       		.uleb128 0x12
 4807 0cb6 01       		.uleb128 0x1
 4808 0cb7 52       		.byte	0x52
 4809 0cb8 03       		.uleb128 0x3
 4810 0cb9 0A       		.byte	0xa
 4811 0cba 805B     		.2byte	0x5b80
 4812 0cbc 00       		.byte	0
 4813 0cbd 11       		.uleb128 0x11
 4814 0cbe 82000000 		.4byte	.LVL194
 4815 0cc2 02200000 		.4byte	0x2002
 4816 0cc6 D90C0000 		.4byte	0xcd9
 4817 0cca 12       		.uleb128 0x12
 4818 0ccb 01       		.uleb128 0x1
 4819 0ccc 51       		.byte	0x51
 4820 0ccd 03       		.uleb128 0x3
 4821 0cce 0A       		.byte	0xa
 4822 0ccf 4C1D     		.2byte	0x1d4c
 4823 0cd1 12       		.uleb128 0x12
 4824 0cd2 01       		.uleb128 0x1
 4825 0cd3 52       		.byte	0x52
 4826 0cd4 03       		.uleb128 0x3
 4827 0cd5 0A       		.byte	0xa
 4828 0cd6 805B     		.2byte	0x5b80
 4829 0cd8 00       		.byte	0
 4830 0cd9 10       		.uleb128 0x10
 4831 0cda 8C000000 		.4byte	.LVL195
 4832 0cde 0D200000 		.4byte	0x200d
 4833 0ce2 13       		.uleb128 0x13
 4834 0ce3 94000000 		.4byte	.LVL196
 4835 0ce7 18200000 		.4byte	0x2018
 4836 0ceb 12       		.uleb128 0x12
 4837 0cec 01       		.uleb128 0x1
 4838 0ced 51       		.byte	0x51
 4839 0cee 01       		.uleb128 0x1
 4840 0cef 31       		.byte	0x31
 4841 0cf0 00       		.byte	0
 4842 0cf1 00       		.byte	0
 4843 0cf2 14       		.uleb128 0x14
 4844 0cf3 F7000000 		.4byte	.LASF41
 4845 0cf7 01       		.byte	0x1
 4846 0cf8 6102     		.2byte	0x261
 4847 0cfa 00000000 		.4byte	.LFB76
 4848 0cfe A4000000 		.4byte	.LFE76-.LFB76
 4849 0d02 01       		.uleb128 0x1
 4850 0d03 9C       		.byte	0x9c
ARM GAS  C:\Users\User\AppData\Local\Temp\ccoMSFoX.s 			page 109


 4851 0d04 060E0000 		.4byte	0xe06
 4852 0d08 11       		.uleb128 0x11
 4853 0d09 16000000 		.4byte	.LVL197
 4854 0d0d 39200000 		.4byte	0x2039
 4855 0d11 2C0D0000 		.4byte	0xd2c
 4856 0d15 12       		.uleb128 0x12
 4857 0d16 01       		.uleb128 0x1
 4858 0d17 50       		.byte	0x50
 4859 0d18 01       		.uleb128 0x1
 4860 0d19 31       		.byte	0x31
 4861 0d1a 12       		.uleb128 0x12
 4862 0d1b 01       		.uleb128 0x1
 4863 0d1c 51       		.byte	0x51
 4864 0d1d 01       		.uleb128 0x1
 4865 0d1e 31       		.byte	0x31
 4866 0d1f 12       		.uleb128 0x12
 4867 0d20 01       		.uleb128 0x1
 4868 0d21 52       		.byte	0x52
 4869 0d22 01       		.uleb128 0x1
 4870 0d23 33       		.byte	0x33
 4871 0d24 12       		.uleb128 0x12
 4872 0d25 01       		.uleb128 0x1
 4873 0d26 53       		.byte	0x53
 4874 0d27 03       		.uleb128 0x3
 4875 0d28 0A       		.byte	0xa
 4876 0d29 0040     		.2byte	0x4000
 4877 0d2b 00       		.byte	0
 4878 0d2c 10       		.uleb128 0x10
 4879 0d2d 1E000000 		.4byte	.LVL198
 4880 0d31 EC1F0000 		.4byte	0x1fec
 4881 0d35 10       		.uleb128 0x10
 4882 0d36 26000000 		.4byte	.LVL199
 4883 0d3a EC1F0000 		.4byte	0x1fec
 4884 0d3e 10       		.uleb128 0x10
 4885 0d3f 2C000000 		.4byte	.LVL200
 4886 0d43 EC1F0000 		.4byte	0x1fec
 4887 0d47 11       		.uleb128 0x11
 4888 0d48 3E000000 		.4byte	.LVL201
 4889 0d4c F71F0000 		.4byte	0x1ff7
 4890 0d50 610D0000 		.4byte	0xd61
 4891 0d54 12       		.uleb128 0x12
 4892 0d55 01       		.uleb128 0x1
 4893 0d56 51       		.byte	0x51
 4894 0d57 03       		.uleb128 0x3
 4895 0d58 0A       		.byte	0xa
 4896 0d59 A60E     		.2byte	0xea6
 4897 0d5b 12       		.uleb128 0x12
 4898 0d5c 01       		.uleb128 0x1
 4899 0d5d 53       		.byte	0x53
 4900 0d5e 01       		.uleb128 0x1
 4901 0d5f 31       		.byte	0x31
 4902 0d60 00       		.byte	0
 4903 0d61 11       		.uleb128 0x11
 4904 0d62 4C000000 		.4byte	.LVL202
 4905 0d66 F71F0000 		.4byte	0x1ff7
 4906 0d6a 7B0D0000 		.4byte	0xd7b
 4907 0d6e 12       		.uleb128 0x12
ARM GAS  C:\Users\User\AppData\Local\Temp\ccoMSFoX.s 			page 110


 4908 0d6f 01       		.uleb128 0x1
 4909 0d70 51       		.byte	0x51
 4910 0d71 03       		.uleb128 0x3
 4911 0d72 0A       		.byte	0xa
 4912 0d73 A60E     		.2byte	0xea6
 4913 0d75 12       		.uleb128 0x12
 4914 0d76 01       		.uleb128 0x1
 4915 0d77 53       		.byte	0x53
 4916 0d78 01       		.uleb128 0x1
 4917 0d79 31       		.byte	0x31
 4918 0d7a 00       		.byte	0
 4919 0d7b 11       		.uleb128 0x11
 4920 0d7c 5A000000 		.4byte	.LVL203
 4921 0d80 F71F0000 		.4byte	0x1ff7
 4922 0d84 9B0D0000 		.4byte	0xd9b
 4923 0d88 12       		.uleb128 0x12
 4924 0d89 01       		.uleb128 0x1
 4925 0d8a 51       		.byte	0x51
 4926 0d8b 03       		.uleb128 0x3
 4927 0d8c 0A       		.byte	0xa
 4928 0d8d A60E     		.2byte	0xea6
 4929 0d8f 12       		.uleb128 0x12
 4930 0d90 01       		.uleb128 0x1
 4931 0d91 52       		.byte	0x52
 4932 0d92 02       		.uleb128 0x2
 4933 0d93 09       		.byte	0x9
 4934 0d94 FE       		.byte	0xfe
 4935 0d95 12       		.uleb128 0x12
 4936 0d96 01       		.uleb128 0x1
 4937 0d97 53       		.byte	0x53
 4938 0d98 01       		.uleb128 0x1
 4939 0d99 35       		.byte	0x35
 4940 0d9a 00       		.byte	0
 4941 0d9b 11       		.uleb128 0x11
 4942 0d9c 66000000 		.4byte	.LVL204
 4943 0da0 02200000 		.4byte	0x2002
 4944 0da4 B50D0000 		.4byte	0xdb5
 4945 0da8 12       		.uleb128 0x12
 4946 0da9 01       		.uleb128 0x1
 4947 0daa 51       		.byte	0x51
 4948 0dab 01       		.uleb128 0x1
 4949 0dac 30       		.byte	0x30
 4950 0dad 12       		.uleb128 0x12
 4951 0dae 01       		.uleb128 0x1
 4952 0daf 52       		.byte	0x52
 4953 0db0 03       		.uleb128 0x3
 4954 0db1 0A       		.byte	0xa
 4955 0db2 835B     		.2byte	0x5b83
 4956 0db4 00       		.byte	0
 4957 0db5 11       		.uleb128 0x11
 4958 0db6 74000000 		.4byte	.LVL205
 4959 0dba 02200000 		.4byte	0x2002
 4960 0dbe D10D0000 		.4byte	0xdd1
 4961 0dc2 12       		.uleb128 0x12
 4962 0dc3 01       		.uleb128 0x1
 4963 0dc4 51       		.byte	0x51
 4964 0dc5 03       		.uleb128 0x3
ARM GAS  C:\Users\User\AppData\Local\Temp\ccoMSFoX.s 			page 111


 4965 0dc6 0A       		.byte	0xa
 4966 0dc7 A60E     		.2byte	0xea6
 4967 0dc9 12       		.uleb128 0x12
 4968 0dca 01       		.uleb128 0x1
 4969 0dcb 52       		.byte	0x52
 4970 0dcc 03       		.uleb128 0x3
 4971 0dcd 0A       		.byte	0xa
 4972 0dce 835B     		.2byte	0x5b83
 4973 0dd0 00       		.byte	0
 4974 0dd1 11       		.uleb128 0x11
 4975 0dd2 82000000 		.4byte	.LVL206
 4976 0dd6 02200000 		.4byte	0x2002
 4977 0dda ED0D0000 		.4byte	0xded
 4978 0dde 12       		.uleb128 0x12
 4979 0ddf 01       		.uleb128 0x1
 4980 0de0 51       		.byte	0x51
 4981 0de1 03       		.uleb128 0x3
 4982 0de2 0A       		.byte	0xa
 4983 0de3 4C1D     		.2byte	0x1d4c
 4984 0de5 12       		.uleb128 0x12
 4985 0de6 01       		.uleb128 0x1
 4986 0de7 52       		.byte	0x52
 4987 0de8 03       		.uleb128 0x3
 4988 0de9 0A       		.byte	0xa
 4989 0dea 835B     		.2byte	0x5b83
 4990 0dec 00       		.byte	0
 4991 0ded 10       		.uleb128 0x10
 4992 0dee 8C000000 		.4byte	.LVL207
 4993 0df2 0D200000 		.4byte	0x200d
 4994 0df6 13       		.uleb128 0x13
 4995 0df7 94000000 		.4byte	.LVL208
 4996 0dfb 18200000 		.4byte	0x2018
 4997 0dff 12       		.uleb128 0x12
 4998 0e00 01       		.uleb128 0x1
 4999 0e01 51       		.byte	0x51
 5000 0e02 01       		.uleb128 0x1
 5001 0e03 31       		.byte	0x31
 5002 0e04 00       		.byte	0
 5003 0e05 00       		.byte	0
 5004 0e06 14       		.uleb128 0x14
 5005 0e07 34030000 		.4byte	.LASF42
 5006 0e0b 01       		.byte	0x1
 5007 0e0c 7602     		.2byte	0x276
 5008 0e0e 00000000 		.4byte	.LFB77
 5009 0e12 2C030000 		.4byte	.LFE77-.LFB77
 5010 0e16 01       		.uleb128 0x1
 5011 0e17 9C       		.byte	0x9c
 5012 0e18 45130000 		.4byte	0x1345
 5013 0e1c 11       		.uleb128 0x11
 5014 0e1d 1E000000 		.4byte	.LVL209
 5015 0e21 44200000 		.4byte	0x2044
 5016 0e25 420E0000 		.4byte	0xe42
 5017 0e29 12       		.uleb128 0x12
 5018 0e2a 01       		.uleb128 0x1
 5019 0e2b 50       		.byte	0x50
 5020 0e2c 01       		.uleb128 0x1
 5021 0e2d 32       		.byte	0x32
ARM GAS  C:\Users\User\AppData\Local\Temp\ccoMSFoX.s 			page 112


 5022 0e2e 12       		.uleb128 0x12
 5023 0e2f 01       		.uleb128 0x1
 5024 0e30 51       		.byte	0x51
 5025 0e31 01       		.uleb128 0x1
 5026 0e32 31       		.byte	0x31
 5027 0e33 12       		.uleb128 0x12
 5028 0e34 01       		.uleb128 0x1
 5029 0e35 52       		.byte	0x52
 5030 0e36 03       		.uleb128 0x3
 5031 0e37 0A       		.byte	0xa
 5032 0e38 0040     		.2byte	0x4000
 5033 0e3a 12       		.uleb128 0x12
 5034 0e3b 01       		.uleb128 0x1
 5035 0e3c 53       		.byte	0x53
 5036 0e3d 03       		.uleb128 0x3
 5037 0e3e 0A       		.byte	0xa
 5038 0e3f FF1F     		.2byte	0x1fff
 5039 0e41 00       		.byte	0
 5040 0e42 10       		.uleb128 0x10
 5041 0e43 26000000 		.4byte	.LVL210
 5042 0e47 EC1F0000 		.4byte	0x1fec
 5043 0e4b 10       		.uleb128 0x10
 5044 0e4c 2E000000 		.4byte	.LVL211
 5045 0e50 EC1F0000 		.4byte	0x1fec
 5046 0e54 10       		.uleb128 0x10
 5047 0e55 34000000 		.4byte	.LVL212
 5048 0e59 EC1F0000 		.4byte	0x1fec
 5049 0e5d 10       		.uleb128 0x10
 5050 0e5e 3A000000 		.4byte	.LVL213
 5051 0e62 EC1F0000 		.4byte	0x1fec
 5052 0e66 10       		.uleb128 0x10
 5053 0e67 40000000 		.4byte	.LVL214
 5054 0e6b EC1F0000 		.4byte	0x1fec
 5055 0e6f 10       		.uleb128 0x10
 5056 0e70 46000000 		.4byte	.LVL215
 5057 0e74 EC1F0000 		.4byte	0x1fec
 5058 0e78 10       		.uleb128 0x10
 5059 0e79 4C000000 		.4byte	.LVL216
 5060 0e7d EC1F0000 		.4byte	0x1fec
 5061 0e81 10       		.uleb128 0x10
 5062 0e82 52000000 		.4byte	.LVL217
 5063 0e86 EC1F0000 		.4byte	0x1fec
 5064 0e8a 10       		.uleb128 0x10
 5065 0e8b 58000000 		.4byte	.LVL218
 5066 0e8f EC1F0000 		.4byte	0x1fec
 5067 0e93 10       		.uleb128 0x10
 5068 0e94 5E000000 		.4byte	.LVL219
 5069 0e98 EC1F0000 		.4byte	0x1fec
 5070 0e9c 10       		.uleb128 0x10
 5071 0e9d 64000000 		.4byte	.LVL220
 5072 0ea1 EC1F0000 		.4byte	0x1fec
 5073 0ea5 10       		.uleb128 0x10
 5074 0ea6 6A000000 		.4byte	.LVL221
 5075 0eaa EC1F0000 		.4byte	0x1fec
 5076 0eae 10       		.uleb128 0x10
 5077 0eaf 70000000 		.4byte	.LVL222
 5078 0eb3 EC1F0000 		.4byte	0x1fec
ARM GAS  C:\Users\User\AppData\Local\Temp\ccoMSFoX.s 			page 113


 5079 0eb7 10       		.uleb128 0x10
 5080 0eb8 76000000 		.4byte	.LVL223
 5081 0ebc EC1F0000 		.4byte	0x1fec
 5082 0ec0 10       		.uleb128 0x10
 5083 0ec1 7C000000 		.4byte	.LVL224
 5084 0ec5 EC1F0000 		.4byte	0x1fec
 5085 0ec9 10       		.uleb128 0x10
 5086 0eca 82000000 		.4byte	.LVL225
 5087 0ece EC1F0000 		.4byte	0x1fec
 5088 0ed2 10       		.uleb128 0x10
 5089 0ed3 88000000 		.4byte	.LVL226
 5090 0ed7 EC1F0000 		.4byte	0x1fec
 5091 0edb 10       		.uleb128 0x10
 5092 0edc 8E000000 		.4byte	.LVL227
 5093 0ee0 EC1F0000 		.4byte	0x1fec
 5094 0ee4 10       		.uleb128 0x10
 5095 0ee5 94000000 		.4byte	.LVL228
 5096 0ee9 EC1F0000 		.4byte	0x1fec
 5097 0eed 10       		.uleb128 0x10
 5098 0eee 9A000000 		.4byte	.LVL229
 5099 0ef2 EC1F0000 		.4byte	0x1fec
 5100 0ef6 11       		.uleb128 0x11
 5101 0ef7 AC000000 		.4byte	.LVL230
 5102 0efb F71F0000 		.4byte	0x1ff7
 5103 0eff 100F0000 		.4byte	0xf10
 5104 0f03 12       		.uleb128 0x12
 5105 0f04 01       		.uleb128 0x1
 5106 0f05 51       		.byte	0x51
 5107 0f06 03       		.uleb128 0x3
 5108 0f07 0A       		.byte	0xa
 5109 0f08 B80B     		.2byte	0xbb8
 5110 0f0a 12       		.uleb128 0x12
 5111 0f0b 01       		.uleb128 0x1
 5112 0f0c 53       		.byte	0x53
 5113 0f0d 01       		.uleb128 0x1
 5114 0f0e 32       		.byte	0x32
 5115 0f0f 00       		.byte	0
 5116 0f10 11       		.uleb128 0x11
 5117 0f11 BA000000 		.4byte	.LVL231
 5118 0f15 F71F0000 		.4byte	0x1ff7
 5119 0f19 2A0F0000 		.4byte	0xf2a
 5120 0f1d 12       		.uleb128 0x12
 5121 0f1e 01       		.uleb128 0x1
 5122 0f1f 51       		.byte	0x51
 5123 0f20 03       		.uleb128 0x3
 5124 0f21 0A       		.byte	0xa
 5125 0f22 B80B     		.2byte	0xbb8
 5126 0f24 12       		.uleb128 0x12
 5127 0f25 01       		.uleb128 0x1
 5128 0f26 53       		.byte	0x53
 5129 0f27 01       		.uleb128 0x1
 5130 0f28 32       		.byte	0x32
 5131 0f29 00       		.byte	0
 5132 0f2a 11       		.uleb128 0x11
 5133 0f2b C8000000 		.4byte	.LVL232
 5134 0f2f F71F0000 		.4byte	0x1ff7
 5135 0f33 440F0000 		.4byte	0xf44
ARM GAS  C:\Users\User\AppData\Local\Temp\ccoMSFoX.s 			page 114


 5136 0f37 12       		.uleb128 0x12
 5137 0f38 01       		.uleb128 0x1
 5138 0f39 51       		.byte	0x51
 5139 0f3a 03       		.uleb128 0x3
 5140 0f3b 0A       		.byte	0xa
 5141 0f3c B80B     		.2byte	0xbb8
 5142 0f3e 12       		.uleb128 0x12
 5143 0f3f 01       		.uleb128 0x1
 5144 0f40 53       		.byte	0x53
 5145 0f41 01       		.uleb128 0x1
 5146 0f42 32       		.byte	0x32
 5147 0f43 00       		.byte	0
 5148 0f44 11       		.uleb128 0x11
 5149 0f45 D6000000 		.4byte	.LVL233
 5150 0f49 F71F0000 		.4byte	0x1ff7
 5151 0f4d 5E0F0000 		.4byte	0xf5e
 5152 0f51 12       		.uleb128 0x12
 5153 0f52 01       		.uleb128 0x1
 5154 0f53 51       		.byte	0x51
 5155 0f54 03       		.uleb128 0x3
 5156 0f55 0A       		.byte	0xa
 5157 0f56 B80B     		.2byte	0xbb8
 5158 0f58 12       		.uleb128 0x12
 5159 0f59 01       		.uleb128 0x1
 5160 0f5a 53       		.byte	0x53
 5161 0f5b 01       		.uleb128 0x1
 5162 0f5c 32       		.byte	0x32
 5163 0f5d 00       		.byte	0
 5164 0f5e 11       		.uleb128 0x11
 5165 0f5f E4000000 		.4byte	.LVL234
 5166 0f63 F71F0000 		.4byte	0x1ff7
 5167 0f67 780F0000 		.4byte	0xf78
 5168 0f6b 12       		.uleb128 0x12
 5169 0f6c 01       		.uleb128 0x1
 5170 0f6d 51       		.byte	0x51
 5171 0f6e 03       		.uleb128 0x3
 5172 0f6f 0A       		.byte	0xa
 5173 0f70 B80B     		.2byte	0xbb8
 5174 0f72 12       		.uleb128 0x12
 5175 0f73 01       		.uleb128 0x1
 5176 0f74 53       		.byte	0x53
 5177 0f75 01       		.uleb128 0x1
 5178 0f76 32       		.byte	0x32
 5179 0f77 00       		.byte	0
 5180 0f78 11       		.uleb128 0x11
 5181 0f79 F2000000 		.4byte	.LVL235
 5182 0f7d F71F0000 		.4byte	0x1ff7
 5183 0f81 920F0000 		.4byte	0xf92
 5184 0f85 12       		.uleb128 0x12
 5185 0f86 01       		.uleb128 0x1
 5186 0f87 51       		.byte	0x51
 5187 0f88 03       		.uleb128 0x3
 5188 0f89 0A       		.byte	0xa
 5189 0f8a B80B     		.2byte	0xbb8
 5190 0f8c 12       		.uleb128 0x12
 5191 0f8d 01       		.uleb128 0x1
 5192 0f8e 53       		.byte	0x53
ARM GAS  C:\Users\User\AppData\Local\Temp\ccoMSFoX.s 			page 115


 5193 0f8f 01       		.uleb128 0x1
 5194 0f90 32       		.byte	0x32
 5195 0f91 00       		.byte	0
 5196 0f92 11       		.uleb128 0x11
 5197 0f93 00010000 		.4byte	.LVL236
 5198 0f97 F71F0000 		.4byte	0x1ff7
 5199 0f9b AC0F0000 		.4byte	0xfac
 5200 0f9f 12       		.uleb128 0x12
 5201 0fa0 01       		.uleb128 0x1
 5202 0fa1 51       		.byte	0x51
 5203 0fa2 03       		.uleb128 0x3
 5204 0fa3 0A       		.byte	0xa
 5205 0fa4 B80B     		.2byte	0xbb8
 5206 0fa6 12       		.uleb128 0x12
 5207 0fa7 01       		.uleb128 0x1
 5208 0fa8 53       		.byte	0x53
 5209 0fa9 01       		.uleb128 0x1
 5210 0faa 32       		.byte	0x32
 5211 0fab 00       		.byte	0
 5212 0fac 11       		.uleb128 0x11
 5213 0fad 0E010000 		.4byte	.LVL237
 5214 0fb1 F71F0000 		.4byte	0x1ff7
 5215 0fb5 C60F0000 		.4byte	0xfc6
 5216 0fb9 12       		.uleb128 0x12
 5217 0fba 01       		.uleb128 0x1
 5218 0fbb 51       		.byte	0x51
 5219 0fbc 03       		.uleb128 0x3
 5220 0fbd 0A       		.byte	0xa
 5221 0fbe B80B     		.2byte	0xbb8
 5222 0fc0 12       		.uleb128 0x12
 5223 0fc1 01       		.uleb128 0x1
 5224 0fc2 53       		.byte	0x53
 5225 0fc3 01       		.uleb128 0x1
 5226 0fc4 32       		.byte	0x32
 5227 0fc5 00       		.byte	0
 5228 0fc6 11       		.uleb128 0x11
 5229 0fc7 1C010000 		.4byte	.LVL238
 5230 0fcb F71F0000 		.4byte	0x1ff7
 5231 0fcf E00F0000 		.4byte	0xfe0
 5232 0fd3 12       		.uleb128 0x12
 5233 0fd4 01       		.uleb128 0x1
 5234 0fd5 51       		.byte	0x51
 5235 0fd6 03       		.uleb128 0x3
 5236 0fd7 0A       		.byte	0xa
 5237 0fd8 B80B     		.2byte	0xbb8
 5238 0fda 12       		.uleb128 0x12
 5239 0fdb 01       		.uleb128 0x1
 5240 0fdc 53       		.byte	0x53
 5241 0fdd 01       		.uleb128 0x1
 5242 0fde 32       		.byte	0x32
 5243 0fdf 00       		.byte	0
 5244 0fe0 11       		.uleb128 0x11
 5245 0fe1 2A010000 		.4byte	.LVL239
 5246 0fe5 F71F0000 		.4byte	0x1ff7
 5247 0fe9 FA0F0000 		.4byte	0xffa
 5248 0fed 12       		.uleb128 0x12
 5249 0fee 01       		.uleb128 0x1
ARM GAS  C:\Users\User\AppData\Local\Temp\ccoMSFoX.s 			page 116


 5250 0fef 51       		.byte	0x51
 5251 0ff0 03       		.uleb128 0x3
 5252 0ff1 0A       		.byte	0xa
 5253 0ff2 B80B     		.2byte	0xbb8
 5254 0ff4 12       		.uleb128 0x12
 5255 0ff5 01       		.uleb128 0x1
 5256 0ff6 53       		.byte	0x53
 5257 0ff7 01       		.uleb128 0x1
 5258 0ff8 32       		.byte	0x32
 5259 0ff9 00       		.byte	0
 5260 0ffa 11       		.uleb128 0x11
 5261 0ffb 38010000 		.4byte	.LVL240
 5262 0fff F71F0000 		.4byte	0x1ff7
 5263 1003 14100000 		.4byte	0x1014
 5264 1007 12       		.uleb128 0x12
 5265 1008 01       		.uleb128 0x1
 5266 1009 51       		.byte	0x51
 5267 100a 03       		.uleb128 0x3
 5268 100b 0A       		.byte	0xa
 5269 100c B80B     		.2byte	0xbb8
 5270 100e 12       		.uleb128 0x12
 5271 100f 01       		.uleb128 0x1
 5272 1010 53       		.byte	0x53
 5273 1011 01       		.uleb128 0x1
 5274 1012 32       		.byte	0x32
 5275 1013 00       		.byte	0
 5276 1014 11       		.uleb128 0x11
 5277 1015 46010000 		.4byte	.LVL241
 5278 1019 F71F0000 		.4byte	0x1ff7
 5279 101d 2E100000 		.4byte	0x102e
 5280 1021 12       		.uleb128 0x12
 5281 1022 01       		.uleb128 0x1
 5282 1023 51       		.byte	0x51
 5283 1024 03       		.uleb128 0x3
 5284 1025 0A       		.byte	0xa
 5285 1026 B80B     		.2byte	0xbb8
 5286 1028 12       		.uleb128 0x12
 5287 1029 01       		.uleb128 0x1
 5288 102a 53       		.byte	0x53
 5289 102b 01       		.uleb128 0x1
 5290 102c 32       		.byte	0x32
 5291 102d 00       		.byte	0
 5292 102e 11       		.uleb128 0x11
 5293 102f 54010000 		.4byte	.LVL242
 5294 1033 F71F0000 		.4byte	0x1ff7
 5295 1037 48100000 		.4byte	0x1048
 5296 103b 12       		.uleb128 0x12
 5297 103c 01       		.uleb128 0x1
 5298 103d 51       		.byte	0x51
 5299 103e 03       		.uleb128 0x3
 5300 103f 0A       		.byte	0xa
 5301 1040 B80B     		.2byte	0xbb8
 5302 1042 12       		.uleb128 0x12
 5303 1043 01       		.uleb128 0x1
 5304 1044 53       		.byte	0x53
 5305 1045 01       		.uleb128 0x1
 5306 1046 32       		.byte	0x32
ARM GAS  C:\Users\User\AppData\Local\Temp\ccoMSFoX.s 			page 117


 5307 1047 00       		.byte	0
 5308 1048 11       		.uleb128 0x11
 5309 1049 62010000 		.4byte	.LVL243
 5310 104d F71F0000 		.4byte	0x1ff7
 5311 1051 62100000 		.4byte	0x1062
 5312 1055 12       		.uleb128 0x12
 5313 1056 01       		.uleb128 0x1
 5314 1057 51       		.byte	0x51
 5315 1058 03       		.uleb128 0x3
 5316 1059 0A       		.byte	0xa
 5317 105a B80B     		.2byte	0xbb8
 5318 105c 12       		.uleb128 0x12
 5319 105d 01       		.uleb128 0x1
 5320 105e 53       		.byte	0x53
 5321 105f 01       		.uleb128 0x1
 5322 1060 32       		.byte	0x32
 5323 1061 00       		.byte	0
 5324 1062 11       		.uleb128 0x11
 5325 1063 70010000 		.4byte	.LVL244
 5326 1067 F71F0000 		.4byte	0x1ff7
 5327 106b 7C100000 		.4byte	0x107c
 5328 106f 12       		.uleb128 0x12
 5329 1070 01       		.uleb128 0x1
 5330 1071 51       		.byte	0x51
 5331 1072 03       		.uleb128 0x3
 5332 1073 0A       		.byte	0xa
 5333 1074 B80B     		.2byte	0xbb8
 5334 1076 12       		.uleb128 0x12
 5335 1077 01       		.uleb128 0x1
 5336 1078 53       		.byte	0x53
 5337 1079 01       		.uleb128 0x1
 5338 107a 32       		.byte	0x32
 5339 107b 00       		.byte	0
 5340 107c 11       		.uleb128 0x11
 5341 107d 7E010000 		.4byte	.LVL245
 5342 1081 F71F0000 		.4byte	0x1ff7
 5343 1085 96100000 		.4byte	0x1096
 5344 1089 12       		.uleb128 0x12
 5345 108a 01       		.uleb128 0x1
 5346 108b 51       		.byte	0x51
 5347 108c 03       		.uleb128 0x3
 5348 108d 0A       		.byte	0xa
 5349 108e B80B     		.2byte	0xbb8
 5350 1090 12       		.uleb128 0x12
 5351 1091 01       		.uleb128 0x1
 5352 1092 53       		.byte	0x53
 5353 1093 01       		.uleb128 0x1
 5354 1094 32       		.byte	0x32
 5355 1095 00       		.byte	0
 5356 1096 11       		.uleb128 0x11
 5357 1097 8C010000 		.4byte	.LVL246
 5358 109b F71F0000 		.4byte	0x1ff7
 5359 109f B0100000 		.4byte	0x10b0
 5360 10a3 12       		.uleb128 0x12
 5361 10a4 01       		.uleb128 0x1
 5362 10a5 51       		.byte	0x51
 5363 10a6 03       		.uleb128 0x3
ARM GAS  C:\Users\User\AppData\Local\Temp\ccoMSFoX.s 			page 118


 5364 10a7 0A       		.byte	0xa
 5365 10a8 B80B     		.2byte	0xbb8
 5366 10aa 12       		.uleb128 0x12
 5367 10ab 01       		.uleb128 0x1
 5368 10ac 53       		.byte	0x53
 5369 10ad 01       		.uleb128 0x1
 5370 10ae 32       		.byte	0x32
 5371 10af 00       		.byte	0
 5372 10b0 11       		.uleb128 0x11
 5373 10b1 9A010000 		.4byte	.LVL247
 5374 10b5 F71F0000 		.4byte	0x1ff7
 5375 10b9 CA100000 		.4byte	0x10ca
 5376 10bd 12       		.uleb128 0x12
 5377 10be 01       		.uleb128 0x1
 5378 10bf 51       		.byte	0x51
 5379 10c0 03       		.uleb128 0x3
 5380 10c1 0A       		.byte	0xa
 5381 10c2 B80B     		.2byte	0xbb8
 5382 10c4 12       		.uleb128 0x12
 5383 10c5 01       		.uleb128 0x1
 5384 10c6 53       		.byte	0x53
 5385 10c7 01       		.uleb128 0x1
 5386 10c8 32       		.byte	0x32
 5387 10c9 00       		.byte	0
 5388 10ca 11       		.uleb128 0x11
 5389 10cb A8010000 		.4byte	.LVL248
 5390 10cf F71F0000 		.4byte	0x1ff7
 5391 10d3 E4100000 		.4byte	0x10e4
 5392 10d7 12       		.uleb128 0x12
 5393 10d8 01       		.uleb128 0x1
 5394 10d9 51       		.byte	0x51
 5395 10da 03       		.uleb128 0x3
 5396 10db 0A       		.byte	0xa
 5397 10dc B80B     		.2byte	0xbb8
 5398 10de 12       		.uleb128 0x12
 5399 10df 01       		.uleb128 0x1
 5400 10e0 53       		.byte	0x53
 5401 10e1 01       		.uleb128 0x1
 5402 10e2 32       		.byte	0x32
 5403 10e3 00       		.byte	0
 5404 10e4 11       		.uleb128 0x11
 5405 10e5 B6010000 		.4byte	.LVL249
 5406 10e9 F71F0000 		.4byte	0x1ff7
 5407 10ed 04110000 		.4byte	0x1104
 5408 10f1 12       		.uleb128 0x12
 5409 10f2 01       		.uleb128 0x1
 5410 10f3 51       		.byte	0x51
 5411 10f4 03       		.uleb128 0x3
 5412 10f5 0A       		.byte	0xa
 5413 10f6 B80B     		.2byte	0xbb8
 5414 10f8 12       		.uleb128 0x12
 5415 10f9 01       		.uleb128 0x1
 5416 10fa 52       		.byte	0x52
 5417 10fb 02       		.uleb128 0x2
 5418 10fc 09       		.byte	0x9
 5419 10fd FE       		.byte	0xfe
 5420 10fe 12       		.uleb128 0x12
ARM GAS  C:\Users\User\AppData\Local\Temp\ccoMSFoX.s 			page 119


 5421 10ff 01       		.uleb128 0x1
 5422 1100 53       		.byte	0x53
 5423 1101 01       		.uleb128 0x1
 5424 1102 36       		.byte	0x36
 5425 1103 00       		.byte	0
 5426 1104 11       		.uleb128 0x11
 5427 1105 C6010000 		.4byte	.LVL250
 5428 1109 02200000 		.4byte	0x2002
 5429 110d 1F110000 		.4byte	0x111f
 5430 1111 12       		.uleb128 0x12
 5431 1112 01       		.uleb128 0x1
 5432 1113 51       		.byte	0x51
 5433 1114 03       		.uleb128 0x3
 5434 1115 0A       		.byte	0xa
 5435 1116 A05B     		.2byte	0x5ba0
 5436 1118 12       		.uleb128 0x12
 5437 1119 01       		.uleb128 0x1
 5438 111a 52       		.byte	0x52
 5439 111b 02       		.uleb128 0x2
 5440 111c 75       		.byte	0x75
 5441 111d 00       		.sleb128 0
 5442 111e 00       		.byte	0
 5443 111f 11       		.uleb128 0x11
 5444 1120 DA010000 		.4byte	.LVL251
 5445 1124 02200000 		.4byte	0x2002
 5446 1128 3A110000 		.4byte	0x113a
 5447 112c 12       		.uleb128 0x12
 5448 112d 01       		.uleb128 0x1
 5449 112e 51       		.byte	0x51
 5450 112f 03       		.uleb128 0x3
 5451 1130 0A       		.byte	0xa
 5452 1131 A05B     		.2byte	0x5ba0
 5453 1133 12       		.uleb128 0x12
 5454 1134 01       		.uleb128 0x1
 5455 1135 52       		.byte	0x52
 5456 1136 02       		.uleb128 0x2
 5457 1137 7B       		.byte	0x7b
 5458 1138 00       		.sleb128 0
 5459 1139 00       		.byte	0
 5460 113a 11       		.uleb128 0x11
 5461 113b F2010000 		.4byte	.LVL252
 5462 113f 02200000 		.4byte	0x2002
 5463 1143 55110000 		.4byte	0x1155
 5464 1147 12       		.uleb128 0x12
 5465 1148 01       		.uleb128 0x1
 5466 1149 51       		.byte	0x51
 5467 114a 03       		.uleb128 0x3
 5468 114b 0A       		.byte	0xa
 5469 114c A05B     		.2byte	0x5ba0
 5470 114e 12       		.uleb128 0x12
 5471 114f 01       		.uleb128 0x1
 5472 1150 52       		.byte	0x52
 5473 1151 02       		.uleb128 0x2
 5474 1152 7A       		.byte	0x7a
 5475 1153 00       		.sleb128 0
 5476 1154 00       		.byte	0
 5477 1155 11       		.uleb128 0x11
ARM GAS  C:\Users\User\AppData\Local\Temp\ccoMSFoX.s 			page 120


 5478 1156 0A020000 		.4byte	.LVL253
 5479 115a 02200000 		.4byte	0x2002
 5480 115e 70110000 		.4byte	0x1170
 5481 1162 12       		.uleb128 0x12
 5482 1163 01       		.uleb128 0x1
 5483 1164 51       		.byte	0x51
 5484 1165 03       		.uleb128 0x3
 5485 1166 0A       		.byte	0xa
 5486 1167 A05B     		.2byte	0x5ba0
 5487 1169 12       		.uleb128 0x12
 5488 116a 01       		.uleb128 0x1
 5489 116b 52       		.byte	0x52
 5490 116c 02       		.uleb128 0x2
 5491 116d 79       		.byte	0x79
 5492 116e 00       		.sleb128 0
 5493 116f 00       		.byte	0
 5494 1170 11       		.uleb128 0x11
 5495 1171 22020000 		.4byte	.LVL254
 5496 1175 02200000 		.4byte	0x2002
 5497 1179 8B110000 		.4byte	0x118b
 5498 117d 12       		.uleb128 0x12
 5499 117e 01       		.uleb128 0x1
 5500 117f 51       		.byte	0x51
 5501 1180 03       		.uleb128 0x3
 5502 1181 0A       		.byte	0xa
 5503 1182 A05B     		.2byte	0x5ba0
 5504 1184 12       		.uleb128 0x12
 5505 1185 01       		.uleb128 0x1
 5506 1186 52       		.byte	0x52
 5507 1187 02       		.uleb128 0x2
 5508 1188 78       		.byte	0x78
 5509 1189 00       		.sleb128 0
 5510 118a 00       		.byte	0
 5511 118b 11       		.uleb128 0x11
 5512 118c 36020000 		.4byte	.LVL255
 5513 1190 02200000 		.4byte	0x2002
 5514 1194 A6110000 		.4byte	0x11a6
 5515 1198 12       		.uleb128 0x12
 5516 1199 01       		.uleb128 0x1
 5517 119a 51       		.byte	0x51
 5518 119b 03       		.uleb128 0x3
 5519 119c 0A       		.byte	0xa
 5520 119d A05B     		.2byte	0x5ba0
 5521 119f 12       		.uleb128 0x12
 5522 11a0 01       		.uleb128 0x1
 5523 11a1 52       		.byte	0x52
 5524 11a2 02       		.uleb128 0x2
 5525 11a3 77       		.byte	0x77
 5526 11a4 00       		.sleb128 0
 5527 11a5 00       		.byte	0
 5528 11a6 11       		.uleb128 0x11
 5529 11a7 4C020000 		.4byte	.LVL256
 5530 11ab 02200000 		.4byte	0x2002
 5531 11af C3110000 		.4byte	0x11c3
 5532 11b3 12       		.uleb128 0x12
 5533 11b4 01       		.uleb128 0x1
 5534 11b5 51       		.byte	0x51
ARM GAS  C:\Users\User\AppData\Local\Temp\ccoMSFoX.s 			page 121


 5535 11b6 03       		.uleb128 0x3
 5536 11b7 0A       		.byte	0xa
 5537 11b8 A05B     		.2byte	0x5ba0
 5538 11ba 12       		.uleb128 0x12
 5539 11bb 01       		.uleb128 0x1
 5540 11bc 52       		.byte	0x52
 5541 11bd 04       		.uleb128 0x4
 5542 11be 91       		.byte	0x91
 5543 11bf 4C       		.sleb128 -52
 5544 11c0 94       		.byte	0x94
 5545 11c1 02       		.byte	0x2
 5546 11c2 00       		.byte	0
 5547 11c3 11       		.uleb128 0x11
 5548 11c4 62020000 		.4byte	.LVL257
 5549 11c8 02200000 		.4byte	0x2002
 5550 11cc E0110000 		.4byte	0x11e0
 5551 11d0 12       		.uleb128 0x12
 5552 11d1 01       		.uleb128 0x1
 5553 11d2 51       		.byte	0x51
 5554 11d3 03       		.uleb128 0x3
 5555 11d4 0A       		.byte	0xa
 5556 11d5 A05B     		.2byte	0x5ba0
 5557 11d7 12       		.uleb128 0x12
 5558 11d8 01       		.uleb128 0x1
 5559 11d9 52       		.byte	0x52
 5560 11da 04       		.uleb128 0x4
 5561 11db 91       		.byte	0x91
 5562 11dc 50       		.sleb128 -48
 5563 11dd 94       		.byte	0x94
 5564 11de 02       		.byte	0x2
 5565 11df 00       		.byte	0
 5566 11e0 11       		.uleb128 0x11
 5567 11e1 78020000 		.4byte	.LVL258
 5568 11e5 02200000 		.4byte	0x2002
 5569 11e9 FD110000 		.4byte	0x11fd
 5570 11ed 12       		.uleb128 0x12
 5571 11ee 01       		.uleb128 0x1
 5572 11ef 51       		.byte	0x51
 5573 11f0 03       		.uleb128 0x3
 5574 11f1 0A       		.byte	0xa
 5575 11f2 A05B     		.2byte	0x5ba0
 5576 11f4 12       		.uleb128 0x12
 5577 11f5 01       		.uleb128 0x1
 5578 11f6 52       		.byte	0x52
 5579 11f7 04       		.uleb128 0x4
 5580 11f8 91       		.byte	0x91
 5581 11f9 54       		.sleb128 -44
 5582 11fa 94       		.byte	0x94
 5583 11fb 02       		.byte	0x2
 5584 11fc 00       		.byte	0
 5585 11fd 11       		.uleb128 0x11
 5586 11fe 8C020000 		.4byte	.LVL259
 5587 1202 02200000 		.4byte	0x2002
 5588 1206 18120000 		.4byte	0x1218
 5589 120a 12       		.uleb128 0x12
 5590 120b 01       		.uleb128 0x1
 5591 120c 51       		.byte	0x51
ARM GAS  C:\Users\User\AppData\Local\Temp\ccoMSFoX.s 			page 122


 5592 120d 03       		.uleb128 0x3
 5593 120e 0A       		.byte	0xa
 5594 120f A05B     		.2byte	0x5ba0
 5595 1211 12       		.uleb128 0x12
 5596 1212 01       		.uleb128 0x1
 5597 1213 52       		.byte	0x52
 5598 1214 02       		.uleb128 0x2
 5599 1215 76       		.byte	0x76
 5600 1216 00       		.sleb128 0
 5601 1217 00       		.byte	0
 5602 1218 11       		.uleb128 0x11
 5603 1219 98020000 		.4byte	.LVL260
 5604 121d 02200000 		.4byte	0x2002
 5605 1221 33120000 		.4byte	0x1233
 5606 1225 12       		.uleb128 0x12
 5607 1226 01       		.uleb128 0x1
 5608 1227 51       		.byte	0x51
 5609 1228 03       		.uleb128 0x3
 5610 1229 0A       		.byte	0xa
 5611 122a A05B     		.2byte	0x5ba0
 5612 122c 12       		.uleb128 0x12
 5613 122d 01       		.uleb128 0x1
 5614 122e 52       		.byte	0x52
 5615 122f 02       		.uleb128 0x2
 5616 1230 75       		.byte	0x75
 5617 1231 00       		.sleb128 0
 5618 1232 00       		.byte	0
 5619 1233 11       		.uleb128 0x11
 5620 1234 A4020000 		.4byte	.LVL261
 5621 1238 02200000 		.4byte	0x2002
 5622 123c 4E120000 		.4byte	0x124e
 5623 1240 12       		.uleb128 0x12
 5624 1241 01       		.uleb128 0x1
 5625 1242 51       		.byte	0x51
 5626 1243 03       		.uleb128 0x3
 5627 1244 0A       		.byte	0xa
 5628 1245 A05B     		.2byte	0x5ba0
 5629 1247 12       		.uleb128 0x12
 5630 1248 01       		.uleb128 0x1
 5631 1249 52       		.byte	0x52
 5632 124a 02       		.uleb128 0x2
 5633 124b 7B       		.byte	0x7b
 5634 124c 00       		.sleb128 0
 5635 124d 00       		.byte	0
 5636 124e 11       		.uleb128 0x11
 5637 124f B0020000 		.4byte	.LVL262
 5638 1253 02200000 		.4byte	0x2002
 5639 1257 69120000 		.4byte	0x1269
 5640 125b 12       		.uleb128 0x12
 5641 125c 01       		.uleb128 0x1
 5642 125d 51       		.byte	0x51
 5643 125e 03       		.uleb128 0x3
 5644 125f 0A       		.byte	0xa
 5645 1260 A05B     		.2byte	0x5ba0
 5646 1262 12       		.uleb128 0x12
 5647 1263 01       		.uleb128 0x1
 5648 1264 52       		.byte	0x52
ARM GAS  C:\Users\User\AppData\Local\Temp\ccoMSFoX.s 			page 123


 5649 1265 02       		.uleb128 0x2
 5650 1266 7A       		.byte	0x7a
 5651 1267 00       		.sleb128 0
 5652 1268 00       		.byte	0
 5653 1269 11       		.uleb128 0x11
 5654 126a BC020000 		.4byte	.LVL263
 5655 126e 02200000 		.4byte	0x2002
 5656 1272 84120000 		.4byte	0x1284
 5657 1276 12       		.uleb128 0x12
 5658 1277 01       		.uleb128 0x1
 5659 1278 51       		.byte	0x51
 5660 1279 03       		.uleb128 0x3
 5661 127a 0A       		.byte	0xa
 5662 127b A05B     		.2byte	0x5ba0
 5663 127d 12       		.uleb128 0x12
 5664 127e 01       		.uleb128 0x1
 5665 127f 52       		.byte	0x52
 5666 1280 02       		.uleb128 0x2
 5667 1281 79       		.byte	0x79
 5668 1282 00       		.sleb128 0
 5669 1283 00       		.byte	0
 5670 1284 11       		.uleb128 0x11
 5671 1285 C8020000 		.4byte	.LVL264
 5672 1289 02200000 		.4byte	0x2002
 5673 128d 9F120000 		.4byte	0x129f
 5674 1291 12       		.uleb128 0x12
 5675 1292 01       		.uleb128 0x1
 5676 1293 51       		.byte	0x51
 5677 1294 03       		.uleb128 0x3
 5678 1295 0A       		.byte	0xa
 5679 1296 A05B     		.2byte	0x5ba0
 5680 1298 12       		.uleb128 0x12
 5681 1299 01       		.uleb128 0x1
 5682 129a 52       		.byte	0x52
 5683 129b 02       		.uleb128 0x2
 5684 129c 78       		.byte	0x78
 5685 129d 00       		.sleb128 0
 5686 129e 00       		.byte	0
 5687 129f 11       		.uleb128 0x11
 5688 12a0 D4020000 		.4byte	.LVL265
 5689 12a4 02200000 		.4byte	0x2002
 5690 12a8 BA120000 		.4byte	0x12ba
 5691 12ac 12       		.uleb128 0x12
 5692 12ad 01       		.uleb128 0x1
 5693 12ae 51       		.byte	0x51
 5694 12af 03       		.uleb128 0x3
 5695 12b0 0A       		.byte	0xa
 5696 12b1 A05B     		.2byte	0x5ba0
 5697 12b3 12       		.uleb128 0x12
 5698 12b4 01       		.uleb128 0x1
 5699 12b5 52       		.byte	0x52
 5700 12b6 02       		.uleb128 0x2
 5701 12b7 77       		.byte	0x77
 5702 12b8 00       		.sleb128 0
 5703 12b9 00       		.byte	0
 5704 12ba 11       		.uleb128 0x11
 5705 12bb E0020000 		.4byte	.LVL266
ARM GAS  C:\Users\User\AppData\Local\Temp\ccoMSFoX.s 			page 124


 5706 12bf 02200000 		.4byte	0x2002
 5707 12c3 D7120000 		.4byte	0x12d7
 5708 12c7 12       		.uleb128 0x12
 5709 12c8 01       		.uleb128 0x1
 5710 12c9 51       		.byte	0x51
 5711 12ca 03       		.uleb128 0x3
 5712 12cb 0A       		.byte	0xa
 5713 12cc A05B     		.2byte	0x5ba0
 5714 12ce 12       		.uleb128 0x12
 5715 12cf 01       		.uleb128 0x1
 5716 12d0 52       		.byte	0x52
 5717 12d1 04       		.uleb128 0x4
 5718 12d2 91       		.byte	0x91
 5719 12d3 4C       		.sleb128 -52
 5720 12d4 94       		.byte	0x94
 5721 12d5 02       		.byte	0x2
 5722 12d6 00       		.byte	0
 5723 12d7 11       		.uleb128 0x11
 5724 12d8 EC020000 		.4byte	.LVL267
 5725 12dc 02200000 		.4byte	0x2002
 5726 12e0 F4120000 		.4byte	0x12f4
 5727 12e4 12       		.uleb128 0x12
 5728 12e5 01       		.uleb128 0x1
 5729 12e6 51       		.byte	0x51
 5730 12e7 03       		.uleb128 0x3
 5731 12e8 0A       		.byte	0xa
 5732 12e9 A05B     		.2byte	0x5ba0
 5733 12eb 12       		.uleb128 0x12
 5734 12ec 01       		.uleb128 0x1
 5735 12ed 52       		.byte	0x52
 5736 12ee 04       		.uleb128 0x4
 5737 12ef 91       		.byte	0x91
 5738 12f0 50       		.sleb128 -48
 5739 12f1 94       		.byte	0x94
 5740 12f2 02       		.byte	0x2
 5741 12f3 00       		.byte	0
 5742 12f4 11       		.uleb128 0x11
 5743 12f5 F8020000 		.4byte	.LVL268
 5744 12f9 02200000 		.4byte	0x2002
 5745 12fd 11130000 		.4byte	0x1311
 5746 1301 12       		.uleb128 0x12
 5747 1302 01       		.uleb128 0x1
 5748 1303 51       		.byte	0x51
 5749 1304 03       		.uleb128 0x3
 5750 1305 0A       		.byte	0xa
 5751 1306 A05B     		.2byte	0x5ba0
 5752 1308 12       		.uleb128 0x12
 5753 1309 01       		.uleb128 0x1
 5754 130a 52       		.byte	0x52
 5755 130b 04       		.uleb128 0x4
 5756 130c 91       		.byte	0x91
 5757 130d 54       		.sleb128 -44
 5758 130e 94       		.byte	0x94
 5759 130f 02       		.byte	0x2
 5760 1310 00       		.byte	0
 5761 1311 11       		.uleb128 0x11
 5762 1312 04030000 		.4byte	.LVL269
ARM GAS  C:\Users\User\AppData\Local\Temp\ccoMSFoX.s 			page 125


 5763 1316 02200000 		.4byte	0x2002
 5764 131a 2C130000 		.4byte	0x132c
 5765 131e 12       		.uleb128 0x12
 5766 131f 01       		.uleb128 0x1
 5767 1320 51       		.byte	0x51
 5768 1321 03       		.uleb128 0x3
 5769 1322 0A       		.byte	0xa
 5770 1323 A05B     		.2byte	0x5ba0
 5771 1325 12       		.uleb128 0x12
 5772 1326 01       		.uleb128 0x1
 5773 1327 52       		.byte	0x52
 5774 1328 02       		.uleb128 0x2
 5775 1329 76       		.byte	0x76
 5776 132a 00       		.sleb128 0
 5777 132b 00       		.byte	0
 5778 132c 10       		.uleb128 0x10
 5779 132d 0E030000 		.4byte	.LVL270
 5780 1331 0D200000 		.4byte	0x200d
 5781 1335 13       		.uleb128 0x13
 5782 1336 16030000 		.4byte	.LVL271
 5783 133a 18200000 		.4byte	0x2018
 5784 133e 12       		.uleb128 0x12
 5785 133f 01       		.uleb128 0x1
 5786 1340 51       		.byte	0x51
 5787 1341 01       		.uleb128 0x1
 5788 1342 31       		.byte	0x31
 5789 1343 00       		.byte	0
 5790 1344 00       		.byte	0
 5791 1345 14       		.uleb128 0x14
 5792 1346 41000000 		.4byte	.LASF43
 5793 134a 01       		.byte	0x1
 5794 134b BE02     		.2byte	0x2be
 5795 134d 00000000 		.4byte	.LFB78
 5796 1351 2C030000 		.4byte	.LFE78-.LFB78
 5797 1355 01       		.uleb128 0x1
 5798 1356 9C       		.byte	0x9c
 5799 1357 84180000 		.4byte	0x1884
 5800 135b 11       		.uleb128 0x11
 5801 135c 1E000000 		.4byte	.LVL272
 5802 1360 4F200000 		.4byte	0x204f
 5803 1364 81130000 		.4byte	0x1381
 5804 1368 12       		.uleb128 0x12
 5805 1369 01       		.uleb128 0x1
 5806 136a 50       		.byte	0x50
 5807 136b 01       		.uleb128 0x1
 5808 136c 32       		.byte	0x32
 5809 136d 12       		.uleb128 0x12
 5810 136e 01       		.uleb128 0x1
 5811 136f 51       		.byte	0x51
 5812 1370 01       		.uleb128 0x1
 5813 1371 31       		.byte	0x31
 5814 1372 12       		.uleb128 0x12
 5815 1373 01       		.uleb128 0x1
 5816 1374 52       		.byte	0x52
 5817 1375 03       		.uleb128 0x3
 5818 1376 0A       		.byte	0xa
 5819 1377 0040     		.2byte	0x4000
ARM GAS  C:\Users\User\AppData\Local\Temp\ccoMSFoX.s 			page 126


 5820 1379 12       		.uleb128 0x12
 5821 137a 01       		.uleb128 0x1
 5822 137b 53       		.byte	0x53
 5823 137c 03       		.uleb128 0x3
 5824 137d 0A       		.byte	0xa
 5825 137e FF1F     		.2byte	0x1fff
 5826 1380 00       		.byte	0
 5827 1381 10       		.uleb128 0x10
 5828 1382 26000000 		.4byte	.LVL273
 5829 1386 EC1F0000 		.4byte	0x1fec
 5830 138a 10       		.uleb128 0x10
 5831 138b 2E000000 		.4byte	.LVL274
 5832 138f EC1F0000 		.4byte	0x1fec
 5833 1393 10       		.uleb128 0x10
 5834 1394 34000000 		.4byte	.LVL275
 5835 1398 EC1F0000 		.4byte	0x1fec
 5836 139c 10       		.uleb128 0x10
 5837 139d 3A000000 		.4byte	.LVL276
 5838 13a1 EC1F0000 		.4byte	0x1fec
 5839 13a5 10       		.uleb128 0x10
 5840 13a6 40000000 		.4byte	.LVL277
 5841 13aa EC1F0000 		.4byte	0x1fec
 5842 13ae 10       		.uleb128 0x10
 5843 13af 46000000 		.4byte	.LVL278
 5844 13b3 EC1F0000 		.4byte	0x1fec
 5845 13b7 10       		.uleb128 0x10
 5846 13b8 4C000000 		.4byte	.LVL279
 5847 13bc EC1F0000 		.4byte	0x1fec
 5848 13c0 10       		.uleb128 0x10
 5849 13c1 52000000 		.4byte	.LVL280
 5850 13c5 EC1F0000 		.4byte	0x1fec
 5851 13c9 10       		.uleb128 0x10
 5852 13ca 58000000 		.4byte	.LVL281
 5853 13ce EC1F0000 		.4byte	0x1fec
 5854 13d2 10       		.uleb128 0x10
 5855 13d3 5E000000 		.4byte	.LVL282
 5856 13d7 EC1F0000 		.4byte	0x1fec
 5857 13db 10       		.uleb128 0x10
 5858 13dc 64000000 		.4byte	.LVL283
 5859 13e0 EC1F0000 		.4byte	0x1fec
 5860 13e4 10       		.uleb128 0x10
 5861 13e5 6A000000 		.4byte	.LVL284
 5862 13e9 EC1F0000 		.4byte	0x1fec
 5863 13ed 10       		.uleb128 0x10
 5864 13ee 70000000 		.4byte	.LVL285
 5865 13f2 EC1F0000 		.4byte	0x1fec
 5866 13f6 10       		.uleb128 0x10
 5867 13f7 76000000 		.4byte	.LVL286
 5868 13fb EC1F0000 		.4byte	0x1fec
 5869 13ff 10       		.uleb128 0x10
 5870 1400 7C000000 		.4byte	.LVL287
 5871 1404 EC1F0000 		.4byte	0x1fec
 5872 1408 10       		.uleb128 0x10
 5873 1409 82000000 		.4byte	.LVL288
 5874 140d EC1F0000 		.4byte	0x1fec
 5875 1411 10       		.uleb128 0x10
 5876 1412 88000000 		.4byte	.LVL289
ARM GAS  C:\Users\User\AppData\Local\Temp\ccoMSFoX.s 			page 127


 5877 1416 EC1F0000 		.4byte	0x1fec
 5878 141a 10       		.uleb128 0x10
 5879 141b 8E000000 		.4byte	.LVL290
 5880 141f EC1F0000 		.4byte	0x1fec
 5881 1423 10       		.uleb128 0x10
 5882 1424 94000000 		.4byte	.LVL291
 5883 1428 EC1F0000 		.4byte	0x1fec
 5884 142c 10       		.uleb128 0x10
 5885 142d 9A000000 		.4byte	.LVL292
 5886 1431 EC1F0000 		.4byte	0x1fec
 5887 1435 11       		.uleb128 0x11
 5888 1436 AC000000 		.4byte	.LVL293
 5889 143a F71F0000 		.4byte	0x1ff7
 5890 143e 4F140000 		.4byte	0x144f
 5891 1442 12       		.uleb128 0x12
 5892 1443 01       		.uleb128 0x1
 5893 1444 51       		.byte	0x51
 5894 1445 03       		.uleb128 0x3
 5895 1446 0A       		.byte	0xa
 5896 1447 B80B     		.2byte	0xbb8
 5897 1449 12       		.uleb128 0x12
 5898 144a 01       		.uleb128 0x1
 5899 144b 53       		.byte	0x53
 5900 144c 01       		.uleb128 0x1
 5901 144d 32       		.byte	0x32
 5902 144e 00       		.byte	0
 5903 144f 11       		.uleb128 0x11
 5904 1450 BA000000 		.4byte	.LVL294
 5905 1454 F71F0000 		.4byte	0x1ff7
 5906 1458 69140000 		.4byte	0x1469
 5907 145c 12       		.uleb128 0x12
 5908 145d 01       		.uleb128 0x1
 5909 145e 51       		.byte	0x51
 5910 145f 03       		.uleb128 0x3
 5911 1460 0A       		.byte	0xa
 5912 1461 B80B     		.2byte	0xbb8
 5913 1463 12       		.uleb128 0x12
 5914 1464 01       		.uleb128 0x1
 5915 1465 53       		.byte	0x53
 5916 1466 01       		.uleb128 0x1
 5917 1467 32       		.byte	0x32
 5918 1468 00       		.byte	0
 5919 1469 11       		.uleb128 0x11
 5920 146a C8000000 		.4byte	.LVL295
 5921 146e F71F0000 		.4byte	0x1ff7
 5922 1472 83140000 		.4byte	0x1483
 5923 1476 12       		.uleb128 0x12
 5924 1477 01       		.uleb128 0x1
 5925 1478 51       		.byte	0x51
 5926 1479 03       		.uleb128 0x3
 5927 147a 0A       		.byte	0xa
 5928 147b B80B     		.2byte	0xbb8
 5929 147d 12       		.uleb128 0x12
 5930 147e 01       		.uleb128 0x1
 5931 147f 53       		.byte	0x53
 5932 1480 01       		.uleb128 0x1
 5933 1481 32       		.byte	0x32
ARM GAS  C:\Users\User\AppData\Local\Temp\ccoMSFoX.s 			page 128


 5934 1482 00       		.byte	0
 5935 1483 11       		.uleb128 0x11
 5936 1484 D6000000 		.4byte	.LVL296
 5937 1488 F71F0000 		.4byte	0x1ff7
 5938 148c 9D140000 		.4byte	0x149d
 5939 1490 12       		.uleb128 0x12
 5940 1491 01       		.uleb128 0x1
 5941 1492 51       		.byte	0x51
 5942 1493 03       		.uleb128 0x3
 5943 1494 0A       		.byte	0xa
 5944 1495 B80B     		.2byte	0xbb8
 5945 1497 12       		.uleb128 0x12
 5946 1498 01       		.uleb128 0x1
 5947 1499 53       		.byte	0x53
 5948 149a 01       		.uleb128 0x1
 5949 149b 32       		.byte	0x32
 5950 149c 00       		.byte	0
 5951 149d 11       		.uleb128 0x11
 5952 149e E4000000 		.4byte	.LVL297
 5953 14a2 F71F0000 		.4byte	0x1ff7
 5954 14a6 B7140000 		.4byte	0x14b7
 5955 14aa 12       		.uleb128 0x12
 5956 14ab 01       		.uleb128 0x1
 5957 14ac 51       		.byte	0x51
 5958 14ad 03       		.uleb128 0x3
 5959 14ae 0A       		.byte	0xa
 5960 14af B80B     		.2byte	0xbb8
 5961 14b1 12       		.uleb128 0x12
 5962 14b2 01       		.uleb128 0x1
 5963 14b3 53       		.byte	0x53
 5964 14b4 01       		.uleb128 0x1
 5965 14b5 32       		.byte	0x32
 5966 14b6 00       		.byte	0
 5967 14b7 11       		.uleb128 0x11
 5968 14b8 F2000000 		.4byte	.LVL298
 5969 14bc F71F0000 		.4byte	0x1ff7
 5970 14c0 D1140000 		.4byte	0x14d1
 5971 14c4 12       		.uleb128 0x12
 5972 14c5 01       		.uleb128 0x1
 5973 14c6 51       		.byte	0x51
 5974 14c7 03       		.uleb128 0x3
 5975 14c8 0A       		.byte	0xa
 5976 14c9 B80B     		.2byte	0xbb8
 5977 14cb 12       		.uleb128 0x12
 5978 14cc 01       		.uleb128 0x1
 5979 14cd 53       		.byte	0x53
 5980 14ce 01       		.uleb128 0x1
 5981 14cf 32       		.byte	0x32
 5982 14d0 00       		.byte	0
 5983 14d1 11       		.uleb128 0x11
 5984 14d2 00010000 		.4byte	.LVL299
 5985 14d6 F71F0000 		.4byte	0x1ff7
 5986 14da EB140000 		.4byte	0x14eb
 5987 14de 12       		.uleb128 0x12
 5988 14df 01       		.uleb128 0x1
 5989 14e0 51       		.byte	0x51
 5990 14e1 03       		.uleb128 0x3
ARM GAS  C:\Users\User\AppData\Local\Temp\ccoMSFoX.s 			page 129


 5991 14e2 0A       		.byte	0xa
 5992 14e3 B80B     		.2byte	0xbb8
 5993 14e5 12       		.uleb128 0x12
 5994 14e6 01       		.uleb128 0x1
 5995 14e7 53       		.byte	0x53
 5996 14e8 01       		.uleb128 0x1
 5997 14e9 32       		.byte	0x32
 5998 14ea 00       		.byte	0
 5999 14eb 11       		.uleb128 0x11
 6000 14ec 0E010000 		.4byte	.LVL300
 6001 14f0 F71F0000 		.4byte	0x1ff7
 6002 14f4 05150000 		.4byte	0x1505
 6003 14f8 12       		.uleb128 0x12
 6004 14f9 01       		.uleb128 0x1
 6005 14fa 51       		.byte	0x51
 6006 14fb 03       		.uleb128 0x3
 6007 14fc 0A       		.byte	0xa
 6008 14fd B80B     		.2byte	0xbb8
 6009 14ff 12       		.uleb128 0x12
 6010 1500 01       		.uleb128 0x1
 6011 1501 53       		.byte	0x53
 6012 1502 01       		.uleb128 0x1
 6013 1503 32       		.byte	0x32
 6014 1504 00       		.byte	0
 6015 1505 11       		.uleb128 0x11
 6016 1506 1C010000 		.4byte	.LVL301
 6017 150a F71F0000 		.4byte	0x1ff7
 6018 150e 1F150000 		.4byte	0x151f
 6019 1512 12       		.uleb128 0x12
 6020 1513 01       		.uleb128 0x1
 6021 1514 51       		.byte	0x51
 6022 1515 03       		.uleb128 0x3
 6023 1516 0A       		.byte	0xa
 6024 1517 B80B     		.2byte	0xbb8
 6025 1519 12       		.uleb128 0x12
 6026 151a 01       		.uleb128 0x1
 6027 151b 53       		.byte	0x53
 6028 151c 01       		.uleb128 0x1
 6029 151d 32       		.byte	0x32
 6030 151e 00       		.byte	0
 6031 151f 11       		.uleb128 0x11
 6032 1520 2A010000 		.4byte	.LVL302
 6033 1524 F71F0000 		.4byte	0x1ff7
 6034 1528 39150000 		.4byte	0x1539
 6035 152c 12       		.uleb128 0x12
 6036 152d 01       		.uleb128 0x1
 6037 152e 51       		.byte	0x51
 6038 152f 03       		.uleb128 0x3
 6039 1530 0A       		.byte	0xa
 6040 1531 B80B     		.2byte	0xbb8
 6041 1533 12       		.uleb128 0x12
 6042 1534 01       		.uleb128 0x1
 6043 1535 53       		.byte	0x53
 6044 1536 01       		.uleb128 0x1
 6045 1537 32       		.byte	0x32
 6046 1538 00       		.byte	0
 6047 1539 11       		.uleb128 0x11
ARM GAS  C:\Users\User\AppData\Local\Temp\ccoMSFoX.s 			page 130


 6048 153a 38010000 		.4byte	.LVL303
 6049 153e F71F0000 		.4byte	0x1ff7
 6050 1542 53150000 		.4byte	0x1553
 6051 1546 12       		.uleb128 0x12
 6052 1547 01       		.uleb128 0x1
 6053 1548 51       		.byte	0x51
 6054 1549 03       		.uleb128 0x3
 6055 154a 0A       		.byte	0xa
 6056 154b B80B     		.2byte	0xbb8
 6057 154d 12       		.uleb128 0x12
 6058 154e 01       		.uleb128 0x1
 6059 154f 53       		.byte	0x53
 6060 1550 01       		.uleb128 0x1
 6061 1551 32       		.byte	0x32
 6062 1552 00       		.byte	0
 6063 1553 11       		.uleb128 0x11
 6064 1554 46010000 		.4byte	.LVL304
 6065 1558 F71F0000 		.4byte	0x1ff7
 6066 155c 6D150000 		.4byte	0x156d
 6067 1560 12       		.uleb128 0x12
 6068 1561 01       		.uleb128 0x1
 6069 1562 51       		.byte	0x51
 6070 1563 03       		.uleb128 0x3
 6071 1564 0A       		.byte	0xa
 6072 1565 B80B     		.2byte	0xbb8
 6073 1567 12       		.uleb128 0x12
 6074 1568 01       		.uleb128 0x1
 6075 1569 53       		.byte	0x53
 6076 156a 01       		.uleb128 0x1
 6077 156b 32       		.byte	0x32
 6078 156c 00       		.byte	0
 6079 156d 11       		.uleb128 0x11
 6080 156e 54010000 		.4byte	.LVL305
 6081 1572 F71F0000 		.4byte	0x1ff7
 6082 1576 87150000 		.4byte	0x1587
 6083 157a 12       		.uleb128 0x12
 6084 157b 01       		.uleb128 0x1
 6085 157c 51       		.byte	0x51
 6086 157d 03       		.uleb128 0x3
 6087 157e 0A       		.byte	0xa
 6088 157f B80B     		.2byte	0xbb8
 6089 1581 12       		.uleb128 0x12
 6090 1582 01       		.uleb128 0x1
 6091 1583 53       		.byte	0x53
 6092 1584 01       		.uleb128 0x1
 6093 1585 32       		.byte	0x32
 6094 1586 00       		.byte	0
 6095 1587 11       		.uleb128 0x11
 6096 1588 62010000 		.4byte	.LVL306
 6097 158c F71F0000 		.4byte	0x1ff7
 6098 1590 A1150000 		.4byte	0x15a1
 6099 1594 12       		.uleb128 0x12
 6100 1595 01       		.uleb128 0x1
 6101 1596 51       		.byte	0x51
 6102 1597 03       		.uleb128 0x3
 6103 1598 0A       		.byte	0xa
 6104 1599 B80B     		.2byte	0xbb8
ARM GAS  C:\Users\User\AppData\Local\Temp\ccoMSFoX.s 			page 131


 6105 159b 12       		.uleb128 0x12
 6106 159c 01       		.uleb128 0x1
 6107 159d 53       		.byte	0x53
 6108 159e 01       		.uleb128 0x1
 6109 159f 32       		.byte	0x32
 6110 15a0 00       		.byte	0
 6111 15a1 11       		.uleb128 0x11
 6112 15a2 70010000 		.4byte	.LVL307
 6113 15a6 F71F0000 		.4byte	0x1ff7
 6114 15aa BB150000 		.4byte	0x15bb
 6115 15ae 12       		.uleb128 0x12
 6116 15af 01       		.uleb128 0x1
 6117 15b0 51       		.byte	0x51
 6118 15b1 03       		.uleb128 0x3
 6119 15b2 0A       		.byte	0xa
 6120 15b3 B80B     		.2byte	0xbb8
 6121 15b5 12       		.uleb128 0x12
 6122 15b6 01       		.uleb128 0x1
 6123 15b7 53       		.byte	0x53
 6124 15b8 01       		.uleb128 0x1
 6125 15b9 32       		.byte	0x32
 6126 15ba 00       		.byte	0
 6127 15bb 11       		.uleb128 0x11
 6128 15bc 7E010000 		.4byte	.LVL308
 6129 15c0 F71F0000 		.4byte	0x1ff7
 6130 15c4 D5150000 		.4byte	0x15d5
 6131 15c8 12       		.uleb128 0x12
 6132 15c9 01       		.uleb128 0x1
 6133 15ca 51       		.byte	0x51
 6134 15cb 03       		.uleb128 0x3
 6135 15cc 0A       		.byte	0xa
 6136 15cd B80B     		.2byte	0xbb8
 6137 15cf 12       		.uleb128 0x12
 6138 15d0 01       		.uleb128 0x1
 6139 15d1 53       		.byte	0x53
 6140 15d2 01       		.uleb128 0x1
 6141 15d3 32       		.byte	0x32
 6142 15d4 00       		.byte	0
 6143 15d5 11       		.uleb128 0x11
 6144 15d6 8C010000 		.4byte	.LVL309
 6145 15da F71F0000 		.4byte	0x1ff7
 6146 15de EF150000 		.4byte	0x15ef
 6147 15e2 12       		.uleb128 0x12
 6148 15e3 01       		.uleb128 0x1
 6149 15e4 51       		.byte	0x51
 6150 15e5 03       		.uleb128 0x3
 6151 15e6 0A       		.byte	0xa
 6152 15e7 B80B     		.2byte	0xbb8
 6153 15e9 12       		.uleb128 0x12
 6154 15ea 01       		.uleb128 0x1
 6155 15eb 53       		.byte	0x53
 6156 15ec 01       		.uleb128 0x1
 6157 15ed 32       		.byte	0x32
 6158 15ee 00       		.byte	0
 6159 15ef 11       		.uleb128 0x11
 6160 15f0 9A010000 		.4byte	.LVL310
 6161 15f4 F71F0000 		.4byte	0x1ff7
ARM GAS  C:\Users\User\AppData\Local\Temp\ccoMSFoX.s 			page 132


 6162 15f8 09160000 		.4byte	0x1609
 6163 15fc 12       		.uleb128 0x12
 6164 15fd 01       		.uleb128 0x1
 6165 15fe 51       		.byte	0x51
 6166 15ff 03       		.uleb128 0x3
 6167 1600 0A       		.byte	0xa
 6168 1601 B80B     		.2byte	0xbb8
 6169 1603 12       		.uleb128 0x12
 6170 1604 01       		.uleb128 0x1
 6171 1605 53       		.byte	0x53
 6172 1606 01       		.uleb128 0x1
 6173 1607 32       		.byte	0x32
 6174 1608 00       		.byte	0
 6175 1609 11       		.uleb128 0x11
 6176 160a A8010000 		.4byte	.LVL311
 6177 160e F71F0000 		.4byte	0x1ff7
 6178 1612 23160000 		.4byte	0x1623
 6179 1616 12       		.uleb128 0x12
 6180 1617 01       		.uleb128 0x1
 6181 1618 51       		.byte	0x51
 6182 1619 03       		.uleb128 0x3
 6183 161a 0A       		.byte	0xa
 6184 161b B80B     		.2byte	0xbb8
 6185 161d 12       		.uleb128 0x12
 6186 161e 01       		.uleb128 0x1
 6187 161f 53       		.byte	0x53
 6188 1620 01       		.uleb128 0x1
 6189 1621 32       		.byte	0x32
 6190 1622 00       		.byte	0
 6191 1623 11       		.uleb128 0x11
 6192 1624 B6010000 		.4byte	.LVL312
 6193 1628 F71F0000 		.4byte	0x1ff7
 6194 162c 43160000 		.4byte	0x1643
 6195 1630 12       		.uleb128 0x12
 6196 1631 01       		.uleb128 0x1
 6197 1632 51       		.byte	0x51
 6198 1633 03       		.uleb128 0x3
 6199 1634 0A       		.byte	0xa
 6200 1635 B80B     		.2byte	0xbb8
 6201 1637 12       		.uleb128 0x12
 6202 1638 01       		.uleb128 0x1
 6203 1639 52       		.byte	0x52
 6204 163a 02       		.uleb128 0x2
 6205 163b 09       		.byte	0x9
 6206 163c FE       		.byte	0xfe
 6207 163d 12       		.uleb128 0x12
 6208 163e 01       		.uleb128 0x1
 6209 163f 53       		.byte	0x53
 6210 1640 01       		.uleb128 0x1
 6211 1641 36       		.byte	0x36
 6212 1642 00       		.byte	0
 6213 1643 11       		.uleb128 0x11
 6214 1644 C6010000 		.4byte	.LVL313
 6215 1648 02200000 		.4byte	0x2002
 6216 164c 5E160000 		.4byte	0x165e
 6217 1650 12       		.uleb128 0x12
 6218 1651 01       		.uleb128 0x1
ARM GAS  C:\Users\User\AppData\Local\Temp\ccoMSFoX.s 			page 133


 6219 1652 51       		.byte	0x51
 6220 1653 03       		.uleb128 0x3
 6221 1654 0A       		.byte	0xa
 6222 1655 A25B     		.2byte	0x5ba2
 6223 1657 12       		.uleb128 0x12
 6224 1658 01       		.uleb128 0x1
 6225 1659 52       		.byte	0x52
 6226 165a 02       		.uleb128 0x2
 6227 165b 75       		.byte	0x75
 6228 165c 00       		.sleb128 0
 6229 165d 00       		.byte	0
 6230 165e 11       		.uleb128 0x11
 6231 165f DA010000 		.4byte	.LVL314
 6232 1663 02200000 		.4byte	0x2002
 6233 1667 79160000 		.4byte	0x1679
 6234 166b 12       		.uleb128 0x12
 6235 166c 01       		.uleb128 0x1
 6236 166d 51       		.byte	0x51
 6237 166e 03       		.uleb128 0x3
 6238 166f 0A       		.byte	0xa
 6239 1670 A25B     		.2byte	0x5ba2
 6240 1672 12       		.uleb128 0x12
 6241 1673 01       		.uleb128 0x1
 6242 1674 52       		.byte	0x52
 6243 1675 02       		.uleb128 0x2
 6244 1676 7B       		.byte	0x7b
 6245 1677 00       		.sleb128 0
 6246 1678 00       		.byte	0
 6247 1679 11       		.uleb128 0x11
 6248 167a F2010000 		.4byte	.LVL315
 6249 167e 02200000 		.4byte	0x2002
 6250 1682 94160000 		.4byte	0x1694
 6251 1686 12       		.uleb128 0x12
 6252 1687 01       		.uleb128 0x1
 6253 1688 51       		.byte	0x51
 6254 1689 03       		.uleb128 0x3
 6255 168a 0A       		.byte	0xa
 6256 168b A25B     		.2byte	0x5ba2
 6257 168d 12       		.uleb128 0x12
 6258 168e 01       		.uleb128 0x1
 6259 168f 52       		.byte	0x52
 6260 1690 02       		.uleb128 0x2
 6261 1691 7A       		.byte	0x7a
 6262 1692 00       		.sleb128 0
 6263 1693 00       		.byte	0
 6264 1694 11       		.uleb128 0x11
 6265 1695 0A020000 		.4byte	.LVL316
 6266 1699 02200000 		.4byte	0x2002
 6267 169d AF160000 		.4byte	0x16af
 6268 16a1 12       		.uleb128 0x12
 6269 16a2 01       		.uleb128 0x1
 6270 16a3 51       		.byte	0x51
 6271 16a4 03       		.uleb128 0x3
 6272 16a5 0A       		.byte	0xa
 6273 16a6 A25B     		.2byte	0x5ba2
 6274 16a8 12       		.uleb128 0x12
 6275 16a9 01       		.uleb128 0x1
ARM GAS  C:\Users\User\AppData\Local\Temp\ccoMSFoX.s 			page 134


 6276 16aa 52       		.byte	0x52
 6277 16ab 02       		.uleb128 0x2
 6278 16ac 79       		.byte	0x79
 6279 16ad 00       		.sleb128 0
 6280 16ae 00       		.byte	0
 6281 16af 11       		.uleb128 0x11
 6282 16b0 22020000 		.4byte	.LVL317
 6283 16b4 02200000 		.4byte	0x2002
 6284 16b8 CA160000 		.4byte	0x16ca
 6285 16bc 12       		.uleb128 0x12
 6286 16bd 01       		.uleb128 0x1
 6287 16be 51       		.byte	0x51
 6288 16bf 03       		.uleb128 0x3
 6289 16c0 0A       		.byte	0xa
 6290 16c1 A25B     		.2byte	0x5ba2
 6291 16c3 12       		.uleb128 0x12
 6292 16c4 01       		.uleb128 0x1
 6293 16c5 52       		.byte	0x52
 6294 16c6 02       		.uleb128 0x2
 6295 16c7 78       		.byte	0x78
 6296 16c8 00       		.sleb128 0
 6297 16c9 00       		.byte	0
 6298 16ca 11       		.uleb128 0x11
 6299 16cb 36020000 		.4byte	.LVL318
 6300 16cf 02200000 		.4byte	0x2002
 6301 16d3 E5160000 		.4byte	0x16e5
 6302 16d7 12       		.uleb128 0x12
 6303 16d8 01       		.uleb128 0x1
 6304 16d9 51       		.byte	0x51
 6305 16da 03       		.uleb128 0x3
 6306 16db 0A       		.byte	0xa
 6307 16dc A25B     		.2byte	0x5ba2
 6308 16de 12       		.uleb128 0x12
 6309 16df 01       		.uleb128 0x1
 6310 16e0 52       		.byte	0x52
 6311 16e1 02       		.uleb128 0x2
 6312 16e2 77       		.byte	0x77
 6313 16e3 00       		.sleb128 0
 6314 16e4 00       		.byte	0
 6315 16e5 11       		.uleb128 0x11
 6316 16e6 4C020000 		.4byte	.LVL319
 6317 16ea 02200000 		.4byte	0x2002
 6318 16ee 02170000 		.4byte	0x1702
 6319 16f2 12       		.uleb128 0x12
 6320 16f3 01       		.uleb128 0x1
 6321 16f4 51       		.byte	0x51
 6322 16f5 03       		.uleb128 0x3
 6323 16f6 0A       		.byte	0xa
 6324 16f7 A25B     		.2byte	0x5ba2
 6325 16f9 12       		.uleb128 0x12
 6326 16fa 01       		.uleb128 0x1
 6327 16fb 52       		.byte	0x52
 6328 16fc 04       		.uleb128 0x4
 6329 16fd 91       		.byte	0x91
 6330 16fe 4C       		.sleb128 -52
 6331 16ff 94       		.byte	0x94
 6332 1700 02       		.byte	0x2
ARM GAS  C:\Users\User\AppData\Local\Temp\ccoMSFoX.s 			page 135


 6333 1701 00       		.byte	0
 6334 1702 11       		.uleb128 0x11
 6335 1703 62020000 		.4byte	.LVL320
 6336 1707 02200000 		.4byte	0x2002
 6337 170b 1F170000 		.4byte	0x171f
 6338 170f 12       		.uleb128 0x12
 6339 1710 01       		.uleb128 0x1
 6340 1711 51       		.byte	0x51
 6341 1712 03       		.uleb128 0x3
 6342 1713 0A       		.byte	0xa
 6343 1714 A25B     		.2byte	0x5ba2
 6344 1716 12       		.uleb128 0x12
 6345 1717 01       		.uleb128 0x1
 6346 1718 52       		.byte	0x52
 6347 1719 04       		.uleb128 0x4
 6348 171a 91       		.byte	0x91
 6349 171b 50       		.sleb128 -48
 6350 171c 94       		.byte	0x94
 6351 171d 02       		.byte	0x2
 6352 171e 00       		.byte	0
 6353 171f 11       		.uleb128 0x11
 6354 1720 78020000 		.4byte	.LVL321
 6355 1724 02200000 		.4byte	0x2002
 6356 1728 3C170000 		.4byte	0x173c
 6357 172c 12       		.uleb128 0x12
 6358 172d 01       		.uleb128 0x1
 6359 172e 51       		.byte	0x51
 6360 172f 03       		.uleb128 0x3
 6361 1730 0A       		.byte	0xa
 6362 1731 A25B     		.2byte	0x5ba2
 6363 1733 12       		.uleb128 0x12
 6364 1734 01       		.uleb128 0x1
 6365 1735 52       		.byte	0x52
 6366 1736 04       		.uleb128 0x4
 6367 1737 91       		.byte	0x91
 6368 1738 54       		.sleb128 -44
 6369 1739 94       		.byte	0x94
 6370 173a 02       		.byte	0x2
 6371 173b 00       		.byte	0
 6372 173c 11       		.uleb128 0x11
 6373 173d 8C020000 		.4byte	.LVL322
 6374 1741 02200000 		.4byte	0x2002
 6375 1745 57170000 		.4byte	0x1757
 6376 1749 12       		.uleb128 0x12
 6377 174a 01       		.uleb128 0x1
 6378 174b 51       		.byte	0x51
 6379 174c 03       		.uleb128 0x3
 6380 174d 0A       		.byte	0xa
 6381 174e A25B     		.2byte	0x5ba2
 6382 1750 12       		.uleb128 0x12
 6383 1751 01       		.uleb128 0x1
 6384 1752 52       		.byte	0x52
 6385 1753 02       		.uleb128 0x2
 6386 1754 76       		.byte	0x76
 6387 1755 00       		.sleb128 0
 6388 1756 00       		.byte	0
 6389 1757 11       		.uleb128 0x11
ARM GAS  C:\Users\User\AppData\Local\Temp\ccoMSFoX.s 			page 136


 6390 1758 98020000 		.4byte	.LVL323
 6391 175c 02200000 		.4byte	0x2002
 6392 1760 72170000 		.4byte	0x1772
 6393 1764 12       		.uleb128 0x12
 6394 1765 01       		.uleb128 0x1
 6395 1766 51       		.byte	0x51
 6396 1767 03       		.uleb128 0x3
 6397 1768 0A       		.byte	0xa
 6398 1769 A25B     		.2byte	0x5ba2
 6399 176b 12       		.uleb128 0x12
 6400 176c 01       		.uleb128 0x1
 6401 176d 52       		.byte	0x52
 6402 176e 02       		.uleb128 0x2
 6403 176f 75       		.byte	0x75
 6404 1770 00       		.sleb128 0
 6405 1771 00       		.byte	0
 6406 1772 11       		.uleb128 0x11
 6407 1773 A4020000 		.4byte	.LVL324
 6408 1777 02200000 		.4byte	0x2002
 6409 177b 8D170000 		.4byte	0x178d
 6410 177f 12       		.uleb128 0x12
 6411 1780 01       		.uleb128 0x1
 6412 1781 51       		.byte	0x51
 6413 1782 03       		.uleb128 0x3
 6414 1783 0A       		.byte	0xa
 6415 1784 A25B     		.2byte	0x5ba2
 6416 1786 12       		.uleb128 0x12
 6417 1787 01       		.uleb128 0x1
 6418 1788 52       		.byte	0x52
 6419 1789 02       		.uleb128 0x2
 6420 178a 7B       		.byte	0x7b
 6421 178b 00       		.sleb128 0
 6422 178c 00       		.byte	0
 6423 178d 11       		.uleb128 0x11
 6424 178e B0020000 		.4byte	.LVL325
 6425 1792 02200000 		.4byte	0x2002
 6426 1796 A8170000 		.4byte	0x17a8
 6427 179a 12       		.uleb128 0x12
 6428 179b 01       		.uleb128 0x1
 6429 179c 51       		.byte	0x51
 6430 179d 03       		.uleb128 0x3
 6431 179e 0A       		.byte	0xa
 6432 179f A25B     		.2byte	0x5ba2
 6433 17a1 12       		.uleb128 0x12
 6434 17a2 01       		.uleb128 0x1
 6435 17a3 52       		.byte	0x52
 6436 17a4 02       		.uleb128 0x2
 6437 17a5 7A       		.byte	0x7a
 6438 17a6 00       		.sleb128 0
 6439 17a7 00       		.byte	0
 6440 17a8 11       		.uleb128 0x11
 6441 17a9 BC020000 		.4byte	.LVL326
 6442 17ad 02200000 		.4byte	0x2002
 6443 17b1 C3170000 		.4byte	0x17c3
 6444 17b5 12       		.uleb128 0x12
 6445 17b6 01       		.uleb128 0x1
 6446 17b7 51       		.byte	0x51
ARM GAS  C:\Users\User\AppData\Local\Temp\ccoMSFoX.s 			page 137


 6447 17b8 03       		.uleb128 0x3
 6448 17b9 0A       		.byte	0xa
 6449 17ba A25B     		.2byte	0x5ba2
 6450 17bc 12       		.uleb128 0x12
 6451 17bd 01       		.uleb128 0x1
 6452 17be 52       		.byte	0x52
 6453 17bf 02       		.uleb128 0x2
 6454 17c0 79       		.byte	0x79
 6455 17c1 00       		.sleb128 0
 6456 17c2 00       		.byte	0
 6457 17c3 11       		.uleb128 0x11
 6458 17c4 C8020000 		.4byte	.LVL327
 6459 17c8 02200000 		.4byte	0x2002
 6460 17cc DE170000 		.4byte	0x17de
 6461 17d0 12       		.uleb128 0x12
 6462 17d1 01       		.uleb128 0x1
 6463 17d2 51       		.byte	0x51
 6464 17d3 03       		.uleb128 0x3
 6465 17d4 0A       		.byte	0xa
 6466 17d5 A25B     		.2byte	0x5ba2
 6467 17d7 12       		.uleb128 0x12
 6468 17d8 01       		.uleb128 0x1
 6469 17d9 52       		.byte	0x52
 6470 17da 02       		.uleb128 0x2
 6471 17db 78       		.byte	0x78
 6472 17dc 00       		.sleb128 0
 6473 17dd 00       		.byte	0
 6474 17de 11       		.uleb128 0x11
 6475 17df D4020000 		.4byte	.LVL328
 6476 17e3 02200000 		.4byte	0x2002
 6477 17e7 F9170000 		.4byte	0x17f9
 6478 17eb 12       		.uleb128 0x12
 6479 17ec 01       		.uleb128 0x1
 6480 17ed 51       		.byte	0x51
 6481 17ee 03       		.uleb128 0x3
 6482 17ef 0A       		.byte	0xa
 6483 17f0 A25B     		.2byte	0x5ba2
 6484 17f2 12       		.uleb128 0x12
 6485 17f3 01       		.uleb128 0x1
 6486 17f4 52       		.byte	0x52
 6487 17f5 02       		.uleb128 0x2
 6488 17f6 77       		.byte	0x77
 6489 17f7 00       		.sleb128 0
 6490 17f8 00       		.byte	0
 6491 17f9 11       		.uleb128 0x11
 6492 17fa E0020000 		.4byte	.LVL329
 6493 17fe 02200000 		.4byte	0x2002
 6494 1802 16180000 		.4byte	0x1816
 6495 1806 12       		.uleb128 0x12
 6496 1807 01       		.uleb128 0x1
 6497 1808 51       		.byte	0x51
 6498 1809 03       		.uleb128 0x3
 6499 180a 0A       		.byte	0xa
 6500 180b A25B     		.2byte	0x5ba2
 6501 180d 12       		.uleb128 0x12
 6502 180e 01       		.uleb128 0x1
 6503 180f 52       		.byte	0x52
ARM GAS  C:\Users\User\AppData\Local\Temp\ccoMSFoX.s 			page 138


 6504 1810 04       		.uleb128 0x4
 6505 1811 91       		.byte	0x91
 6506 1812 4C       		.sleb128 -52
 6507 1813 94       		.byte	0x94
 6508 1814 02       		.byte	0x2
 6509 1815 00       		.byte	0
 6510 1816 11       		.uleb128 0x11
 6511 1817 EC020000 		.4byte	.LVL330
 6512 181b 02200000 		.4byte	0x2002
 6513 181f 33180000 		.4byte	0x1833
 6514 1823 12       		.uleb128 0x12
 6515 1824 01       		.uleb128 0x1
 6516 1825 51       		.byte	0x51
 6517 1826 03       		.uleb128 0x3
 6518 1827 0A       		.byte	0xa
 6519 1828 A25B     		.2byte	0x5ba2
 6520 182a 12       		.uleb128 0x12
 6521 182b 01       		.uleb128 0x1
 6522 182c 52       		.byte	0x52
 6523 182d 04       		.uleb128 0x4
 6524 182e 91       		.byte	0x91
 6525 182f 50       		.sleb128 -48
 6526 1830 94       		.byte	0x94
 6527 1831 02       		.byte	0x2
 6528 1832 00       		.byte	0
 6529 1833 11       		.uleb128 0x11
 6530 1834 F8020000 		.4byte	.LVL331
 6531 1838 02200000 		.4byte	0x2002
 6532 183c 50180000 		.4byte	0x1850
 6533 1840 12       		.uleb128 0x12
 6534 1841 01       		.uleb128 0x1
 6535 1842 51       		.byte	0x51
 6536 1843 03       		.uleb128 0x3
 6537 1844 0A       		.byte	0xa
 6538 1845 A25B     		.2byte	0x5ba2
 6539 1847 12       		.uleb128 0x12
 6540 1848 01       		.uleb128 0x1
 6541 1849 52       		.byte	0x52
 6542 184a 04       		.uleb128 0x4
 6543 184b 91       		.byte	0x91
 6544 184c 54       		.sleb128 -44
 6545 184d 94       		.byte	0x94
 6546 184e 02       		.byte	0x2
 6547 184f 00       		.byte	0
 6548 1850 11       		.uleb128 0x11
 6549 1851 04030000 		.4byte	.LVL332
 6550 1855 02200000 		.4byte	0x2002
 6551 1859 6B180000 		.4byte	0x186b
 6552 185d 12       		.uleb128 0x12
 6553 185e 01       		.uleb128 0x1
 6554 185f 51       		.byte	0x51
 6555 1860 03       		.uleb128 0x3
 6556 1861 0A       		.byte	0xa
 6557 1862 A25B     		.2byte	0x5ba2
 6558 1864 12       		.uleb128 0x12
 6559 1865 01       		.uleb128 0x1
 6560 1866 52       		.byte	0x52
ARM GAS  C:\Users\User\AppData\Local\Temp\ccoMSFoX.s 			page 139


 6561 1867 02       		.uleb128 0x2
 6562 1868 76       		.byte	0x76
 6563 1869 00       		.sleb128 0
 6564 186a 00       		.byte	0
 6565 186b 10       		.uleb128 0x10
 6566 186c 0E030000 		.4byte	.LVL333
 6567 1870 0D200000 		.4byte	0x200d
 6568 1874 13       		.uleb128 0x13
 6569 1875 16030000 		.4byte	.LVL334
 6570 1879 18200000 		.4byte	0x2018
 6571 187d 12       		.uleb128 0x12
 6572 187e 01       		.uleb128 0x1
 6573 187f 51       		.byte	0x51
 6574 1880 01       		.uleb128 0x1
 6575 1881 31       		.byte	0x31
 6576 1882 00       		.byte	0
 6577 1883 00       		.byte	0
 6578 1884 14       		.uleb128 0x14
 6579 1885 C0030000 		.4byte	.LASF44
 6580 1889 01       		.byte	0x1
 6581 188a 9A01     		.2byte	0x19a
 6582 188c 00000000 		.4byte	.LFB71
 6583 1890 88000000 		.4byte	.LFE71-.LFB71
 6584 1894 01       		.uleb128 0x1
 6585 1895 9C       		.byte	0x9c
 6586 1896 A9190000 		.4byte	0x19a9
 6587 189a 1A       		.uleb128 0x1a
 6588 189b BA040000 		.4byte	.LASF137
 6589 189f 01       		.byte	0x1
 6590 18a0 9A01     		.2byte	0x19a
 6591 18a2 B3000000 		.4byte	0xb3
 6592 18a6 D2000000 		.4byte	.LLST8
 6593 18aa 11       		.uleb128 0x11
 6594 18ab 0A000000 		.4byte	.LVL337
 6595 18af 5A200000 		.4byte	0x205a
 6596 18b3 BD180000 		.4byte	0x18bd
 6597 18b7 12       		.uleb128 0x12
 6598 18b8 01       		.uleb128 0x1
 6599 18b9 50       		.byte	0x50
 6600 18ba 01       		.uleb128 0x1
 6601 18bb 31       		.byte	0x31
 6602 18bc 00       		.byte	0
 6603 18bd 10       		.uleb128 0x10
 6604 18be 0E000000 		.4byte	.LVL338
 6605 18c2 65200000 		.4byte	0x2065
 6606 18c6 11       		.uleb128 0x11
 6607 18c7 14000000 		.4byte	.LVL339
 6608 18cb 341E0000 		.4byte	0x1e34
 6609 18cf D9180000 		.4byte	0x18d9
 6610 18d3 12       		.uleb128 0x12
 6611 18d4 01       		.uleb128 0x1
 6612 18d5 50       		.byte	0x50
 6613 18d6 01       		.uleb128 0x1
 6614 18d7 3C       		.byte	0x3c
 6615 18d8 00       		.byte	0
 6616 18d9 10       		.uleb128 0x10
 6617 18da 18000000 		.4byte	.LVL340
ARM GAS  C:\Users\User\AppData\Local\Temp\ccoMSFoX.s 			page 140


 6618 18de 3F1E0000 		.4byte	0x1e3f
 6619 18e2 10       		.uleb128 0x10
 6620 18e3 1C000000 		.4byte	.LVL341
 6621 18e7 70200000 		.4byte	0x2070
 6622 18eb 11       		.uleb128 0x11
 6623 18ec 22000000 		.4byte	.LVL342
 6624 18f0 551E0000 		.4byte	0x1e55
 6625 18f4 FE180000 		.4byte	0x18fe
 6626 18f8 12       		.uleb128 0x12
 6627 18f9 01       		.uleb128 0x1
 6628 18fa 50       		.byte	0x50
 6629 18fb 01       		.uleb128 0x1
 6630 18fc 36       		.byte	0x36
 6631 18fd 00       		.byte	0
 6632 18fe 10       		.uleb128 0x10
 6633 18ff 26000000 		.4byte	.LVL343
 6634 1903 601E0000 		.4byte	0x1e60
 6635 1907 10       		.uleb128 0x10
 6636 1908 2A000000 		.4byte	.LVL344
 6637 190c 7B200000 		.4byte	0x207b
 6638 1910 11       		.uleb128 0x11
 6639 1911 30000000 		.4byte	.LVL345
 6640 1915 761E0000 		.4byte	0x1e76
 6641 1919 23190000 		.4byte	0x1923
 6642 191d 12       		.uleb128 0x12
 6643 191e 01       		.uleb128 0x1
 6644 191f 50       		.byte	0x50
 6645 1920 01       		.uleb128 0x1
 6646 1921 33       		.byte	0x33
 6647 1922 00       		.byte	0
 6648 1923 10       		.uleb128 0x10
 6649 1924 34000000 		.4byte	.LVL346
 6650 1928 811E0000 		.4byte	0x1e81
 6651 192c 10       		.uleb128 0x10
 6652 192d 38000000 		.4byte	.LVL347
 6653 1931 86200000 		.4byte	0x2086
 6654 1935 11       		.uleb128 0x11
 6655 1936 3E000000 		.4byte	.LVL348
 6656 193a 971E0000 		.4byte	0x1e97
 6657 193e 48190000 		.4byte	0x1948
 6658 1942 12       		.uleb128 0x12
 6659 1943 01       		.uleb128 0x1
 6660 1944 50       		.byte	0x50
 6661 1945 01       		.uleb128 0x1
 6662 1946 39       		.byte	0x39
 6663 1947 00       		.byte	0
 6664 1948 10       		.uleb128 0x10
 6665 1949 42000000 		.4byte	.LVL349
 6666 194d A21E0000 		.4byte	0x1ea2
 6667 1951 10       		.uleb128 0x10
 6668 1952 46000000 		.4byte	.LVL350
 6669 1956 B4090000 		.4byte	0x9b4
 6670 195a 10       		.uleb128 0x10
 6671 195b 4A000000 		.4byte	.LVL351
 6672 195f CA0A0000 		.4byte	0xaca
 6673 1963 10       		.uleb128 0x10
 6674 1964 5C000000 		.4byte	.LVL352
ARM GAS  C:\Users\User\AppData\Local\Temp\ccoMSFoX.s 			page 141


 6675 1968 DE0B0000 		.4byte	0xbde
 6676 196c 10       		.uleb128 0x10
 6677 196d 62000000 		.4byte	.LVL353
 6678 1971 F20C0000 		.4byte	0xcf2
 6679 1975 10       		.uleb128 0x10
 6680 1976 68000000 		.4byte	.LVL354
 6681 197a DE0B0000 		.4byte	0xbde
 6682 197e 10       		.uleb128 0x10
 6683 197f 6C000000 		.4byte	.LVL355
 6684 1983 F20C0000 		.4byte	0xcf2
 6685 1987 10       		.uleb128 0x10
 6686 1988 70000000 		.4byte	.LVL356
 6687 198c 060E0000 		.4byte	0xe06
 6688 1990 10       		.uleb128 0x10
 6689 1991 74000000 		.4byte	.LVL357
 6690 1995 45130000 		.4byte	0x1345
 6691 1999 13       		.uleb128 0x13
 6692 199a 7A000000 		.4byte	.LVL358
 6693 199e 5A200000 		.4byte	0x205a
 6694 19a2 12       		.uleb128 0x12
 6695 19a3 01       		.uleb128 0x1
 6696 19a4 50       		.byte	0x50
 6697 19a5 01       		.uleb128 0x1
 6698 19a6 30       		.byte	0x30
 6699 19a7 00       		.byte	0
 6700 19a8 00       		.byte	0
 6701 19a9 14       		.uleb128 0x14
 6702 19aa 94060000 		.4byte	.LASF45
 6703 19ae 01       		.byte	0x1
 6704 19af B801     		.2byte	0x1b8
 6705 19b1 00000000 		.4byte	.LFB72
 6706 19b5 B0010000 		.4byte	.LFE72-.LFB72
 6707 19b9 01       		.uleb128 0x1
 6708 19ba 9C       		.byte	0x9c
 6709 19bb 981B0000 		.4byte	0x1b98
 6710 19bf 19       		.uleb128 0x19
 6711 19c0 18000000 		.4byte	.Ldebug_ranges0+0x18
 6712 19c4 391A0000 		.4byte	0x1a39
 6713 19c8 18       		.uleb128 0x18
 6714 19c9 E6050000 		.4byte	.LASF46
 6715 19cd 01       		.byte	0x1
 6716 19ce BF01     		.2byte	0x1bf
 6717 19d0 68000000 		.4byte	0x68
 6718 19d4 F3000000 		.4byte	.LLST9
 6719 19d8 10       		.uleb128 0x10
 6720 19d9 18000000 		.4byte	.LVL361
 6721 19dd 91200000 		.4byte	0x2091
 6722 19e1 11       		.uleb128 0x11
 6723 19e2 22000000 		.4byte	.LVL362
 6724 19e6 D61F0000 		.4byte	0x1fd6
 6725 19ea F4190000 		.4byte	0x19f4
 6726 19ee 12       		.uleb128 0x12
 6727 19ef 01       		.uleb128 0x1
 6728 19f0 50       		.byte	0x50
 6729 19f1 01       		.uleb128 0x1
 6730 19f2 31       		.byte	0x31
 6731 19f3 00       		.byte	0
ARM GAS  C:\Users\User\AppData\Local\Temp\ccoMSFoX.s 			page 142


 6732 19f4 11       		.uleb128 0x11
 6733 19f5 28000000 		.4byte	.LVL363
 6734 19f9 B51F0000 		.4byte	0x1fb5
 6735 19fd 081A0000 		.4byte	0x1a08
 6736 1a01 12       		.uleb128 0x12
 6737 1a02 01       		.uleb128 0x1
 6738 1a03 50       		.byte	0x50
 6739 1a04 02       		.uleb128 0x2
 6740 1a05 08       		.byte	0x8
 6741 1a06 32       		.byte	0x32
 6742 1a07 00       		.byte	0
 6743 1a08 11       		.uleb128 0x11
 6744 1a09 2E000000 		.4byte	.LVL364
 6745 1a0d D61F0000 		.4byte	0x1fd6
 6746 1a11 1B1A0000 		.4byte	0x1a1b
 6747 1a15 12       		.uleb128 0x12
 6748 1a16 01       		.uleb128 0x1
 6749 1a17 50       		.byte	0x50
 6750 1a18 01       		.uleb128 0x1
 6751 1a19 30       		.byte	0x30
 6752 1a1a 00       		.byte	0
 6753 1a1b 11       		.uleb128 0x11
 6754 1a1c 34000000 		.4byte	.LVL365
 6755 1a20 B51F0000 		.4byte	0x1fb5
 6756 1a24 2F1A0000 		.4byte	0x1a2f
 6757 1a28 12       		.uleb128 0x12
 6758 1a29 01       		.uleb128 0x1
 6759 1a2a 50       		.byte	0x50
 6760 1a2b 02       		.uleb128 0x2
 6761 1a2c 08       		.byte	0x8
 6762 1a2d 32       		.byte	0x32
 6763 1a2e 00       		.byte	0
 6764 1a2f 10       		.uleb128 0x10
 6765 1a30 3E000000 		.4byte	.LVL369
 6766 1a34 9F1F0000 		.4byte	0x1f9f
 6767 1a38 00       		.byte	0
 6768 1a39 15       		.uleb128 0x15
 6769 1a3a D6000000 		.4byte	.LBB12
 6770 1a3e 36000000 		.4byte	.LBE12-.LBB12
 6771 1a42 791A0000 		.4byte	0x1a79
 6772 1a46 16       		.uleb128 0x16
 6773 1a47 6A00     		.ascii	"j\000"
 6774 1a49 01       		.byte	0x1
 6775 1a4a E301     		.2byte	0x1e3
 6776 1a4c 68000000 		.4byte	0x68
 6777 1a50 1C010000 		.4byte	.LLST10
 6778 1a54 10       		.uleb128 0x10
 6779 1a55 E6000000 		.4byte	.LVL382
 6780 1a59 9C200000 		.4byte	0x209c
 6781 1a5d 10       		.uleb128 0x10
 6782 1a5e EE000000 		.4byte	.LVL383
 6783 1a62 9C200000 		.4byte	0x209c
 6784 1a66 10       		.uleb128 0x10
 6785 1a67 FA000000 		.4byte	.LVL384
 6786 1a6b 9C200000 		.4byte	0x209c
 6787 1a6f 10       		.uleb128 0x10
 6788 1a70 02010000 		.4byte	.LVL385
ARM GAS  C:\Users\User\AppData\Local\Temp\ccoMSFoX.s 			page 143


 6789 1a74 9C200000 		.4byte	0x209c
 6790 1a78 00       		.byte	0
 6791 1a79 10       		.uleb128 0x10
 6792 1a7a 0C000000 		.4byte	.LVL359
 6793 1a7e 9F1F0000 		.4byte	0x1f9f
 6794 1a82 10       		.uleb128 0x10
 6795 1a83 5E000000 		.4byte	.LVL370
 6796 1a87 63090000 		.4byte	0x963
 6797 1a8b 10       		.uleb128 0x10
 6798 1a8c BA000000 		.4byte	.LVL371
 6799 1a90 84180000 		.4byte	0x1884
 6800 1a94 10       		.uleb128 0x10
 6801 1a95 BE000000 		.4byte	.LVL372
 6802 1a99 DB060000 		.4byte	0x6db
 6803 1a9d 10       		.uleb128 0x10
 6804 1a9e C2000000 		.4byte	.LVL373
 6805 1aa2 40060000 		.4byte	0x640
 6806 1aa6 10       		.uleb128 0x10
 6807 1aa7 C8000000 		.4byte	.LVL375
 6808 1aab 84180000 		.4byte	0x1884
 6809 1aaf 10       		.uleb128 0x10
 6810 1ab0 CE000000 		.4byte	.LVL377
 6811 1ab4 84180000 		.4byte	0x1884
 6812 1ab8 11       		.uleb128 0x11
 6813 1ab9 D6000000 		.4byte	.LVL379
 6814 1abd D61F0000 		.4byte	0x1fd6
 6815 1ac1 CB1A0000 		.4byte	0x1acb
 6816 1ac5 12       		.uleb128 0x12
 6817 1ac6 01       		.uleb128 0x1
 6818 1ac7 50       		.byte	0x50
 6819 1ac8 01       		.uleb128 0x1
 6820 1ac9 31       		.byte	0x31
 6821 1aca 00       		.byte	0
 6822 1acb 11       		.uleb128 0x11
 6823 1acc 12010000 		.4byte	.LVL387
 6824 1ad0 D61F0000 		.4byte	0x1fd6
 6825 1ad4 DE1A0000 		.4byte	0x1ade
 6826 1ad8 12       		.uleb128 0x12
 6827 1ad9 01       		.uleb128 0x1
 6828 1ada 50       		.byte	0x50
 6829 1adb 01       		.uleb128 0x1
 6830 1adc 30       		.byte	0x30
 6831 1add 00       		.byte	0
 6832 1ade 10       		.uleb128 0x10
 6833 1adf 30010000 		.4byte	.LVL389
 6834 1ae3 101F0000 		.4byte	0x1f10
 6835 1ae7 10       		.uleb128 0x10
 6836 1ae8 38010000 		.4byte	.LVL390
 6837 1aec 84180000 		.4byte	0x1884
 6838 1af0 10       		.uleb128 0x10
 6839 1af1 3C010000 		.4byte	.LVL391
 6840 1af5 40060000 		.4byte	0x640
 6841 1af9 11       		.uleb128 0x11
 6842 1afa 48010000 		.4byte	.LVL393
 6843 1afe 101F0000 		.4byte	0x1f10
 6844 1b02 0C1B0000 		.4byte	0x1b0c
 6845 1b06 12       		.uleb128 0x12
ARM GAS  C:\Users\User\AppData\Local\Temp\ccoMSFoX.s 			page 144


 6846 1b07 01       		.uleb128 0x1
 6847 1b08 50       		.byte	0x50
 6848 1b09 01       		.uleb128 0x1
 6849 1b0a 30       		.byte	0x30
 6850 1b0b 00       		.byte	0
 6851 1b0c 10       		.uleb128 0x10
 6852 1b0d 4C010000 		.4byte	.LVL394
 6853 1b11 40060000 		.4byte	0x640
 6854 1b15 11       		.uleb128 0x11
 6855 1b16 58010000 		.4byte	.LVL396
 6856 1b1a 101F0000 		.4byte	0x1f10
 6857 1b1e 281B0000 		.4byte	0x1b28
 6858 1b22 12       		.uleb128 0x12
 6859 1b23 01       		.uleb128 0x1
 6860 1b24 50       		.byte	0x50
 6861 1b25 01       		.uleb128 0x1
 6862 1b26 31       		.byte	0x31
 6863 1b27 00       		.byte	0
 6864 1b28 10       		.uleb128 0x10
 6865 1b29 5C010000 		.4byte	.LVL397
 6866 1b2d 40060000 		.4byte	0x640
 6867 1b31 11       		.uleb128 0x11
 6868 1b32 68010000 		.4byte	.LVL399
 6869 1b36 101F0000 		.4byte	0x1f10
 6870 1b3a 441B0000 		.4byte	0x1b44
 6871 1b3e 12       		.uleb128 0x12
 6872 1b3f 01       		.uleb128 0x1
 6873 1b40 50       		.byte	0x50
 6874 1b41 01       		.uleb128 0x1
 6875 1b42 32       		.byte	0x32
 6876 1b43 00       		.byte	0
 6877 1b44 10       		.uleb128 0x10
 6878 1b45 6C010000 		.4byte	.LVL400
 6879 1b49 40060000 		.4byte	0x640
 6880 1b4d 11       		.uleb128 0x11
 6881 1b4e 78010000 		.4byte	.LVL402
 6882 1b52 101F0000 		.4byte	0x1f10
 6883 1b56 601B0000 		.4byte	0x1b60
 6884 1b5a 12       		.uleb128 0x12
 6885 1b5b 01       		.uleb128 0x1
 6886 1b5c 50       		.byte	0x50
 6887 1b5d 01       		.uleb128 0x1
 6888 1b5e 33       		.byte	0x33
 6889 1b5f 00       		.byte	0
 6890 1b60 10       		.uleb128 0x10
 6891 1b61 7C010000 		.4byte	.LVL403
 6892 1b65 40060000 		.4byte	0x640
 6893 1b69 11       		.uleb128 0x11
 6894 1b6a 88010000 		.4byte	.LVL405
 6895 1b6e 101F0000 		.4byte	0x1f10
 6896 1b72 7C1B0000 		.4byte	0x1b7c
 6897 1b76 12       		.uleb128 0x12
 6898 1b77 01       		.uleb128 0x1
 6899 1b78 50       		.byte	0x50
 6900 1b79 01       		.uleb128 0x1
 6901 1b7a 34       		.byte	0x34
 6902 1b7b 00       		.byte	0
ARM GAS  C:\Users\User\AppData\Local\Temp\ccoMSFoX.s 			page 145


 6903 1b7c 10       		.uleb128 0x10
 6904 1b7d 8C010000 		.4byte	.LVL406
 6905 1b81 40060000 		.4byte	0x640
 6906 1b85 10       		.uleb128 0x10
 6907 1b86 92010000 		.4byte	.LVL408
 6908 1b8a DB060000 		.4byte	0x6db
 6909 1b8e 10       		.uleb128 0x10
 6910 1b8f 98010000 		.4byte	.LVL410
 6911 1b93 A7200000 		.4byte	0x20a7
 6912 1b97 00       		.byte	0
 6913 1b98 1B       		.uleb128 0x1b
 6914 1b99 24080000 		.4byte	.LASF138
 6915 1b9d 01       		.byte	0x1
 6916 1b9e D1       		.byte	0xd1
 6917 1b9f 68000000 		.4byte	0x68
 6918 1ba3 00000000 		.4byte	.LFB64
 6919 1ba7 1E000000 		.4byte	.LFE64-.LFB64
 6920 1bab 01       		.uleb128 0x1
 6921 1bac 9C       		.byte	0x9c
 6922 1bad D61B0000 		.4byte	0x1bd6
 6923 1bb1 10       		.uleb128 0x10
 6924 1bb2 08000000 		.4byte	.LVL412
 6925 1bb6 D0010000 		.4byte	0x1d0
 6926 1bba 10       		.uleb128 0x10
 6927 1bbb 14000000 		.4byte	.LVL413
 6928 1bbf 12080000 		.4byte	0x812
 6929 1bc3 10       		.uleb128 0x10
 6930 1bc4 18000000 		.4byte	.LVL414
 6931 1bc8 E6030000 		.4byte	0x3e6
 6932 1bcc 10       		.uleb128 0x10
 6933 1bcd 1C000000 		.4byte	.LVL415
 6934 1bd1 A9190000 		.4byte	0x19a9
 6935 1bd5 00       		.byte	0
 6936 1bd6 14       		.uleb128 0x14
 6937 1bd7 52030000 		.4byte	.LASF47
 6938 1bdb 01       		.byte	0x1
 6939 1bdc 0603     		.2byte	0x306
 6940 1bde 00000000 		.4byte	.LFB79
 6941 1be2 30000000 		.4byte	.LFE79-.LFB79
 6942 1be6 01       		.uleb128 0x1
 6943 1be7 9C       		.byte	0x9c
 6944 1be8 241C0000 		.4byte	0x1c24
 6945 1bec 10       		.uleb128 0x10
 6946 1bed 14000000 		.4byte	.LVL416
 6947 1bf1 B2200000 		.4byte	0x20b2
 6948 1bf5 10       		.uleb128 0x10
 6949 1bf6 1C000000 		.4byte	.LVL417
 6950 1bfa D61F0000 		.4byte	0x1fd6
 6951 1bfe 11       		.uleb128 0x11
 6952 1bff 22000000 		.4byte	.LVL418
 6953 1c03 84180000 		.4byte	0x1884
 6954 1c07 121C0000 		.4byte	0x1c12
 6955 1c0b 12       		.uleb128 0x12
 6956 1c0c 01       		.uleb128 0x1
 6957 1c0d 50       		.byte	0x50
 6958 1c0e 02       		.uleb128 0x2
 6959 1c0f 08       		.byte	0x8
ARM GAS  C:\Users\User\AppData\Local\Temp\ccoMSFoX.s 			page 146


 6960 1c10 72       		.byte	0x72
 6961 1c11 00       		.byte	0
 6962 1c12 13       		.uleb128 0x13
 6963 1c13 2A000000 		.4byte	.LVL419
 6964 1c17 BD200000 		.4byte	0x20bd
 6965 1c1b 12       		.uleb128 0x12
 6966 1c1c 01       		.uleb128 0x1
 6967 1c1d 50       		.byte	0x50
 6968 1c1e 03       		.uleb128 0x3
 6969 1c1f 0B       		.byte	0xb
 6970 1c20 C8AF     		.2byte	0xafc8
 6971 1c22 00       		.byte	0
 6972 1c23 00       		.byte	0
 6973 1c24 1C       		.uleb128 0x1c
 6974 1c25 CB050000 		.4byte	.LASF48
 6975 1c29 05       		.byte	0x5
 6976 1c2a 1207     		.2byte	0x712
 6977 1c2c 301C0000 		.4byte	0x1c30
 6978 1c30 06       		.uleb128 0x6
 6979 1c31 76000000 		.4byte	0x76
 6980 1c35 1D       		.uleb128 0x1d
 6981 1c36 AA030000 		.4byte	.LASF49
 6982 1c3a 01       		.byte	0x1
 6983 1c3b 5E       		.byte	0x5e
 6984 1c3c D9000000 		.4byte	0xd9
 6985 1c40 05       		.uleb128 0x5
 6986 1c41 03       		.byte	0x3
 6987 1c42 00000000 		.4byte	twMPI_params
 6988 1c46 1D       		.uleb128 0x1d
 6989 1c47 36080000 		.4byte	.LASF50
 6990 1c4b 01       		.byte	0x1
 6991 1c4c 66       		.byte	0x66
 6992 1c4d 571C0000 		.4byte	0x1c57
 6993 1c51 05       		.uleb128 0x5
 6994 1c52 03       		.byte	0x3
 6995 1c53 00000000 		.4byte	twMPI
 6996 1c57 0C       		.uleb128 0xc
 6997 1c58 04       		.byte	0x4
 6998 1c59 D9000000 		.4byte	0xd9
 6999 1c5d 1D       		.uleb128 0x1d
 7000 1c5e 40050000 		.4byte	.LASF51
 7001 1c62 01       		.byte	0x1
 7002 1c63 71       		.byte	0x71
 7003 1c64 81000000 		.4byte	0x81
 7004 1c68 05       		.uleb128 0x5
 7005 1c69 03       		.byte	0x3
 7006 1c6a 00000000 		.4byte	DMA_DAC_1_Chan
 7007 1c6e 0A       		.uleb128 0xa
 7008 1c6f 81000000 		.4byte	0x81
 7009 1c73 7E1C0000 		.4byte	0x1c7e
 7010 1c77 0B       		.uleb128 0xb
 7011 1c78 D2000000 		.4byte	0xd2
 7012 1c7c 02       		.byte	0x2
 7013 1c7d 00       		.byte	0
 7014 1c7e 1D       		.uleb128 0x1d
 7015 1c7f DB020000 		.4byte	.LASF52
 7016 1c83 01       		.byte	0x1
ARM GAS  C:\Users\User\AppData\Local\Temp\ccoMSFoX.s 			page 147


 7017 1c84 72       		.byte	0x72
 7018 1c85 6E1C0000 		.4byte	0x1c6e
 7019 1c89 05       		.uleb128 0x5
 7020 1c8a 03       		.byte	0x3
 7021 1c8b 00000000 		.4byte	DMA_DAC_1_TD
 7022 1c8f 1D       		.uleb128 0x1d
 7023 1c90 A3010000 		.4byte	.LASF53
 7024 1c94 01       		.byte	0x1
 7025 1c95 7C       		.byte	0x7c
 7026 1c96 81000000 		.4byte	0x81
 7027 1c9a 05       		.uleb128 0x5
 7028 1c9b 03       		.byte	0x3
 7029 1c9c 00000000 		.4byte	DMA_DAC_2_Chan
 7030 1ca0 1D       		.uleb128 0x1d
 7031 1ca1 29080000 		.4byte	.LASF54
 7032 1ca5 01       		.byte	0x1
 7033 1ca6 7D       		.byte	0x7d
 7034 1ca7 6E1C0000 		.4byte	0x1c6e
 7035 1cab 05       		.uleb128 0x5
 7036 1cac 03       		.byte	0x3
 7037 1cad 00000000 		.4byte	DMA_DAC_2_TD
 7038 1cb1 1D       		.uleb128 0x1d
 7039 1cb2 B5060000 		.4byte	.LASF55
 7040 1cb6 01       		.byte	0x1
 7041 1cb7 87       		.byte	0x87
 7042 1cb8 81000000 		.4byte	0x81
 7043 1cbc 05       		.uleb128 0x5
 7044 1cbd 03       		.byte	0x3
 7045 1cbe 00000000 		.4byte	DMA_DAC_3_Chan
 7046 1cc2 1D       		.uleb128 0x1d
 7047 1cc3 25040000 		.4byte	.LASF56
 7048 1cc7 01       		.byte	0x1
 7049 1cc8 88       		.byte	0x88
 7050 1cc9 6E1C0000 		.4byte	0x1c6e
 7051 1ccd 05       		.uleb128 0x5
 7052 1cce 03       		.byte	0x3
 7053 1ccf 00000000 		.4byte	DMA_DAC_3_TD
 7054 1cd3 1D       		.uleb128 0x1d
 7055 1cd4 77030000 		.4byte	.LASF57
 7056 1cd8 01       		.byte	0x1
 7057 1cd9 92       		.byte	0x92
 7058 1cda 81000000 		.4byte	0x81
 7059 1cde 05       		.uleb128 0x5
 7060 1cdf 03       		.byte	0x3
 7061 1ce0 00000000 		.4byte	DMA_DAC_4_Chan
 7062 1ce4 1D       		.uleb128 0x1d
 7063 1ce5 B0000000 		.4byte	.LASF58
 7064 1ce9 01       		.byte	0x1
 7065 1cea 93       		.byte	0x93
 7066 1ceb 6E1C0000 		.4byte	0x1c6e
 7067 1cef 05       		.uleb128 0x5
 7068 1cf0 03       		.byte	0x3
 7069 1cf1 00000000 		.4byte	DMA_DAC_4_TD
 7070 1cf5 1D       		.uleb128 0x1d
 7071 1cf6 DF060000 		.4byte	.LASF59
 7072 1cfa 01       		.byte	0x1
 7073 1cfb 9E       		.byte	0x9e
ARM GAS  C:\Users\User\AppData\Local\Temp\ccoMSFoX.s 			page 148


 7074 1cfc 81000000 		.4byte	0x81
 7075 1d00 05       		.uleb128 0x5
 7076 1d01 03       		.byte	0x3
 7077 1d02 00000000 		.4byte	DMA_ADC_1_Chan
 7078 1d06 0A       		.uleb128 0xa
 7079 1d07 81000000 		.4byte	0x81
 7080 1d0b 161D0000 		.4byte	0x1d16
 7081 1d0f 0B       		.uleb128 0xb
 7082 1d10 D2000000 		.4byte	0xd2
 7083 1d14 13       		.byte	0x13
 7084 1d15 00       		.byte	0
 7085 1d16 1D       		.uleb128 0x1d
 7086 1d17 17080000 		.4byte	.LASF60
 7087 1d1b 01       		.byte	0x1
 7088 1d1c 9F       		.byte	0x9f
 7089 1d1d 061D0000 		.4byte	0x1d06
 7090 1d21 05       		.uleb128 0x5
 7091 1d22 03       		.byte	0x3
 7092 1d23 00000000 		.4byte	DMA_ADC_1_TD
 7093 1d27 1D       		.uleb128 0x1d
 7094 1d28 90020000 		.4byte	.LASF61
 7095 1d2c 01       		.byte	0x1
 7096 1d2d A9       		.byte	0xa9
 7097 1d2e 81000000 		.4byte	0x81
 7098 1d32 05       		.uleb128 0x5
 7099 1d33 03       		.byte	0x3
 7100 1d34 00000000 		.4byte	DMA_ADC_2_Chan
 7101 1d38 1D       		.uleb128 0x1d
 7102 1d39 18040000 		.4byte	.LASF62
 7103 1d3d 01       		.byte	0x1
 7104 1d3e AA       		.byte	0xaa
 7105 1d3f 061D0000 		.4byte	0x1d06
 7106 1d43 05       		.uleb128 0x5
 7107 1d44 03       		.byte	0x3
 7108 1d45 00000000 		.4byte	DMA_ADC_2_TD
 7109 1d49 0A       		.uleb128 0xa
 7110 1d4a B3000000 		.4byte	0xb3
 7111 1d4e 591D0000 		.4byte	0x1d59
 7112 1d52 0B       		.uleb128 0xb
 7113 1d53 D2000000 		.4byte	0xd2
 7114 1d57 4F       		.byte	0x4f
 7115 1d58 00       		.byte	0
 7116 1d59 1E       		.uleb128 0x1e
 7117 1d5a 736D7300 		.ascii	"sms\000"
 7118 1d5e 01       		.byte	0x1
 7119 1d5f AD       		.byte	0xad
 7120 1d60 491D0000 		.4byte	0x1d49
 7121 1d64 05       		.uleb128 0x5
 7122 1d65 03       		.byte	0x3
 7123 1d66 00000000 		.4byte	sms
 7124 1d6a 0A       		.uleb128 0xa
 7125 1d6b B3000000 		.4byte	0xb3
 7126 1d6f 7A1D0000 		.4byte	0x1d7a
 7127 1d73 0B       		.uleb128 0xb
 7128 1d74 D2000000 		.4byte	0xd2
 7129 1d78 63       		.byte	0x63
 7130 1d79 00       		.byte	0
ARM GAS  C:\Users\User\AppData\Local\Temp\ccoMSFoX.s 			page 149


 7131 1d7a 1D       		.uleb128 0x1d
 7132 1d7b 06010000 		.4byte	.LASF63
 7133 1d7f 01       		.byte	0x1
 7134 1d80 AE       		.byte	0xae
 7135 1d81 6A1D0000 		.4byte	0x1d6a
 7136 1d85 05       		.uleb128 0x5
 7137 1d86 03       		.byte	0x3
 7138 1d87 00000000 		.4byte	puttyIn
 7139 1d8b 1D       		.uleb128 0x1d
 7140 1d8c D2010000 		.4byte	.LASF64
 7141 1d90 01       		.byte	0x1
 7142 1d91 AF       		.byte	0xaf
 7143 1d92 68000000 		.4byte	0x68
 7144 1d96 05       		.uleb128 0x5
 7145 1d97 03       		.byte	0x3
 7146 1d98 00000000 		.4byte	rxBuf
 7147 1d9c 1D       		.uleb128 0x1d
 7148 1d9d 43040000 		.4byte	.LASF65
 7149 1da1 01       		.byte	0x1
 7150 1da2 B0       		.byte	0xb0
 7151 1da3 81000000 		.4byte	0x81
 7152 1da7 05       		.uleb128 0x5
 7153 1da8 03       		.byte	0x3
 7154 1da9 00000000 		.4byte	run_count_DAC_1
 7155 1dad 1D       		.uleb128 0x1d
 7156 1dae 76020000 		.4byte	.LASF66
 7157 1db2 01       		.byte	0x1
 7158 1db3 B1       		.byte	0xb1
 7159 1db4 81000000 		.4byte	0x81
 7160 1db8 05       		.uleb128 0x5
 7161 1db9 03       		.byte	0x3
 7162 1dba 00000000 		.4byte	nextRun
 7163 1dbe 0A       		.uleb128 0xa
 7164 1dbf 8D000000 		.4byte	0x8d
 7165 1dc3 CF1D0000 		.4byte	0x1dcf
 7166 1dc7 1F       		.uleb128 0x1f
 7167 1dc8 D2000000 		.4byte	0xd2
 7168 1dcc 973A     		.2byte	0x3a97
 7169 1dce 00       		.byte	0
 7170 1dcf 1D       		.uleb128 0x1d
 7171 1dd0 A0050000 		.4byte	.LASF67
 7172 1dd4 01       		.byte	0x1
 7173 1dd5 B4       		.byte	0xb4
 7174 1dd6 BE1D0000 		.4byte	0x1dbe
 7175 1dda 05       		.uleb128 0x5
 7176 1ddb 03       		.byte	0x3
 7177 1ddc 00000000 		.4byte	signal_adc_1
 7178 1de0 1D       		.uleb128 0x1d
 7179 1de1 AD050000 		.4byte	.LASF68
 7180 1de5 01       		.byte	0x1
 7181 1de6 B5       		.byte	0xb5
 7182 1de7 BE1D0000 		.4byte	0x1dbe
 7183 1deb 05       		.uleb128 0x5
 7184 1dec 03       		.byte	0x3
 7185 1ded 00000000 		.4byte	signal_adc_2
 7186 1df1 1D       		.uleb128 0x1d
 7187 1df2 9F020000 		.4byte	.LASF69
ARM GAS  C:\Users\User\AppData\Local\Temp\ccoMSFoX.s 			page 150


 7188 1df6 01       		.byte	0x1
 7189 1df7 CE       		.byte	0xce
 7190 1df8 81000000 		.4byte	0x81
 7191 1dfc 05       		.uleb128 0x5
 7192 1dfd 03       		.byte	0x3
 7193 1dfe 00000000 		.4byte	current_chan
 7194 1e02 1D       		.uleb128 0x1d
 7195 1e03 27010000 		.4byte	.LASF70
 7196 1e07 01       		.byte	0x1
 7197 1e08 CF       		.byte	0xcf
 7198 1e09 81000000 		.4byte	0x81
 7199 1e0d 05       		.uleb128 0x5
 7200 1e0e 03       		.byte	0x3
 7201 1e0f 00000000 		.4byte	count_of_runs
 7202 1e13 20       		.uleb128 0x20
 7203 1e14 4D060000 		.4byte	.LASF71
 7204 1e18 4D060000 		.4byte	.LASF71
 7205 1e1c 06       		.byte	0x6
 7206 1e1d 92       		.byte	0x92
 7207 1e1e 20       		.uleb128 0x20
 7208 1e1f DC030000 		.4byte	.LASF72
 7209 1e23 DC030000 		.4byte	.LASF72
 7210 1e27 07       		.byte	0x7
 7211 1e28 3C       		.byte	0x3c
 7212 1e29 20       		.uleb128 0x20
 7213 1e2a C2040000 		.4byte	.LASF73
 7214 1e2e C2040000 		.4byte	.LASF73
 7215 1e32 07       		.byte	0x7
 7216 1e33 41       		.byte	0x41
 7217 1e34 20       		.uleb128 0x20
 7218 1e35 50000000 		.4byte	.LASF74
 7219 1e39 50000000 		.4byte	.LASF74
 7220 1e3d 08       		.byte	0x8
 7221 1e3e 48       		.byte	0x48
 7222 1e3f 20       		.uleb128 0x20
 7223 1e40 32040000 		.4byte	.LASF75
 7224 1e44 32040000 		.4byte	.LASF75
 7225 1e48 08       		.byte	0x8
 7226 1e49 3C       		.byte	0x3c
 7227 1e4a 20       		.uleb128 0x20
 7228 1e4b 82000000 		.4byte	.LASF76
 7229 1e4f 82000000 		.4byte	.LASF76
 7230 1e53 09       		.byte	0x9
 7231 1e54 3C       		.byte	0x3c
 7232 1e55 20       		.uleb128 0x20
 7233 1e56 CB070000 		.4byte	.LASF77
 7234 1e5a CB070000 		.4byte	.LASF77
 7235 1e5e 0A       		.byte	0xa
 7236 1e5f 48       		.byte	0x48
 7237 1e60 20       		.uleb128 0x20
 7238 1e61 AC020000 		.4byte	.LASF78
 7239 1e65 AC020000 		.4byte	.LASF78
 7240 1e69 0A       		.byte	0xa
 7241 1e6a 3C       		.byte	0x3c
 7242 1e6b 20       		.uleb128 0x20
 7243 1e6c 1A050000 		.4byte	.LASF79
 7244 1e70 1A050000 		.4byte	.LASF79
ARM GAS  C:\Users\User\AppData\Local\Temp\ccoMSFoX.s 			page 151


 7245 1e74 0B       		.byte	0xb
 7246 1e75 3C       		.byte	0x3c
 7247 1e76 20       		.uleb128 0x20
 7248 1e77 B2070000 		.4byte	.LASF80
 7249 1e7b B2070000 		.4byte	.LASF80
 7250 1e7f 0C       		.byte	0xc
 7251 1e80 48       		.byte	0x48
 7252 1e81 20       		.uleb128 0x20
 7253 1e82 63050000 		.4byte	.LASF81
 7254 1e86 63050000 		.4byte	.LASF81
 7255 1e8a 0C       		.byte	0xc
 7256 1e8b 3C       		.byte	0x3c
 7257 1e8c 20       		.uleb128 0x20
 7258 1e8d 35010000 		.4byte	.LASF82
 7259 1e91 35010000 		.4byte	.LASF82
 7260 1e95 0D       		.byte	0xd
 7261 1e96 3C       		.byte	0x3c
 7262 1e97 20       		.uleb128 0x20
 7263 1e98 7B060000 		.4byte	.LASF83
 7264 1e9c 7B060000 		.4byte	.LASF83
 7265 1ea0 0E       		.byte	0xe
 7266 1ea1 48       		.byte	0x48
 7267 1ea2 20       		.uleb128 0x20
 7268 1ea3 52010000 		.4byte	.LASF84
 7269 1ea7 52010000 		.4byte	.LASF84
 7270 1eab 0E       		.byte	0xe
 7271 1eac 3C       		.byte	0x3c
 7272 1ead 20       		.uleb128 0x20
 7273 1eae 66020000 		.4byte	.LASF85
 7274 1eb2 66020000 		.4byte	.LASF85
 7275 1eb6 0F       		.byte	0xf
 7276 1eb7 34       		.byte	0x34
 7277 1eb8 20       		.uleb128 0x20
 7278 1eb9 00000000 		.4byte	.LASF86
 7279 1ebd 00000000 		.4byte	.LASF86
 7280 1ec1 10       		.byte	0x10
 7281 1ec2 25       		.byte	0x25
 7282 1ec3 20       		.uleb128 0x20
 7283 1ec4 84070000 		.4byte	.LASF87
 7284 1ec8 84070000 		.4byte	.LASF87
 7285 1ecc 11       		.byte	0x11
 7286 1ecd 34       		.byte	0x34
 7287 1ece 20       		.uleb128 0x20
 7288 1ecf 86030000 		.4byte	.LASF88
 7289 1ed3 86030000 		.4byte	.LASF88
 7290 1ed7 12       		.byte	0x12
 7291 1ed8 25       		.byte	0x25
 7292 1ed9 20       		.uleb128 0x20
 7293 1eda 2E000000 		.4byte	.LASF89
 7294 1ede 2E000000 		.4byte	.LASF89
 7295 1ee2 13       		.byte	0x13
 7296 1ee3 40       		.byte	0x40
 7297 1ee4 20       		.uleb128 0x20
 7298 1ee5 E2040000 		.4byte	.LASF90
 7299 1ee9 E2040000 		.4byte	.LASF90
 7300 1eed 14       		.byte	0x14
 7301 1eee 40       		.byte	0x40
ARM GAS  C:\Users\User\AppData\Local\Temp\ccoMSFoX.s 			page 152


 7302 1eef 20       		.uleb128 0x20
 7303 1ef0 BD020000 		.4byte	.LASF91
 7304 1ef4 BD020000 		.4byte	.LASF91
 7305 1ef8 15       		.byte	0x15
 7306 1ef9 33       		.byte	0x33
 7307 1efa 20       		.uleb128 0x20
 7308 1efb F5040000 		.4byte	.LASF92
 7309 1eff F5040000 		.4byte	.LASF92
 7310 1f03 16       		.byte	0x16
 7311 1f04 33       		.byte	0x33
 7312 1f05 20       		.uleb128 0x20
 7313 1f06 B2010000 		.4byte	.LASF93
 7314 1f0a B2010000 		.4byte	.LASF93
 7315 1f0e 17       		.byte	0x17
 7316 1f0f 25       		.byte	0x25
 7317 1f10 20       		.uleb128 0x20
 7318 1f11 92040000 		.4byte	.LASF94
 7319 1f15 92040000 		.4byte	.LASF94
 7320 1f19 17       		.byte	0x17
 7321 1f1a 57       		.byte	0x57
 7322 1f1b 20       		.uleb128 0x20
 7323 1f1c 6E060000 		.4byte	.LASF95
 7324 1f20 6E060000 		.4byte	.LASF95
 7325 1f24 18       		.byte	0x18
 7326 1f25 54       		.byte	0x54
 7327 1f26 20       		.uleb128 0x20
 7328 1f27 A3060000 		.4byte	.LASF96
 7329 1f2b A3060000 		.4byte	.LASF96
 7330 1f2f 19       		.byte	0x19
 7331 1f30 3F       		.byte	0x3f
 7332 1f31 20       		.uleb128 0x20
 7333 1f32 90000000 		.4byte	.LASF97
 7334 1f36 90000000 		.4byte	.LASF97
 7335 1f3a 1A       		.byte	0x1a
 7336 1f3b 18       		.byte	0x18
 7337 1f3c 20       		.uleb128 0x20
 7338 1f3d 15010000 		.4byte	.LASF98
 7339 1f41 15010000 		.4byte	.LASF98
 7340 1f45 1B       		.byte	0x1b
 7341 1f46 18       		.byte	0x18
 7342 1f47 20       		.uleb128 0x20
 7343 1f48 65030000 		.4byte	.LASF99
 7344 1f4c 65030000 		.4byte	.LASF99
 7345 1f50 1C       		.byte	0x1c
 7346 1f51 18       		.byte	0x18
 7347 1f52 20       		.uleb128 0x20
 7348 1f53 7E020000 		.4byte	.LASF100
 7349 1f57 7E020000 		.4byte	.LASF100
 7350 1f5b 1D       		.byte	0x1d
 7351 1f5c 18       		.byte	0x18
 7352 1f5d 20       		.uleb128 0x20
 7353 1f5e 89080000 		.4byte	.LASF101
 7354 1f62 89080000 		.4byte	.LASF101
 7355 1f66 1E       		.byte	0x1e
 7356 1f67 18       		.byte	0x18
 7357 1f68 20       		.uleb128 0x20
 7358 1f69 14060000 		.4byte	.LASF102
ARM GAS  C:\Users\User\AppData\Local\Temp\ccoMSFoX.s 			page 153


 7359 1f6d 14060000 		.4byte	.LASF102
 7360 1f71 1F       		.byte	0x1f
 7361 1f72 18       		.byte	0x18
 7362 1f73 20       		.uleb128 0x20
 7363 1f74 70000000 		.4byte	.LASF103
 7364 1f78 70000000 		.4byte	.LASF103
 7365 1f7c 20       		.byte	0x20
 7366 1f7d 18       		.byte	0x18
 7367 1f7e 20       		.uleb128 0x20
 7368 1f7f AB040000 		.4byte	.LASF104
 7369 1f83 AB040000 		.4byte	.LASF104
 7370 1f87 18       		.byte	0x18
 7371 1f88 8E       		.byte	0x8e
 7372 1f89 20       		.uleb128 0x20
 7373 1f8a 5B050000 		.4byte	.LASF105
 7374 1f8e 5B050000 		.4byte	.LASF105
 7375 1f92 21       		.byte	0x21
 7376 1f93 E7       		.byte	0xe7
 7377 1f94 20       		.uleb128 0x20
 7378 1f95 CA020000 		.4byte	.LASF106
 7379 1f99 CA020000 		.4byte	.LASF106
 7380 1f9d 18       		.byte	0x18
 7381 1f9e 8B       		.byte	0x8b
 7382 1f9f 20       		.uleb128 0x20
 7383 1fa0 2A070000 		.4byte	.LASF107
 7384 1fa4 2A070000 		.4byte	.LASF107
 7385 1fa8 18       		.byte	0x18
 7386 1fa9 73       		.byte	0x73
 7387 1faa 20       		.uleb128 0x20
 7388 1fab 46080000 		.4byte	.LASF108
 7389 1faf 46080000 		.4byte	.LASF108
 7390 1fb3 18       		.byte	0x18
 7391 1fb4 75       		.byte	0x75
 7392 1fb5 20       		.uleb128 0x20
 7393 1fb6 16000000 		.4byte	.LASF109
 7394 1fba 16000000 		.4byte	.LASF109
 7395 1fbe 22       		.byte	0x22
 7396 1fbf 76       		.byte	0x76
 7397 1fc0 21       		.uleb128 0x21
 7398 1fc1 73696E00 		.ascii	"sin\000"
 7399 1fc5 73696E00 		.ascii	"sin\000"
 7400 1fc9 2D       		.byte	0x2d
 7401 1fca 6F       		.byte	0x6f
 7402 1fcb 20       		.uleb128 0x20
 7403 1fcc D5000000 		.4byte	.LASF110
 7404 1fd0 D5000000 		.4byte	.LASF110
 7405 1fd4 23       		.byte	0x23
 7406 1fd5 2F       		.byte	0x2f
 7407 1fd6 20       		.uleb128 0x20
 7408 1fd7 99010000 		.4byte	.LASF111
 7409 1fdb 99010000 		.4byte	.LASF111
 7410 1fdf 24       		.byte	0x24
 7411 1fe0 26       		.byte	0x26
 7412 1fe1 20       		.uleb128 0x20
 7413 1fe2 26060000 		.4byte	.LASF112
 7414 1fe6 26060000 		.4byte	.LASF112
 7415 1fea 25       		.byte	0x25
ARM GAS  C:\Users\User\AppData\Local\Temp\ccoMSFoX.s 			page 154


 7416 1feb 1E       		.byte	0x1e
 7417 1fec 20       		.uleb128 0x20
 7418 1fed 14030000 		.4byte	.LASF113
 7419 1ff1 14030000 		.4byte	.LASF113
 7420 1ff5 26       		.byte	0x26
 7421 1ff6 38       		.byte	0x38
 7422 1ff7 20       		.uleb128 0x20
 7423 1ff8 BD000000 		.4byte	.LASF114
 7424 1ffc BD000000 		.4byte	.LASF114
 7425 2000 26       		.byte	0x26
 7426 2001 3B       		.byte	0x3b
 7427 2002 20       		.uleb128 0x20
 7428 2003 84050000 		.4byte	.LASF115
 7429 2007 84050000 		.4byte	.LASF115
 7430 200b 26       		.byte	0x26
 7431 200c 3F       		.byte	0x3f
 7432 200d 20       		.uleb128 0x20
 7433 200e F0070000 		.4byte	.LASF116
 7434 2012 F0070000 		.4byte	.LASF116
 7435 2016 26       		.byte	0x26
 7436 2017 2F       		.byte	0x2f
 7437 2018 20       		.uleb128 0x20
 7438 2019 D8050000 		.4byte	.LASF117
 7439 201d D8050000 		.4byte	.LASF117
 7440 2021 26       		.byte	0x26
 7441 2022 29       		.byte	0x29
 7442 2023 20       		.uleb128 0x20
 7443 2024 FC050000 		.4byte	.LASF118
 7444 2028 FC050000 		.4byte	.LASF118
 7445 202c 27       		.byte	0x27
 7446 202d 1E       		.byte	0x1e
 7447 202e 20       		.uleb128 0x20
 7448 202f 28050000 		.4byte	.LASF119
 7449 2033 28050000 		.4byte	.LASF119
 7450 2037 28       		.byte	0x28
 7451 2038 1E       		.byte	0x1e
 7452 2039 20       		.uleb128 0x20
 7453 203a 02050000 		.4byte	.LASF120
 7454 203e 02050000 		.4byte	.LASF120
 7455 2042 29       		.byte	0x29
 7456 2043 1E       		.byte	0x1e
 7457 2044 20       		.uleb128 0x20
 7458 2045 7A040000 		.4byte	.LASF121
 7459 2049 7A040000 		.4byte	.LASF121
 7460 204d 2A       		.byte	0x2a
 7461 204e 1E       		.byte	0x1e
 7462 204f 20       		.uleb128 0x20
 7463 2050 53040000 		.4byte	.LASF122
 7464 2054 53040000 		.4byte	.LASF122
 7465 2058 2B       		.byte	0x2b
 7466 2059 1E       		.byte	0x1e
 7467 205a 20       		.uleb128 0x20
 7468 205b EE060000 		.4byte	.LASF123
 7469 205f EE060000 		.4byte	.LASF123
 7470 2063 2C       		.byte	0x2c
 7471 2064 2F       		.byte	0x2f
 7472 2065 20       		.uleb128 0x20
ARM GAS  C:\Users\User\AppData\Local\Temp\ccoMSFoX.s 			page 155


 7473 2066 24030000 		.4byte	.LASF124
 7474 206a 24030000 		.4byte	.LASF124
 7475 206e 08       		.byte	0x8
 7476 206f 3D       		.byte	0x3d
 7477 2070 20       		.uleb128 0x20
 7478 2071 1E000000 		.4byte	.LASF125
 7479 2075 1E000000 		.4byte	.LASF125
 7480 2079 0A       		.byte	0xa
 7481 207a 3D       		.byte	0x3d
 7482 207b 20       		.uleb128 0x20
 7483 207c 74050000 		.4byte	.LASF126
 7484 2080 74050000 		.4byte	.LASF126
 7485 2084 0C       		.byte	0xc
 7486 2085 3D       		.byte	0x3d
 7487 2086 20       		.uleb128 0x20
 7488 2087 EA030000 		.4byte	.LASF127
 7489 208b EA030000 		.4byte	.LASF127
 7490 208f 0E       		.byte	0xe
 7491 2090 3D       		.byte	0x3d
 7492 2091 20       		.uleb128 0x20
 7493 2092 68080000 		.4byte	.LASF128
 7494 2096 68080000 		.4byte	.LASF128
 7495 209a 18       		.byte	0x18
 7496 209b 71       		.byte	0x71
 7497 209c 20       		.uleb128 0x20
 7498 209d ED050000 		.4byte	.LASF129
 7499 20a1 ED050000 		.4byte	.LASF129
 7500 20a5 18       		.byte	0x18
 7501 20a6 8A       		.byte	0x8a
 7502 20a7 20       		.uleb128 0x20
 7503 20a8 1A070000 		.4byte	.LASF130
 7504 20ac 1A070000 		.4byte	.LASF130
 7505 20b0 22       		.byte	0x22
 7506 20b1 7B       		.byte	0x7b
 7507 20b2 20       		.uleb128 0x20
 7508 20b3 B7030000 		.4byte	.LASF131
 7509 20b7 B7030000 		.4byte	.LASF131
 7510 20bb 24       		.byte	0x24
 7511 20bc 29       		.byte	0x29
 7512 20bd 20       		.uleb128 0x20
 7513 20be 78010000 		.4byte	.LASF132
 7514 20c2 78010000 		.4byte	.LASF132
 7515 20c6 22       		.byte	0x22
 7516 20c7 77       		.byte	0x77
 7517 20c8 00       		.byte	0
 7518              		.section	.debug_abbrev,"",%progbits
 7519              	.Ldebug_abbrev0:
 7520 0000 01       		.uleb128 0x1
 7521 0001 11       		.uleb128 0x11
 7522 0002 01       		.byte	0x1
 7523 0003 25       		.uleb128 0x25
 7524 0004 0E       		.uleb128 0xe
 7525 0005 13       		.uleb128 0x13
 7526 0006 0B       		.uleb128 0xb
 7527 0007 03       		.uleb128 0x3
 7528 0008 0E       		.uleb128 0xe
 7529 0009 1B       		.uleb128 0x1b
ARM GAS  C:\Users\User\AppData\Local\Temp\ccoMSFoX.s 			page 156


 7530 000a 0E       		.uleb128 0xe
 7531 000b 55       		.uleb128 0x55
 7532 000c 17       		.uleb128 0x17
 7533 000d 11       		.uleb128 0x11
 7534 000e 01       		.uleb128 0x1
 7535 000f 10       		.uleb128 0x10
 7536 0010 17       		.uleb128 0x17
 7537 0011 00       		.byte	0
 7538 0012 00       		.byte	0
 7539 0013 02       		.uleb128 0x2
 7540 0014 24       		.uleb128 0x24
 7541 0015 00       		.byte	0
 7542 0016 0B       		.uleb128 0xb
 7543 0017 0B       		.uleb128 0xb
 7544 0018 3E       		.uleb128 0x3e
 7545 0019 0B       		.uleb128 0xb
 7546 001a 03       		.uleb128 0x3
 7547 001b 0E       		.uleb128 0xe
 7548 001c 00       		.byte	0
 7549 001d 00       		.byte	0
 7550 001e 03       		.uleb128 0x3
 7551 001f 16       		.uleb128 0x16
 7552 0020 00       		.byte	0
 7553 0021 03       		.uleb128 0x3
 7554 0022 0E       		.uleb128 0xe
 7555 0023 3A       		.uleb128 0x3a
 7556 0024 0B       		.uleb128 0xb
 7557 0025 3B       		.uleb128 0x3b
 7558 0026 0B       		.uleb128 0xb
 7559 0027 49       		.uleb128 0x49
 7560 0028 13       		.uleb128 0x13
 7561 0029 00       		.byte	0
 7562 002a 00       		.byte	0
 7563 002b 04       		.uleb128 0x4
 7564 002c 24       		.uleb128 0x24
 7565 002d 00       		.byte	0
 7566 002e 0B       		.uleb128 0xb
 7567 002f 0B       		.uleb128 0xb
 7568 0030 3E       		.uleb128 0x3e
 7569 0031 0B       		.uleb128 0xb
 7570 0032 03       		.uleb128 0x3
 7571 0033 08       		.uleb128 0x8
 7572 0034 00       		.byte	0
 7573 0035 00       		.byte	0
 7574 0036 05       		.uleb128 0x5
 7575 0037 16       		.uleb128 0x16
 7576 0038 00       		.byte	0
 7577 0039 03       		.uleb128 0x3
 7578 003a 0E       		.uleb128 0xe
 7579 003b 3A       		.uleb128 0x3a
 7580 003c 0B       		.uleb128 0xb
 7581 003d 3B       		.uleb128 0x3b
 7582 003e 05       		.uleb128 0x5
 7583 003f 49       		.uleb128 0x49
 7584 0040 13       		.uleb128 0x13
 7585 0041 00       		.byte	0
 7586 0042 00       		.byte	0
ARM GAS  C:\Users\User\AppData\Local\Temp\ccoMSFoX.s 			page 157


 7587 0043 06       		.uleb128 0x6
 7588 0044 35       		.uleb128 0x35
 7589 0045 00       		.byte	0
 7590 0046 49       		.uleb128 0x49
 7591 0047 13       		.uleb128 0x13
 7592 0048 00       		.byte	0
 7593 0049 00       		.byte	0
 7594 004a 07       		.uleb128 0x7
 7595 004b 13       		.uleb128 0x13
 7596 004c 01       		.byte	0x1
 7597 004d 03       		.uleb128 0x3
 7598 004e 0E       		.uleb128 0xe
 7599 004f 0B       		.uleb128 0xb
 7600 0050 0B       		.uleb128 0xb
 7601 0051 3A       		.uleb128 0x3a
 7602 0052 0B       		.uleb128 0xb
 7603 0053 3B       		.uleb128 0x3b
 7604 0054 0B       		.uleb128 0xb
 7605 0055 01       		.uleb128 0x1
 7606 0056 13       		.uleb128 0x13
 7607 0057 00       		.byte	0
 7608 0058 00       		.byte	0
 7609 0059 08       		.uleb128 0x8
 7610 005a 0D       		.uleb128 0xd
 7611 005b 00       		.byte	0
 7612 005c 03       		.uleb128 0x3
 7613 005d 08       		.uleb128 0x8
 7614 005e 3A       		.uleb128 0x3a
 7615 005f 0B       		.uleb128 0xb
 7616 0060 3B       		.uleb128 0x3b
 7617 0061 0B       		.uleb128 0xb
 7618 0062 49       		.uleb128 0x49
 7619 0063 13       		.uleb128 0x13
 7620 0064 38       		.uleb128 0x38
 7621 0065 0B       		.uleb128 0xb
 7622 0066 00       		.byte	0
 7623 0067 00       		.byte	0
 7624 0068 09       		.uleb128 0x9
 7625 0069 0D       		.uleb128 0xd
 7626 006a 00       		.byte	0
 7627 006b 03       		.uleb128 0x3
 7628 006c 0E       		.uleb128 0xe
 7629 006d 3A       		.uleb128 0x3a
 7630 006e 0B       		.uleb128 0xb
 7631 006f 3B       		.uleb128 0x3b
 7632 0070 0B       		.uleb128 0xb
 7633 0071 49       		.uleb128 0x49
 7634 0072 13       		.uleb128 0x13
 7635 0073 38       		.uleb128 0x38
 7636 0074 0B       		.uleb128 0xb
 7637 0075 00       		.byte	0
 7638 0076 00       		.byte	0
 7639 0077 0A       		.uleb128 0xa
 7640 0078 01       		.uleb128 0x1
 7641 0079 01       		.byte	0x1
 7642 007a 49       		.uleb128 0x49
 7643 007b 13       		.uleb128 0x13
ARM GAS  C:\Users\User\AppData\Local\Temp\ccoMSFoX.s 			page 158


 7644 007c 01       		.uleb128 0x1
 7645 007d 13       		.uleb128 0x13
 7646 007e 00       		.byte	0
 7647 007f 00       		.byte	0
 7648 0080 0B       		.uleb128 0xb
 7649 0081 21       		.uleb128 0x21
 7650 0082 00       		.byte	0
 7651 0083 49       		.uleb128 0x49
 7652 0084 13       		.uleb128 0x13
 7653 0085 2F       		.uleb128 0x2f
 7654 0086 0B       		.uleb128 0xb
 7655 0087 00       		.byte	0
 7656 0088 00       		.byte	0
 7657 0089 0C       		.uleb128 0xc
 7658 008a 0F       		.uleb128 0xf
 7659 008b 00       		.byte	0
 7660 008c 0B       		.uleb128 0xb
 7661 008d 0B       		.uleb128 0xb
 7662 008e 49       		.uleb128 0x49
 7663 008f 13       		.uleb128 0x13
 7664 0090 00       		.byte	0
 7665 0091 00       		.byte	0
 7666 0092 0D       		.uleb128 0xd
 7667 0093 26       		.uleb128 0x26
 7668 0094 00       		.byte	0
 7669 0095 49       		.uleb128 0x49
 7670 0096 13       		.uleb128 0x13
 7671 0097 00       		.byte	0
 7672 0098 00       		.byte	0
 7673 0099 0E       		.uleb128 0xe
 7674 009a 2E       		.uleb128 0x2e
 7675 009b 00       		.byte	0
 7676 009c 3F       		.uleb128 0x3f
 7677 009d 19       		.uleb128 0x19
 7678 009e 03       		.uleb128 0x3
 7679 009f 0E       		.uleb128 0xe
 7680 00a0 3A       		.uleb128 0x3a
 7681 00a1 0B       		.uleb128 0xb
 7682 00a2 3B       		.uleb128 0x3b
 7683 00a3 05       		.uleb128 0x5
 7684 00a4 27       		.uleb128 0x27
 7685 00a5 19       		.uleb128 0x19
 7686 00a6 11       		.uleb128 0x11
 7687 00a7 01       		.uleb128 0x1
 7688 00a8 12       		.uleb128 0x12
 7689 00a9 06       		.uleb128 0x6
 7690 00aa 40       		.uleb128 0x40
 7691 00ab 18       		.uleb128 0x18
 7692 00ac 9742     		.uleb128 0x2117
 7693 00ae 19       		.uleb128 0x19
 7694 00af 00       		.byte	0
 7695 00b0 00       		.byte	0
 7696 00b1 0F       		.uleb128 0xf
 7697 00b2 2E       		.uleb128 0x2e
 7698 00b3 01       		.byte	0x1
 7699 00b4 3F       		.uleb128 0x3f
 7700 00b5 19       		.uleb128 0x19
ARM GAS  C:\Users\User\AppData\Local\Temp\ccoMSFoX.s 			page 159


 7701 00b6 03       		.uleb128 0x3
 7702 00b7 0E       		.uleb128 0xe
 7703 00b8 3A       		.uleb128 0x3a
 7704 00b9 0B       		.uleb128 0xb
 7705 00ba 3B       		.uleb128 0x3b
 7706 00bb 0B       		.uleb128 0xb
 7707 00bc 27       		.uleb128 0x27
 7708 00bd 19       		.uleb128 0x19
 7709 00be 11       		.uleb128 0x11
 7710 00bf 01       		.uleb128 0x1
 7711 00c0 12       		.uleb128 0x12
 7712 00c1 06       		.uleb128 0x6
 7713 00c2 40       		.uleb128 0x40
 7714 00c3 18       		.uleb128 0x18
 7715 00c4 9742     		.uleb128 0x2117
 7716 00c6 19       		.uleb128 0x19
 7717 00c7 01       		.uleb128 0x1
 7718 00c8 13       		.uleb128 0x13
 7719 00c9 00       		.byte	0
 7720 00ca 00       		.byte	0
 7721 00cb 10       		.uleb128 0x10
 7722 00cc 898201   		.uleb128 0x4109
 7723 00cf 00       		.byte	0
 7724 00d0 11       		.uleb128 0x11
 7725 00d1 01       		.uleb128 0x1
 7726 00d2 31       		.uleb128 0x31
 7727 00d3 13       		.uleb128 0x13
 7728 00d4 00       		.byte	0
 7729 00d5 00       		.byte	0
 7730 00d6 11       		.uleb128 0x11
 7731 00d7 898201   		.uleb128 0x4109
 7732 00da 01       		.byte	0x1
 7733 00db 11       		.uleb128 0x11
 7734 00dc 01       		.uleb128 0x1
 7735 00dd 31       		.uleb128 0x31
 7736 00de 13       		.uleb128 0x13
 7737 00df 01       		.uleb128 0x1
 7738 00e0 13       		.uleb128 0x13
 7739 00e1 00       		.byte	0
 7740 00e2 00       		.byte	0
 7741 00e3 12       		.uleb128 0x12
 7742 00e4 8A8201   		.uleb128 0x410a
 7743 00e7 00       		.byte	0
 7744 00e8 02       		.uleb128 0x2
 7745 00e9 18       		.uleb128 0x18
 7746 00ea 9142     		.uleb128 0x2111
 7747 00ec 18       		.uleb128 0x18
 7748 00ed 00       		.byte	0
 7749 00ee 00       		.byte	0
 7750 00ef 13       		.uleb128 0x13
 7751 00f0 898201   		.uleb128 0x4109
 7752 00f3 01       		.byte	0x1
 7753 00f4 11       		.uleb128 0x11
 7754 00f5 01       		.uleb128 0x1
 7755 00f6 31       		.uleb128 0x31
 7756 00f7 13       		.uleb128 0x13
 7757 00f8 00       		.byte	0
ARM GAS  C:\Users\User\AppData\Local\Temp\ccoMSFoX.s 			page 160


 7758 00f9 00       		.byte	0
 7759 00fa 14       		.uleb128 0x14
 7760 00fb 2E       		.uleb128 0x2e
 7761 00fc 01       		.byte	0x1
 7762 00fd 3F       		.uleb128 0x3f
 7763 00fe 19       		.uleb128 0x19
 7764 00ff 03       		.uleb128 0x3
 7765 0100 0E       		.uleb128 0xe
 7766 0101 3A       		.uleb128 0x3a
 7767 0102 0B       		.uleb128 0xb
 7768 0103 3B       		.uleb128 0x3b
 7769 0104 05       		.uleb128 0x5
 7770 0105 27       		.uleb128 0x27
 7771 0106 19       		.uleb128 0x19
 7772 0107 11       		.uleb128 0x11
 7773 0108 01       		.uleb128 0x1
 7774 0109 12       		.uleb128 0x12
 7775 010a 06       		.uleb128 0x6
 7776 010b 40       		.uleb128 0x40
 7777 010c 18       		.uleb128 0x18
 7778 010d 9742     		.uleb128 0x2117
 7779 010f 19       		.uleb128 0x19
 7780 0110 01       		.uleb128 0x1
 7781 0111 13       		.uleb128 0x13
 7782 0112 00       		.byte	0
 7783 0113 00       		.byte	0
 7784 0114 15       		.uleb128 0x15
 7785 0115 0B       		.uleb128 0xb
 7786 0116 01       		.byte	0x1
 7787 0117 11       		.uleb128 0x11
 7788 0118 01       		.uleb128 0x1
 7789 0119 12       		.uleb128 0x12
 7790 011a 06       		.uleb128 0x6
 7791 011b 01       		.uleb128 0x1
 7792 011c 13       		.uleb128 0x13
 7793 011d 00       		.byte	0
 7794 011e 00       		.byte	0
 7795 011f 16       		.uleb128 0x16
 7796 0120 34       		.uleb128 0x34
 7797 0121 00       		.byte	0
 7798 0122 03       		.uleb128 0x3
 7799 0123 08       		.uleb128 0x8
 7800 0124 3A       		.uleb128 0x3a
 7801 0125 0B       		.uleb128 0xb
 7802 0126 3B       		.uleb128 0x3b
 7803 0127 05       		.uleb128 0x5
 7804 0128 49       		.uleb128 0x49
 7805 0129 13       		.uleb128 0x13
 7806 012a 02       		.uleb128 0x2
 7807 012b 17       		.uleb128 0x17
 7808 012c 00       		.byte	0
 7809 012d 00       		.byte	0
 7810 012e 17       		.uleb128 0x17
 7811 012f 2E       		.uleb128 0x2e
 7812 0130 01       		.byte	0x1
 7813 0131 3F       		.uleb128 0x3f
 7814 0132 19       		.uleb128 0x19
ARM GAS  C:\Users\User\AppData\Local\Temp\ccoMSFoX.s 			page 161


 7815 0133 03       		.uleb128 0x3
 7816 0134 0E       		.uleb128 0xe
 7817 0135 3A       		.uleb128 0x3a
 7818 0136 0B       		.uleb128 0xb
 7819 0137 3B       		.uleb128 0x3b
 7820 0138 05       		.uleb128 0x5
 7821 0139 27       		.uleb128 0x27
 7822 013a 19       		.uleb128 0x19
 7823 013b 11       		.uleb128 0x11
 7824 013c 01       		.uleb128 0x1
 7825 013d 12       		.uleb128 0x12
 7826 013e 06       		.uleb128 0x6
 7827 013f 40       		.uleb128 0x40
 7828 0140 18       		.uleb128 0x18
 7829 0141 9642     		.uleb128 0x2116
 7830 0143 19       		.uleb128 0x19
 7831 0144 01       		.uleb128 0x1
 7832 0145 13       		.uleb128 0x13
 7833 0146 00       		.byte	0
 7834 0147 00       		.byte	0
 7835 0148 18       		.uleb128 0x18
 7836 0149 34       		.uleb128 0x34
 7837 014a 00       		.byte	0
 7838 014b 03       		.uleb128 0x3
 7839 014c 0E       		.uleb128 0xe
 7840 014d 3A       		.uleb128 0x3a
 7841 014e 0B       		.uleb128 0xb
 7842 014f 3B       		.uleb128 0x3b
 7843 0150 05       		.uleb128 0x5
 7844 0151 49       		.uleb128 0x49
 7845 0152 13       		.uleb128 0x13
 7846 0153 02       		.uleb128 0x2
 7847 0154 17       		.uleb128 0x17
 7848 0155 00       		.byte	0
 7849 0156 00       		.byte	0
 7850 0157 19       		.uleb128 0x19
 7851 0158 0B       		.uleb128 0xb
 7852 0159 01       		.byte	0x1
 7853 015a 55       		.uleb128 0x55
 7854 015b 17       		.uleb128 0x17
 7855 015c 01       		.uleb128 0x1
 7856 015d 13       		.uleb128 0x13
 7857 015e 00       		.byte	0
 7858 015f 00       		.byte	0
 7859 0160 1A       		.uleb128 0x1a
 7860 0161 05       		.uleb128 0x5
 7861 0162 00       		.byte	0
 7862 0163 03       		.uleb128 0x3
 7863 0164 0E       		.uleb128 0xe
 7864 0165 3A       		.uleb128 0x3a
 7865 0166 0B       		.uleb128 0xb
 7866 0167 3B       		.uleb128 0x3b
 7867 0168 05       		.uleb128 0x5
 7868 0169 49       		.uleb128 0x49
 7869 016a 13       		.uleb128 0x13
 7870 016b 02       		.uleb128 0x2
 7871 016c 17       		.uleb128 0x17
ARM GAS  C:\Users\User\AppData\Local\Temp\ccoMSFoX.s 			page 162


 7872 016d 00       		.byte	0
 7873 016e 00       		.byte	0
 7874 016f 1B       		.uleb128 0x1b
 7875 0170 2E       		.uleb128 0x2e
 7876 0171 01       		.byte	0x1
 7877 0172 3F       		.uleb128 0x3f
 7878 0173 19       		.uleb128 0x19
 7879 0174 03       		.uleb128 0x3
 7880 0175 0E       		.uleb128 0xe
 7881 0176 3A       		.uleb128 0x3a
 7882 0177 0B       		.uleb128 0xb
 7883 0178 3B       		.uleb128 0x3b
 7884 0179 0B       		.uleb128 0xb
 7885 017a 27       		.uleb128 0x27
 7886 017b 19       		.uleb128 0x19
 7887 017c 49       		.uleb128 0x49
 7888 017d 13       		.uleb128 0x13
 7889 017e 8701     		.uleb128 0x87
 7890 0180 19       		.uleb128 0x19
 7891 0181 11       		.uleb128 0x11
 7892 0182 01       		.uleb128 0x1
 7893 0183 12       		.uleb128 0x12
 7894 0184 06       		.uleb128 0x6
 7895 0185 40       		.uleb128 0x40
 7896 0186 18       		.uleb128 0x18
 7897 0187 9742     		.uleb128 0x2117
 7898 0189 19       		.uleb128 0x19
 7899 018a 01       		.uleb128 0x1
 7900 018b 13       		.uleb128 0x13
 7901 018c 00       		.byte	0
 7902 018d 00       		.byte	0
 7903 018e 1C       		.uleb128 0x1c
 7904 018f 34       		.uleb128 0x34
 7905 0190 00       		.byte	0
 7906 0191 03       		.uleb128 0x3
 7907 0192 0E       		.uleb128 0xe
 7908 0193 3A       		.uleb128 0x3a
 7909 0194 0B       		.uleb128 0xb
 7910 0195 3B       		.uleb128 0x3b
 7911 0196 05       		.uleb128 0x5
 7912 0197 49       		.uleb128 0x49
 7913 0198 13       		.uleb128 0x13
 7914 0199 3F       		.uleb128 0x3f
 7915 019a 19       		.uleb128 0x19
 7916 019b 3C       		.uleb128 0x3c
 7917 019c 19       		.uleb128 0x19
 7918 019d 00       		.byte	0
 7919 019e 00       		.byte	0
 7920 019f 1D       		.uleb128 0x1d
 7921 01a0 34       		.uleb128 0x34
 7922 01a1 00       		.byte	0
 7923 01a2 03       		.uleb128 0x3
 7924 01a3 0E       		.uleb128 0xe
 7925 01a4 3A       		.uleb128 0x3a
 7926 01a5 0B       		.uleb128 0xb
 7927 01a6 3B       		.uleb128 0x3b
 7928 01a7 0B       		.uleb128 0xb
ARM GAS  C:\Users\User\AppData\Local\Temp\ccoMSFoX.s 			page 163


 7929 01a8 49       		.uleb128 0x49
 7930 01a9 13       		.uleb128 0x13
 7931 01aa 3F       		.uleb128 0x3f
 7932 01ab 19       		.uleb128 0x19
 7933 01ac 02       		.uleb128 0x2
 7934 01ad 18       		.uleb128 0x18
 7935 01ae 00       		.byte	0
 7936 01af 00       		.byte	0
 7937 01b0 1E       		.uleb128 0x1e
 7938 01b1 34       		.uleb128 0x34
 7939 01b2 00       		.byte	0
 7940 01b3 03       		.uleb128 0x3
 7941 01b4 08       		.uleb128 0x8
 7942 01b5 3A       		.uleb128 0x3a
 7943 01b6 0B       		.uleb128 0xb
 7944 01b7 3B       		.uleb128 0x3b
 7945 01b8 0B       		.uleb128 0xb
 7946 01b9 49       		.uleb128 0x49
 7947 01ba 13       		.uleb128 0x13
 7948 01bb 3F       		.uleb128 0x3f
 7949 01bc 19       		.uleb128 0x19
 7950 01bd 02       		.uleb128 0x2
 7951 01be 18       		.uleb128 0x18
 7952 01bf 00       		.byte	0
 7953 01c0 00       		.byte	0
 7954 01c1 1F       		.uleb128 0x1f
 7955 01c2 21       		.uleb128 0x21
 7956 01c3 00       		.byte	0
 7957 01c4 49       		.uleb128 0x49
 7958 01c5 13       		.uleb128 0x13
 7959 01c6 2F       		.uleb128 0x2f
 7960 01c7 05       		.uleb128 0x5
 7961 01c8 00       		.byte	0
 7962 01c9 00       		.byte	0
 7963 01ca 20       		.uleb128 0x20
 7964 01cb 2E       		.uleb128 0x2e
 7965 01cc 00       		.byte	0
 7966 01cd 3F       		.uleb128 0x3f
 7967 01ce 19       		.uleb128 0x19
 7968 01cf 3C       		.uleb128 0x3c
 7969 01d0 19       		.uleb128 0x19
 7970 01d1 6E       		.uleb128 0x6e
 7971 01d2 0E       		.uleb128 0xe
 7972 01d3 03       		.uleb128 0x3
 7973 01d4 0E       		.uleb128 0xe
 7974 01d5 3A       		.uleb128 0x3a
 7975 01d6 0B       		.uleb128 0xb
 7976 01d7 3B       		.uleb128 0x3b
 7977 01d8 0B       		.uleb128 0xb
 7978 01d9 00       		.byte	0
 7979 01da 00       		.byte	0
 7980 01db 21       		.uleb128 0x21
 7981 01dc 2E       		.uleb128 0x2e
 7982 01dd 00       		.byte	0
 7983 01de 3F       		.uleb128 0x3f
 7984 01df 19       		.uleb128 0x19
 7985 01e0 3C       		.uleb128 0x3c
ARM GAS  C:\Users\User\AppData\Local\Temp\ccoMSFoX.s 			page 164


 7986 01e1 19       		.uleb128 0x19
 7987 01e2 6E       		.uleb128 0x6e
 7988 01e3 08       		.uleb128 0x8
 7989 01e4 03       		.uleb128 0x3
 7990 01e5 08       		.uleb128 0x8
 7991 01e6 3A       		.uleb128 0x3a
 7992 01e7 0B       		.uleb128 0xb
 7993 01e8 3B       		.uleb128 0x3b
 7994 01e9 0B       		.uleb128 0xb
 7995 01ea 00       		.byte	0
 7996 01eb 00       		.byte	0
 7997 01ec 00       		.byte	0
 7998              		.section	.debug_loc,"",%progbits
 7999              	.Ldebug_loc0:
 8000              	.LLST0:
 8001 0000 02000000 		.4byte	.LVL65
 8002 0004 06000000 		.4byte	.LVL66
 8003 0008 0200     		.2byte	0x2
 8004 000a 30       		.byte	0x30
 8005 000b 9F       		.byte	0x9f
 8006 000c 06000000 		.4byte	.LVL66
 8007 0010 78000000 		.4byte	.LVL82
 8008 0014 0100     		.2byte	0x1
 8009 0016 54       		.byte	0x54
 8010 0017 00000000 		.4byte	0
 8011 001b 00000000 		.4byte	0
 8012              	.LLST1:
 8013 001f 14000000 		.4byte	.LVL85
 8014 0023 CA000000 		.4byte	.LVL106
 8015 0027 0100     		.2byte	0x1
 8016 0029 55       		.byte	0x55
 8017 002a D0000000 		.4byte	.LVL107
 8018 002e 5C020000 		.4byte	.LVL151
 8019 0032 0100     		.2byte	0x1
 8020 0034 55       		.byte	0x55
 8021 0035 00000000 		.4byte	0
 8022 0039 00000000 		.4byte	0
 8023              	.LLST2:
 8024 003d 10000000 		.4byte	.LVL84
 8025 0041 14000000 		.4byte	.LVL85
 8026 0045 0200     		.2byte	0x2
 8027 0047 30       		.byte	0x30
 8028 0048 9F       		.byte	0x9f
 8029 0049 14000000 		.4byte	.LVL85
 8030 004d 86020000 		.4byte	.LVL156
 8031 0051 0100     		.2byte	0x1
 8032 0053 54       		.byte	0x54
 8033 0054 00000000 		.4byte	0
 8034 0058 00000000 		.4byte	0
 8035              	.LLST3:
 8036 005c 14000000 		.4byte	.LVL85
 8037 0060 CA000000 		.4byte	.LVL106
 8038 0064 0100     		.2byte	0x1
 8039 0066 57       		.byte	0x57
 8040 0067 D0000000 		.4byte	.LVL107
 8041 006b DA000000 		.4byte	.LVL108
 8042 006f 0100     		.2byte	0x1
ARM GAS  C:\Users\User\AppData\Local\Temp\ccoMSFoX.s 			page 165


 8043 0071 57       		.byte	0x57
 8044 0072 00000000 		.4byte	0
 8045 0076 00000000 		.4byte	0
 8046              	.LLST4:
 8047 007a DC000000 		.4byte	.LVL109
 8048 007e 80010000 		.4byte	.LVL127
 8049 0082 0100     		.2byte	0x1
 8050 0084 57       		.byte	0x57
 8051 0085 00000000 		.4byte	0
 8052 0089 00000000 		.4byte	0
 8053              	.LLST5:
 8054 008d 82010000 		.4byte	.LVL128
 8055 0091 5C020000 		.4byte	.LVL151
 8056 0095 0100     		.2byte	0x1
 8057 0097 57       		.byte	0x57
 8058 0098 00000000 		.4byte	0
 8059 009c 00000000 		.4byte	0
 8060              	.LLST6:
 8061 00a0 66020000 		.4byte	.LVL152
 8062 00a4 7B020000 		.4byte	.LVL154-1
 8063 00a8 0100     		.2byte	0x1
 8064 00aa 53       		.byte	0x53
 8065 00ab 00000000 		.4byte	0
 8066 00af 00000000 		.4byte	0
 8067              	.LLST7:
 8068 00b3 12000000 		.4byte	.LVL157
 8069 00b7 16000000 		.4byte	.LVL158
 8070 00bb 0200     		.2byte	0x2
 8071 00bd 30       		.byte	0x30
 8072 00be 9F       		.byte	0x9f
 8073 00bf 16000000 		.4byte	.LVL158
 8074 00c3 27000000 		.4byte	.LVL160-1
 8075 00c7 0100     		.2byte	0x1
 8076 00c9 53       		.byte	0x53
 8077 00ca 00000000 		.4byte	0
 8078 00ce 00000000 		.4byte	0
 8079              	.LLST8:
 8080 00d2 00000000 		.4byte	.LVL335
 8081 00d6 06000000 		.4byte	.LVL336
 8082 00da 0100     		.2byte	0x1
 8083 00dc 50       		.byte	0x50
 8084 00dd 06000000 		.4byte	.LVL336
 8085 00e1 88000000 		.4byte	.LFE71
 8086 00e5 0400     		.2byte	0x4
 8087 00e7 F3       		.byte	0xf3
 8088 00e8 01       		.uleb128 0x1
 8089 00e9 50       		.byte	0x50
 8090 00ea 9F       		.byte	0x9f
 8091 00eb 00000000 		.4byte	0
 8092 00ef 00000000 		.4byte	0
 8093              	.LLST9:
 8094 00f3 14000000 		.4byte	.LVL360
 8095 00f7 38000000 		.4byte	.LVL367
 8096 00fb 0100     		.2byte	0x1
 8097 00fd 54       		.byte	0x54
 8098 00fe 3A000000 		.4byte	.LVL368
 8099 0102 D8000000 		.4byte	.LVL380
ARM GAS  C:\Users\User\AppData\Local\Temp\ccoMSFoX.s 			page 166


 8100 0106 0100     		.2byte	0x1
 8101 0108 54       		.byte	0x54
 8102 0109 14010000 		.4byte	.LVL388
 8103 010d 9A010000 		.4byte	.LVL411
 8104 0111 0100     		.2byte	0x1
 8105 0113 54       		.byte	0x54
 8106 0114 00000000 		.4byte	0
 8107 0118 00000000 		.4byte	0
 8108              	.LLST10:
 8109 011c D6000000 		.4byte	.LVL379
 8110 0120 DA000000 		.4byte	.LVL381
 8111 0124 0200     		.2byte	0x2
 8112 0126 30       		.byte	0x30
 8113 0127 9F       		.byte	0x9f
 8114 0128 DA000000 		.4byte	.LVL381
 8115 012c 14010000 		.4byte	.LVL388
 8116 0130 0100     		.2byte	0x1
 8117 0132 54       		.byte	0x54
 8118 0133 00000000 		.4byte	0
 8119 0137 00000000 		.4byte	0
 8120              		.section	.debug_aranges,"",%progbits
 8121 0000 C4000000 		.4byte	0xc4
 8122 0004 0200     		.2byte	0x2
 8123 0006 00000000 		.4byte	.Ldebug_info0
 8124 000a 04       		.byte	0x4
 8125 000b 00       		.byte	0
 8126 000c 0000     		.2byte	0
 8127 000e 0000     		.2byte	0
 8128 0010 00000000 		.4byte	.LFB80
 8129 0014 02000000 		.4byte	.LFE80-.LFB80
 8130 0018 00000000 		.4byte	.LFB81
 8131 001c 02000000 		.4byte	.LFE81-.LFB81
 8132 0020 00000000 		.4byte	.LFB82
 8133 0024 02000000 		.4byte	.LFE82-.LFB82
 8134 0028 00000000 		.4byte	.LFB83
 8135 002c 02000000 		.4byte	.LFE83-.LFB83
 8136 0030 00000000 		.4byte	.LFB84
 8137 0034 02000000 		.4byte	.LFE84-.LFB84
 8138 0038 00000000 		.4byte	.LFB85
 8139 003c 02000000 		.4byte	.LFE85-.LFB85
 8140 0040 00000000 		.4byte	.LFB65
 8141 0044 D8000000 		.4byte	.LFE65-.LFB65
 8142 0048 00000000 		.4byte	.LFB66
 8143 004c E8000000 		.4byte	.LFE66-.LFB66
 8144 0050 00000000 		.4byte	.LFB67
 8145 0054 48000000 		.4byte	.LFE67-.LFB67
 8146 0058 00000000 		.4byte	.LFB68
 8147 005c 90000000 		.4byte	.LFE68-.LFB68
 8148 0060 00000000 		.4byte	.LFB70
 8149 0064 A8020000 		.4byte	.LFE70-.LFB70
 8150 0068 00000000 		.4byte	.LFB69
 8151 006c 38000000 		.4byte	.LFE69-.LFB69
 8152 0070 00000000 		.4byte	.LFB73
 8153 0074 A4000000 		.4byte	.LFE73-.LFB73
 8154 0078 00000000 		.4byte	.LFB74
 8155 007c A4000000 		.4byte	.LFE74-.LFB74
 8156 0080 00000000 		.4byte	.LFB75
ARM GAS  C:\Users\User\AppData\Local\Temp\ccoMSFoX.s 			page 167


 8157 0084 A4000000 		.4byte	.LFE75-.LFB75
 8158 0088 00000000 		.4byte	.LFB76
 8159 008c A4000000 		.4byte	.LFE76-.LFB76
 8160 0090 00000000 		.4byte	.LFB77
 8161 0094 2C030000 		.4byte	.LFE77-.LFB77
 8162 0098 00000000 		.4byte	.LFB78
 8163 009c 2C030000 		.4byte	.LFE78-.LFB78
 8164 00a0 00000000 		.4byte	.LFB71
 8165 00a4 88000000 		.4byte	.LFE71-.LFB71
 8166 00a8 00000000 		.4byte	.LFB72
 8167 00ac B0010000 		.4byte	.LFE72-.LFB72
 8168 00b0 00000000 		.4byte	.LFB64
 8169 00b4 1E000000 		.4byte	.LFE64-.LFB64
 8170 00b8 00000000 		.4byte	.LFB79
 8171 00bc 30000000 		.4byte	.LFE79-.LFB79
 8172 00c0 00000000 		.4byte	0
 8173 00c4 00000000 		.4byte	0
 8174              		.section	.debug_ranges,"",%progbits
 8175              	.Ldebug_ranges0:
 8176 0000 14000000 		.4byte	.LBB4
 8177 0004 CA000000 		.4byte	.LBE4
 8178 0008 D0000000 		.4byte	.LBB5
 8179 000c DC000000 		.4byte	.LBE5
 8180 0010 00000000 		.4byte	0
 8181 0014 00000000 		.4byte	0
 8182 0018 14000000 		.4byte	.LBB10
 8183 001c 38000000 		.4byte	.LBE10
 8184 0020 3A000000 		.4byte	.LBB11
 8185 0024 42000000 		.4byte	.LBE11
 8186 0028 00000000 		.4byte	0
 8187 002c 00000000 		.4byte	0
 8188 0030 00000000 		.4byte	.LFB80
 8189 0034 02000000 		.4byte	.LFE80
 8190 0038 00000000 		.4byte	.LFB81
 8191 003c 02000000 		.4byte	.LFE81
 8192 0040 00000000 		.4byte	.LFB82
 8193 0044 02000000 		.4byte	.LFE82
 8194 0048 00000000 		.4byte	.LFB83
 8195 004c 02000000 		.4byte	.LFE83
 8196 0050 00000000 		.4byte	.LFB84
 8197 0054 02000000 		.4byte	.LFE84
 8198 0058 00000000 		.4byte	.LFB85
 8199 005c 02000000 		.4byte	.LFE85
 8200 0060 00000000 		.4byte	.LFB65
 8201 0064 D8000000 		.4byte	.LFE65
 8202 0068 00000000 		.4byte	.LFB66
 8203 006c E8000000 		.4byte	.LFE66
 8204 0070 00000000 		.4byte	.LFB67
 8205 0074 48000000 		.4byte	.LFE67
 8206 0078 00000000 		.4byte	.LFB68
 8207 007c 90000000 		.4byte	.LFE68
 8208 0080 00000000 		.4byte	.LFB70
 8209 0084 A8020000 		.4byte	.LFE70
 8210 0088 00000000 		.4byte	.LFB69
 8211 008c 38000000 		.4byte	.LFE69
 8212 0090 00000000 		.4byte	.LFB73
 8213 0094 A4000000 		.4byte	.LFE73
ARM GAS  C:\Users\User\AppData\Local\Temp\ccoMSFoX.s 			page 168


 8214 0098 00000000 		.4byte	.LFB74
 8215 009c A4000000 		.4byte	.LFE74
 8216 00a0 00000000 		.4byte	.LFB75
 8217 00a4 A4000000 		.4byte	.LFE75
 8218 00a8 00000000 		.4byte	.LFB76
 8219 00ac A4000000 		.4byte	.LFE76
 8220 00b0 00000000 		.4byte	.LFB77
 8221 00b4 2C030000 		.4byte	.LFE77
 8222 00b8 00000000 		.4byte	.LFB78
 8223 00bc 2C030000 		.4byte	.LFE78
 8224 00c0 00000000 		.4byte	.LFB71
 8225 00c4 88000000 		.4byte	.LFE71
 8226 00c8 00000000 		.4byte	.LFB72
 8227 00cc B0010000 		.4byte	.LFE72
 8228 00d0 00000000 		.4byte	.LFB64
 8229 00d4 1E000000 		.4byte	.LFE64
 8230 00d8 00000000 		.4byte	.LFB79
 8231 00dc 30000000 		.4byte	.LFE79
 8232 00e0 00000000 		.4byte	0
 8233 00e4 00000000 		.4byte	0
 8234              		.section	.debug_line,"",%progbits
 8235              	.Ldebug_line0:
 8236 0000 16080000 		.section	.debug_str,"MS",%progbits,1
 8236      02001504 
 8236      00000201 
 8236      FB0E0D00 
 8236      01010101 
 8237              	.LASF86:
 8238 0000 4144435F 		.ascii	"ADC_SAR_1_IRQ_Disable\000"
 8238      5341525F 
 8238      315F4952 
 8238      515F4469 
 8238      7361626C 
 8239              	.LASF109:
 8240 0016 43794465 		.ascii	"CyDelay\000"
 8240      6C617900 
 8241              	.LASF125:
 8242 001e 53686966 		.ascii	"ShiftReg_2_Stop\000"
 8242      74526567 
 8242      5F325F53 
 8242      746F7000 
 8243              	.LASF89:
 8244 002e 54726163 		.ascii	"Track_Hold_1_Start\000"
 8244      6B5F486F 
 8244      6C645F31 
 8244      5F537461 
 8244      727400
 8245              	.LASF43:
 8246 0041 646D615F 		.ascii	"dma_adc_2_init\000"
 8246      6164635F 
 8246      325F696E 
 8246      697400
 8247              	.LASF74:
 8248 0050 53686966 		.ascii	"ShiftReg_1_WriteRegValue\000"
 8248      74526567 
 8248      5F315F57 
 8248      72697465 
ARM GAS  C:\Users\User\AppData\Local\Temp\ccoMSFoX.s 			page 169


 8248      52656756 
 8249              	.LASF134:
 8250 0069 6D61696E 		.ascii	"main.c\000"
 8250      2E6300
 8251              	.LASF103:
 8252 0070 6973725F 		.ascii	"isr_ADC_2_StartEx\000"
 8252      4144435F 
 8252      325F5374 
 8252      61727445 
 8252      7800
 8253              	.LASF76:
 8254 0082 49444143 		.ascii	"IDAC8_2_Start\000"
 8254      385F325F 
 8254      53746172 
 8254      7400
 8255              	.LASF97:
 8256 0090 69737254 		.ascii	"isrTrigger_StartEx\000"
 8256      72696767 
 8256      65725F53 
 8256      74617274 
 8256      457800
 8257              	.LASF8:
 8258 00a3 756E7369 		.ascii	"unsigned int\000"
 8258      676E6564 
 8258      20696E74 
 8258      00
 8259              	.LASF58:
 8260 00b0 444D415F 		.ascii	"DMA_DAC_4_TD\000"
 8260      4441435F 
 8260      345F5444 
 8260      00
 8261              	.LASF114:
 8262 00bd 4379446D 		.ascii	"CyDmaTdSetConfiguration\000"
 8262      61546453 
 8262      6574436F 
 8262      6E666967 
 8262      75726174 
 8263              	.LASF110:
 8264 00d5 464C4153 		.ascii	"FLASH_Write\000"
 8264      485F5772 
 8264      69746500 
 8265              	.LASF9:
 8266 00e1 5F5F696E 		.ascii	"__int32_t\000"
 8266      7433325F 
 8266      7400
 8267              	.LASF17:
 8268 00eb 72656738 		.ascii	"reg8\000"
 8268      00
 8269              	.LASF20:
 8270 00f0 6F6D5F6D 		.ascii	"om_mod\000"
 8270      6F6400
 8271              	.LASF41:
 8272 00f7 646D615F 		.ascii	"dma_dac_4_init\000"
 8272      6461635F 
 8272      345F696E 
 8272      697400
 8273              	.LASF63:
ARM GAS  C:\Users\User\AppData\Local\Temp\ccoMSFoX.s 			page 170


 8274 0106 70757474 		.ascii	"puttyIn\000"
 8274      79496E00 
 8275              	.LASF37:
 8276 010e 6368616E 		.ascii	"chan_i\000"
 8276      5F6900
 8277              	.LASF98:
 8278 0115 6973725F 		.ascii	"isr_DAC_1_StartEx\000"
 8278      4441435F 
 8278      315F5374 
 8278      61727445 
 8278      7800
 8279              	.LASF70:
 8280 0127 636F756E 		.ascii	"count_of_runs\000"
 8280      745F6F66 
 8280      5F72756E 
 8280      7300
 8281              	.LASF82:
 8282 0135 49444143 		.ascii	"IDAC8_4_Start\000"
 8282      385F345F 
 8282      53746172 
 8282      7400
 8283              	.LASF38:
 8284 0143 646D615F 		.ascii	"dma_dac_1_init\000"
 8284      6461635F 
 8284      315F696E 
 8284      697400
 8285              	.LASF84:
 8286 0152 53686966 		.ascii	"ShiftReg_4_Start\000"
 8286      74526567 
 8286      5F345F53 
 8286      74617274 
 8286      00
 8287              	.LASF24:
 8288 0163 6973725F 		.ascii	"isr_DAC_2_done\000"
 8288      4441435F 
 8288      325F646F 
 8288      6E6500
 8289              	.LASF14:
 8290 0172 666C6F61 		.ascii	"float\000"
 8290      7400
 8291              	.LASF132:
 8292 0178 43794465 		.ascii	"CyDelayUs\000"
 8292      6C617955 
 8292      7300
 8293              	.LASF7:
 8294 0182 6C6F6E67 		.ascii	"long long unsigned int\000"
 8294      206C6F6E 
 8294      6720756E 
 8294      7369676E 
 8294      65642069 
 8295              	.LASF111:
 8296 0199 4C45445F 		.ascii	"LED_Write\000"
 8296      57726974 
 8296      6500
 8297              	.LASF53:
 8298 01a3 444D415F 		.ascii	"DMA_DAC_2_Chan\000"
 8298      4441435F 
ARM GAS  C:\Users\User\AppData\Local\Temp\ccoMSFoX.s 			page 171


 8298      325F4368 
 8298      616E00
 8299              	.LASF93:
 8300 01b2 4368616E 		.ascii	"ChannelSel_Start\000"
 8300      6E656C53 
 8300      656C5F53 
 8300      74617274 
 8300      00
 8301              	.LASF28:
 8302 01c3 6973725F 		.ascii	"isr_ADC_2_done\000"
 8302      4144435F 
 8302      325F646F 
 8302      6E6500
 8303              	.LASF64:
 8304 01d2 72784275 		.ascii	"rxBuf\000"
 8304      6600
 8305              	.LASF133:
 8306 01d8 474E5520 		.ascii	"GNU C11 5.4.1 20160609 (release) [ARM/embedded-5-br"
 8306      43313120 
 8306      352E342E 
 8306      31203230 
 8306      31363036 
 8307 020b 616E6368 		.ascii	"anch revision 237715] -mcpu=cortex-m3 -mthumb -g -O"
 8307      20726576 
 8307      6973696F 
 8307      6E203233 
 8307      37373135 
 8308 023e 67202D66 		.ascii	"g -ffunction-sections -ffat-lto-objects\000"
 8308      66756E63 
 8308      74696F6E 
 8308      2D736563 
 8308      74696F6E 
 8309              	.LASF85:
 8310 0266 4144435F 		.ascii	"ADC_SAR_1_Start\000"
 8310      5341525F 
 8310      315F5374 
 8310      61727400 
 8311              	.LASF66:
 8312 0276 6E657874 		.ascii	"nextRun\000"
 8312      52756E00 
 8313              	.LASF100:
 8314 027e 6973725F 		.ascii	"isr_DAC_3_StartEx\000"
 8314      4441435F 
 8314      335F5374 
 8314      61727445 
 8314      7800
 8315              	.LASF61:
 8316 0290 444D415F 		.ascii	"DMA_ADC_2_Chan\000"
 8316      4144435F 
 8316      325F4368 
 8316      616E00
 8317              	.LASF69:
 8318 029f 63757272 		.ascii	"current_chan\000"
 8318      656E745F 
 8318      6368616E 
 8318      00
 8319              	.LASF78:
ARM GAS  C:\Users\User\AppData\Local\Temp\ccoMSFoX.s 			page 172


 8320 02ac 53686966 		.ascii	"ShiftReg_2_Start\000"
 8320      74526567 
 8320      5F325F53 
 8320      74617274 
 8320      00
 8321              	.LASF91:
 8322 02bd 7265664F 		.ascii	"refOut_Start\000"
 8322      75745F53 
 8322      74617274 
 8322      00
 8323              	.LASF106:
 8324 02ca 55415254 		.ascii	"UART_1_PutString\000"
 8324      5F315F50 
 8324      75745374 
 8324      72696E67 
 8324      00
 8325              	.LASF52:
 8326 02db 444D415F 		.ascii	"DMA_DAC_1_TD\000"
 8326      4441435F 
 8326      315F5444 
 8326      00
 8327              	.LASF135:
 8328 02e8 443A5C56 		.ascii	"D:\\VM_share\\MCU_PSoC_FPGA\\WOTAN\\WOTAN.cydsn\000"
 8328      4D5F7368 
 8328      6172655C 
 8328      4D43555F 
 8328      50536F43 
 8329              	.LASF113:
 8330 0314 4379446D 		.ascii	"CyDmaTdAllocate\000"
 8330      61546441 
 8330      6C6C6F63 
 8330      61746500 
 8331              	.LASF124:
 8332 0324 53686966 		.ascii	"ShiftReg_1_Stop\000"
 8332      74526567 
 8332      5F315F53 
 8332      746F7000 
 8333              	.LASF42:
 8334 0334 646D615F 		.ascii	"dma_adc_1_init\000"
 8334      6164635F 
 8334      315F696E 
 8334      697400
 8335              	.LASF26:
 8336 0343 6973725F 		.ascii	"isr_DAC_4_done\000"
 8336      4441435F 
 8336      345F646F 
 8336      6E6500
 8337              	.LASF47:
 8338 0352 6973725F 		.ascii	"isr_triggerIn\000"
 8338      74726967 
 8338      67657249 
 8338      6E00
 8339              	.LASF16:
 8340 0360 63686172 		.ascii	"char\000"
 8340      00
 8341              	.LASF99:
 8342 0365 6973725F 		.ascii	"isr_DAC_2_StartEx\000"
ARM GAS  C:\Users\User\AppData\Local\Temp\ccoMSFoX.s 			page 173


 8342      4441435F 
 8342      325F5374 
 8342      61727445 
 8342      7800
 8343              	.LASF57:
 8344 0377 444D415F 		.ascii	"DMA_DAC_4_Chan\000"
 8344      4441435F 
 8344      345F4368 
 8344      616E00
 8345              	.LASF88:
 8346 0386 4144435F 		.ascii	"ADC_SAR_2_IRQ_Disable\000"
 8346      5341525F 
 8346      325F4952 
 8346      515F4469 
 8346      7361626C 
 8347              	.LASF12:
 8348 039c 75696E74 		.ascii	"uint16\000"
 8348      313600
 8349              	.LASF34:
 8350 03a3 74696D65 		.ascii	"time_i\000"
 8350      5F6900
 8351              	.LASF49:
 8352 03aa 74774D50 		.ascii	"twMPI_params\000"
 8352      495F7061 
 8352      72616D73 
 8352      00
 8353              	.LASF131:
 8354 03b7 4C45445F 		.ascii	"LED_Read\000"
 8354      52656164 
 8354      00
 8355              	.LASF44:
 8356 03c0 72756E5F 		.ascii	"run_sequence\000"
 8356      73657175 
 8356      656E6365 
 8356      00
 8357              	.LASF40:
 8358 03cd 646D615F 		.ascii	"dma_dac_3_init\000"
 8358      6461635F 
 8358      335F696E 
 8358      697400
 8359              	.LASF72:
 8360 03dc 49444143 		.ascii	"IDAC8_1_Start\000"
 8360      385F315F 
 8360      53746172 
 8360      7400
 8361              	.LASF127:
 8362 03ea 53686966 		.ascii	"ShiftReg_4_Stop\000"
 8362      74526567 
 8362      5F345F53 
 8362      746F7000 
 8363              	.LASF32:
 8364 03fa 64697370 		.ascii	"display_results\000"
 8364      6C61795F 
 8364      72657375 
 8364      6C747300 
 8365              	.LASF6:
 8366 040a 6C6F6E67 		.ascii	"long long int\000"
ARM GAS  C:\Users\User\AppData\Local\Temp\ccoMSFoX.s 			page 174


 8366      206C6F6E 
 8366      6720696E 
 8366      7400
 8367              	.LASF62:
 8368 0418 444D415F 		.ascii	"DMA_ADC_2_TD\000"
 8368      4144435F 
 8368      325F5444 
 8368      00
 8369              	.LASF56:
 8370 0425 444D415F 		.ascii	"DMA_DAC_3_TD\000"
 8370      4441435F 
 8370      335F5444 
 8370      00
 8371              	.LASF75:
 8372 0432 53686966 		.ascii	"ShiftReg_1_Start\000"
 8372      74526567 
 8372      5F315F53 
 8372      74617274 
 8372      00
 8373              	.LASF65:
 8374 0443 72756E5F 		.ascii	"run_count_DAC_1\000"
 8374      636F756E 
 8374      745F4441 
 8374      435F3100 
 8375              	.LASF122:
 8376 0453 444D415F 		.ascii	"DMA_ADC_2_DmaInitialize\000"
 8376      4144435F 
 8376      325F446D 
 8376      61496E69 
 8376      7469616C 
 8377              	.LASF136:
 8378 046b 73657175 		.ascii	"sequenceParams\000"
 8378      656E6365 
 8378      50617261 
 8378      6D7300
 8379              	.LASF121:
 8380 047a 444D415F 		.ascii	"DMA_ADC_1_DmaInitialize\000"
 8380      4144435F 
 8380      315F446D 
 8380      61496E69 
 8380      7469616C 
 8381              	.LASF94:
 8382 0492 4368616E 		.ascii	"ChannelSel_Select\000"
 8382      6E656C53 
 8382      656C5F53 
 8382      656C6563 
 8382      7400
 8383              	.LASF13:
 8384 04a4 75696E74 		.ascii	"uint32\000"
 8384      333200
 8385              	.LASF104:
 8386 04ab 55415254 		.ascii	"UART_1_PutCRLF\000"
 8386      5F315F50 
 8386      75744352 
 8386      4C4600
 8387              	.LASF137:
 8388 04ba 73656C53 		.ascii	"selSequ\000"
ARM GAS  C:\Users\User\AppData\Local\Temp\ccoMSFoX.s 			page 175


 8388      65717500 
 8389              	.LASF73:
 8390 04c2 49444143 		.ascii	"IDAC8_1_SetValue\000"
 8390      385F315F 
 8390      53657456 
 8390      616C7565 
 8390      00
 8391              	.LASF23:
 8392 04d3 6973725F 		.ascii	"isr_DAC_1_done\000"
 8392      4441435F 
 8392      315F646F 
 8392      6E6500
 8393              	.LASF90:
 8394 04e2 54726163 		.ascii	"Track_Hold_2_Start\000"
 8394      6B5F486F 
 8394      6C645F32 
 8394      5F537461 
 8394      727400
 8395              	.LASF92:
 8396 04f5 73696742 		.ascii	"sigBuf_Start\000"
 8396      75665F53 
 8396      74617274 
 8396      00
 8397              	.LASF120:
 8398 0502 444D415F 		.ascii	"DMA_DAC_4_DmaInitialize\000"
 8398      4441435F 
 8398      345F446D 
 8398      61496E69 
 8398      7469616C 
 8399              	.LASF79:
 8400 051a 49444143 		.ascii	"IDAC8_3_Start\000"
 8400      385F335F 
 8400      53746172 
 8400      7400
 8401              	.LASF119:
 8402 0528 444D415F 		.ascii	"DMA_DAC_3_DmaInitialize\000"
 8402      4441435F 
 8402      335F446D 
 8402      61496E69 
 8402      7469616C 
 8403              	.LASF51:
 8404 0540 444D415F 		.ascii	"DMA_DAC_1_Chan\000"
 8404      4441435F 
 8404      315F4368 
 8404      616E00
 8405              	.LASF18:
 8406 054f 6C6F6E67 		.ascii	"long double\000"
 8406      20646F75 
 8406      626C6500 
 8407              	.LASF105:
 8408 055b 73707269 		.ascii	"sprintf\000"
 8408      6E746600 
 8409              	.LASF81:
 8410 0563 53686966 		.ascii	"ShiftReg_3_Start\000"
 8410      74526567 
 8410      5F335F53 
 8410      74617274 
ARM GAS  C:\Users\User\AppData\Local\Temp\ccoMSFoX.s 			page 176


 8410      00
 8411              	.LASF126:
 8412 0574 53686966 		.ascii	"ShiftReg_3_Stop\000"
 8412      74526567 
 8412      5F335F53 
 8412      746F7000 
 8413              	.LASF115:
 8414 0584 4379446D 		.ascii	"CyDmaTdSetAddress\000"
 8414      61546453 
 8414      65744164 
 8414      64726573 
 8414      7300
 8415              	.LASF2:
 8416 0596 73686F72 		.ascii	"short int\000"
 8416      7420696E 
 8416      7400
 8417              	.LASF67:
 8418 05a0 7369676E 		.ascii	"signal_adc_1\000"
 8418      616C5F61 
 8418      64635F31 
 8418      00
 8419              	.LASF68:
 8420 05ad 7369676E 		.ascii	"signal_adc_2\000"
 8420      616C5F61 
 8420      64635F32 
 8420      00
 8421              	.LASF21:
 8422 05ba 7068695F 		.ascii	"phi_mod\000"
 8422      6D6F6400 
 8423              	.LASF4:
 8424 05c2 6C6F6E67 		.ascii	"long int\000"
 8424      20696E74 
 8424      00
 8425              	.LASF48:
 8426 05cb 49544D5F 		.ascii	"ITM_RxBuffer\000"
 8426      52784275 
 8426      66666572 
 8426      00
 8427              	.LASF117:
 8428 05d8 4379446D 		.ascii	"CyDmaChEnable\000"
 8428      61436845 
 8428      6E61626C 
 8428      6500
 8429              	.LASF46:
 8430 05e6 63686172 		.ascii	"char_i\000"
 8430      5F6900
 8431              	.LASF129:
 8432 05ed 55415254 		.ascii	"UART_1_PutChar\000"
 8432      5F315F50 
 8432      75744368 
 8432      617200
 8433              	.LASF118:
 8434 05fc 444D415F 		.ascii	"DMA_DAC_2_DmaInitialize\000"
 8434      4441435F 
 8434      325F446D 
 8434      61496E69 
 8434      7469616C 
ARM GAS  C:\Users\User\AppData\Local\Temp\ccoMSFoX.s 			page 177


 8435              	.LASF102:
 8436 0614 6973725F 		.ascii	"isr_ADC_1_StartEx\000"
 8436      4144435F 
 8436      315F5374 
 8436      61727445 
 8436      7800
 8437              	.LASF112:
 8438 0626 444D415F 		.ascii	"DMA_DAC_1_DmaInitialize\000"
 8438      4441435F 
 8438      315F446D 
 8438      61496E69 
 8438      7469616C 
 8439              	.LASF25:
 8440 063e 6973725F 		.ascii	"isr_DAC_3_done\000"
 8440      4441435F 
 8440      335F646F 
 8440      6E6500
 8441              	.LASF71:
 8442 064d 70776D53 		.ascii	"pwmSAMPLING_Start\000"
 8442      414D504C 
 8442      494E475F 
 8442      53746172 
 8442      7400
 8443              	.LASF27:
 8444 065f 6973725F 		.ascii	"isr_ADC_1_done\000"
 8444      4144435F 
 8444      315F646F 
 8444      6E6500
 8445              	.LASF95:
 8446 066e 55415254 		.ascii	"UART_1_Start\000"
 8446      5F315F53 
 8446      74617274 
 8446      00
 8447              	.LASF83:
 8448 067b 53686966 		.ascii	"ShiftReg_4_WriteRegValue\000"
 8448      74526567 
 8448      5F345F57 
 8448      72697465 
 8448      52656756 
 8449              	.LASF45:
 8450 0694 75617274 		.ascii	"uart_interface\000"
 8450      5F696E74 
 8450      65726661 
 8450      636500
 8451              	.LASF96:
 8452 06a3 436F6D70 		.ascii	"CompTrigger_Start\000"
 8452      54726967 
 8452      6765725F 
 8452      53746172 
 8452      7400
 8453              	.LASF55:
 8454 06b5 444D415F 		.ascii	"DMA_DAC_3_Chan\000"
 8454      4441435F 
 8454      335F4368 
 8454      616E00
 8455              	.LASF19:
 8456 06c4 73697A65 		.ascii	"sizetype\000"
ARM GAS  C:\Users\User\AppData\Local\Temp\ccoMSFoX.s 			page 178


 8456      74797065 
 8456      00
 8457              	.LASF5:
 8458 06cd 6C6F6E67 		.ascii	"long unsigned int\000"
 8458      20756E73 
 8458      69676E65 
 8458      6420696E 
 8458      7400
 8459              	.LASF59:
 8460 06df 444D415F 		.ascii	"DMA_ADC_1_Chan\000"
 8460      4144435F 
 8460      315F4368 
 8460      616E00
 8461              	.LASF123:
 8462 06ee 696E7465 		.ascii	"internTrigger_Write\000"
 8462      726E5472 
 8462      69676765 
 8462      725F5772 
 8462      69746500 
 8463              	.LASF10:
 8464 0702 696E7433 		.ascii	"int32_t\000"
 8464      325F7400 
 8465              	.LASF29:
 8466 070a 696E6974 		.ascii	"init_components\000"
 8466      5F636F6D 
 8466      706F6E65 
 8466      6E747300 
 8467              	.LASF130:
 8468 071a 4379536F 		.ascii	"CySoftwareReset\000"
 8468      66747761 
 8468      72655265 
 8468      73657400 
 8469              	.LASF107:
 8470 072a 55415254 		.ascii	"UART_1_GetRxBufferSize\000"
 8470      5F315F47 
 8470      65745278 
 8470      42756666 
 8470      65725369 
 8471              	.LASF1:
 8472 0741 756E7369 		.ascii	"unsigned char\000"
 8472      676E6564 
 8472      20636861 
 8472      7200
 8473              	.LASF39:
 8474 074f 646D615F 		.ascii	"dma_dac_2_init\000"
 8474      6461635F 
 8474      325F696E 
 8474      697400
 8475              	.LASF31:
 8476 075e 73686F77 		.ascii	"show_channel_num\000"
 8476      5F636861 
 8476      6E6E656C 
 8476      5F6E756D 
 8476      00
 8477              	.LASF30:
 8478 076f 73686F77 		.ascii	"show_default_message\000"
 8478      5F646566 
ARM GAS  C:\Users\User\AppData\Local\Temp\ccoMSFoX.s 			page 179


 8478      61756C74 
 8478      5F6D6573 
 8478      73616765 
 8479              	.LASF87:
 8480 0784 4144435F 		.ascii	"ADC_SAR_2_Start\000"
 8480      5341525F 
 8480      325F5374 
 8480      61727400 
 8481              	.LASF22:
 8482 0794 666C6173 		.ascii	"flash_ptr\000"
 8482      685F7074 
 8482      7200
 8483              	.LASF36:
 8484 079e 7365745F 		.ascii	"set_sequence_params\000"
 8484      73657175 
 8484      656E6365 
 8484      5F706172 
 8484      616D7300 
 8485              	.LASF80:
 8486 07b2 53686966 		.ascii	"ShiftReg_3_WriteRegValue\000"
 8486      74526567 
 8486      5F335F57 
 8486      72697465 
 8486      52656756 
 8487              	.LASF77:
 8488 07cb 53686966 		.ascii	"ShiftReg_2_WriteRegValue\000"
 8488      74526567 
 8488      5F325F57 
 8488      72697465 
 8488      52656756 
 8489              	.LASF0:
 8490 07e4 7369676E 		.ascii	"signed char\000"
 8490      65642063 
 8490      68617200 
 8491              	.LASF116:
 8492 07f0 4379446D 		.ascii	"CyDmaChSetInitialTd\000"
 8492      61436853 
 8492      6574496E 
 8492      69746961 
 8492      6C546400 
 8493              	.LASF3:
 8494 0804 73686F72 		.ascii	"short unsigned int\000"
 8494      7420756E 
 8494      7369676E 
 8494      65642069 
 8494      6E7400
 8495              	.LASF60:
 8496 0817 444D415F 		.ascii	"DMA_ADC_1_TD\000"
 8496      4144435F 
 8496      315F5444 
 8496      00
 8497              	.LASF138:
 8498 0824 6D61696E 		.ascii	"main\000"
 8498      00
 8499              	.LASF54:
 8500 0829 444D415F 		.ascii	"DMA_DAC_2_TD\000"
 8500      4441435F 
ARM GAS  C:\Users\User\AppData\Local\Temp\ccoMSFoX.s 			page 180


 8500      325F5444 
 8500      00
 8501              	.LASF50:
 8502 0836 74774D50 		.ascii	"twMPI\000"
 8502      4900
 8503              	.LASF35:
 8504 083c 6368616E 		.ascii	"channel_i\000"
 8504      6E656C5F 
 8504      6900
 8505              	.LASF108:
 8506 0846 55415254 		.ascii	"UART_1_ClearRxBuffer\000"
 8506      5F315F43 
 8506      6C656172 
 8506      52784275 
 8506      66666572 
 8507              	.LASF11:
 8508 085b 75696E74 		.ascii	"uint8\000"
 8508      3800
 8509              	.LASF15:
 8510 0861 646F7562 		.ascii	"double\000"
 8510      6C6500
 8511              	.LASF128:
 8512 0868 55415254 		.ascii	"UART_1_GetChar\000"
 8512      5F315F47 
 8512      65744368 
 8512      617200
 8513              	.LASF33:
 8514 0877 67656E65 		.ascii	"generate_sequence\000"
 8514      72617465 
 8514      5F736571 
 8514      75656E63 
 8514      6500
 8515              	.LASF101:
 8516 0889 6973725F 		.ascii	"isr_DAC_4_StartEx\000"
 8516      4441435F 
 8516      345F5374 
 8516      61727445 
 8516      7800
 8517              		.ident	"GCC: (GNU Tools for ARM Embedded Processors) 5.4.1 20160609 (release) [ARM/embedded-5-bran
